---
triple:          'arm64-apple-darwin'
binary-path:     '/Users/itsecohs103hotmail.com/Library/Caches/org.carthage.CarthageKit/DerivedData/16.2_16C5032a/realm-cocoa/v20.0.2/Build/Products/Release-iphonesimulator/Realm.framework/Realm'
relocations:
  - { offset: 0x32840, size: 0x8, addend: 0x0, symName: ____Z28RLMReplaceSharedSchemaMethodP10objc_classP15RLMObjectSchema_block_invoke, symObjAddr: 0x170C, symBinAddr: 0x2B3428, symSize: 0x88 }
  - { offset: 0x3286B, size: 0x8, addend: 0x0, symName: __ZZZ28RLMReplaceSharedSchemaMethodP10objc_classP15RLMObjectSchemaEUb_E19accessorClassPrefix, symObjAddr: 0x148CE, symBinAddr: 0x41F23E, symSize: 0x0 }
  - { offset: 0x3705B, size: 0x8, addend: 0x0, symName: __ZN5realm4util6formatIJNS_10StringDataERKNSt3__112basic_stringIcNS3_11char_traitsIcEENS3_9allocatorIcEEEEEEES9_PKcDpOT_, symObjAddr: 0x128F8, symBinAddr: 0x2C32BC, symSize: 0x98 }
  - { offset: 0x37377, size: 0x8, addend: 0x0, symName: __ZNSt3__110unique_ptrI21RLMObservationTrackerNS_14default_deleteIS1_EEE5resetB8ne180100EPS1_, symObjAddr: 0x127CC, symBinAddr: 0x2C3234, symSize: 0x2C }
  - { offset: 0x40B21, size: 0x8, addend: 0x0, symName: __ZN5realm5_impl17assign_collectionIRU8__strongP11objc_object18RLMAccessorContextEEvRT0_RNS_12object_store10CollectionERKNS_11PathElementENS_14CollectionTypeEOT_NS_12CreatePolicyE, symObjAddr: 0xB298, symBinAddr: 0x2BCAC4, symSize: 0xD0 }
  - { offset: 0xD0FFC, size: 0x8, addend: 0x0, symName: __ZNSt3__1eqB8ne180100IN5realm4UUIDES2_EENS_9enable_ifIX16is_convertible_vIDTeqclsr3stdE7declvalIRKT_EEclsr3stdE7declvalIRKT0_EEEbEEbE4typeERKNS_8optionalIS4_EERKNSD_IS7_EE, symObjAddr: 0xE354, symBinAddr: 0x2BEEE4, symSize: 0x48 }
  - { offset: 0xD103E, size: 0x8, addend: 0x0, symName: __ZNSt3__1eqB8ne180100IN5realm4UUIDES2_EENS_9enable_ifIX16is_convertible_vIDTeqclsr3stdE7declvalIRKT_EEclsr3stdE7declvalIRKT0_EEEbEEbE4typeERKNS_8optionalIS4_EERKNSD_IS7_EE, symObjAddr: 0xE354, symBinAddr: 0x2BEEE4, symSize: 0x48 }
  - { offset: 0xD105C, size: 0x8, addend: 0x0, symName: __ZNSt3__1eqB8ne180100IN5realm4UUIDES2_EENS_9enable_ifIX16is_convertible_vIDTeqclsr3stdE7declvalIRKT_EEclsr3stdE7declvalIRKT0_EEEbEEbE4typeERKNS_8optionalIS4_EERKNSD_IS7_EE, symObjAddr: 0xE354, symBinAddr: 0x2BEEE4, symSize: 0x48 }
  - { offset: 0xD11E0, size: 0x8, addend: 0x0, symName: __ZNSt3__1eqB8ne180100IN5realm8ObjectIdES2_EENS_9enable_ifIX16is_convertible_vIDTeqclsr3stdE7declvalIRKT_EEclsr3stdE7declvalIRKT0_EEEbEEbE4typeERKNS_8optionalIS4_EERKNSD_IS7_EE, symObjAddr: 0xE304, symBinAddr: 0x2BEE94, symSize: 0x50 }
  - { offset: 0xD1222, size: 0x8, addend: 0x0, symName: __ZNSt3__1eqB8ne180100IN5realm8ObjectIdES2_EENS_9enable_ifIX16is_convertible_vIDTeqclsr3stdE7declvalIRKT_EEclsr3stdE7declvalIRKT0_EEEbEEbE4typeERKNS_8optionalIS4_EERKNSD_IS7_EE, symObjAddr: 0xE304, symBinAddr: 0x2BEE94, symSize: 0x50 }
  - { offset: 0xD1240, size: 0x8, addend: 0x0, symName: __ZNSt3__1eqB8ne180100IN5realm8ObjectIdES2_EENS_9enable_ifIX16is_convertible_vIDTeqclsr3stdE7declvalIRKT_EEclsr3stdE7declvalIRKT0_EEEbEEbE4typeERKNS_8optionalIS4_EERKNSD_IS7_EE, symObjAddr: 0xE304, symBinAddr: 0x2BEE94, symSize: 0x50 }
  - { offset: 0xD19A7, size: 0x8, addend: 0x0, symName: __ZNSt3__120__throw_length_errorB8ne180100EPKc, symObjAddr: 0xD3A0, symBinAddr: 0x2BEBCC, symSize: 0x50 }
  - { offset: 0xE2028, size: 0x8, addend: 0x0, symName: __ZN12_GLOBAL__N_18superGetEP13RLMObjectBaseP8NSString, symObjAddr: 0xF954, symBinAddr: 0x2C04E4, symSize: 0xC8 }
  - { offset: 0xE20BD, size: 0x8, addend: 0x0, symName: __ZN12_GLOBAL__N_18superSetEP13RLMObjectBaseP8NSStringP11objc_object, symObjAddr: 0xFA1C, symBinAddr: 0x2C05AC, symSize: 0xD8 }
  - { offset: 0xE215D, size: 0x8, addend: 0x0, symName: __ZN12_GLOBAL__N_119createAccessorClassEP10objc_classP15RLMObjectSchemaPKcPFP11objc_objectP11RLMPropertyS5_ESB_, symObjAddr: 0xF0, symBinAddr: 0x2B1E0C, symSize: 0x270 }
  - { offset: 0xE224C, size: 0x8, addend: 0x0, symName: __ZN12_GLOBAL__N_19addMethodEP10objc_classP11RLMPropertyPFP11objc_objectS3_PKcES9_, symObjAddr: 0x7D20, symBinAddr: 0x2B9894, symSize: 0x144 }
  - { offset: 0xE28D7, size: 0x8, addend: 0x0, symName: __ZN12_GLOBAL__N_113managedGetterEP11RLMPropertyPKc, symObjAddr: 0x360, symBinAddr: 0x2B207C, symSize: 0x52C }
  - { offset: 0xE2C7F, size: 0x8, addend: 0x0, symName: __ZN12_GLOBAL__N_110makeGetterIsxEEP11objc_objectm, symObjAddr: 0x7EC4, symBinAddr: 0x2B9A38, symSize: 0x50 }
  - { offset: 0xE2CC2, size: 0x8, addend: 0x0, symName: __ZN12_GLOBAL__N_110makeGetterIixEEP11objc_objectm, symObjAddr: 0x7F14, symBinAddr: 0x2B9A88, symSize: 0x50 }
  - { offset: 0xE2D05, size: 0x8, addend: 0x0, symName: __ZN12_GLOBAL__N_110makeGetterIlxEEP11objc_objectm, symObjAddr: 0x7F64, symBinAddr: 0x2B9AD8, symSize: 0x50 }
  - { offset: 0xE2D49, size: 0x8, addend: 0x0, symName: __ZN12_GLOBAL__N_110makeGetterIxxEEP11objc_objectm, symObjAddr: 0x7FB4, symBinAddr: 0x2B9B28, symSize: 0x50 }
  - { offset: 0xE2D67, size: 0x8, addend: 0x0, symName: __ZN12_GLOBAL__N_110makeGetterIcxEEP11objc_objectm, symObjAddr: 0x7E74, symBinAddr: 0x2B99E8, symSize: 0x50 }
  - { offset: 0xE31BA, size: 0x8, addend: 0x0, symName: __ZN12_GLOBAL__N_113managedSetterEP11RLMPropertyPKc, symObjAddr: 0x88C, symBinAddr: 0x2B25A8, symSize: 0x664 }
  - { offset: 0xE33EF, size: 0x8, addend: 0x0, symName: __ZN12_GLOBAL__N_110makeSetterIsxEEP11objc_objectP11RLMProperty, symObjAddr: 0x9344, symBinAddr: 0x2BABF4, symSize: 0x78 }
  - { offset: 0xE3442, size: 0x8, addend: 0x0, symName: __ZN12_GLOBAL__N_110makeSetterIixEEP11objc_objectP11RLMProperty, symObjAddr: 0x93BC, symBinAddr: 0x2BAC6C, symSize: 0x78 }
  - { offset: 0xE3495, size: 0x8, addend: 0x0, symName: __ZN12_GLOBAL__N_110makeSetterIlxEEP11objc_objectP11RLMProperty, symObjAddr: 0x9434, symBinAddr: 0x2BACE4, symSize: 0x78 }
  - { offset: 0xE34E8, size: 0x8, addend: 0x0, symName: __ZN12_GLOBAL__N_110makeSetterIxxEEP11objc_objectP11RLMProperty, symObjAddr: 0x94AC, symBinAddr: 0x2BAD5C, symSize: 0x78 }
  - { offset: 0xE353B, size: 0x8, addend: 0x0, symName: __ZN12_GLOBAL__N_110makeSetterIcxEEP11objc_objectP11RLMProperty, symObjAddr: 0x92CC, symBinAddr: 0x2BAB7C, symSize: 0x78 }
  - { offset: 0xE35CE, size: 0x8, addend: 0x0, symName: __ZN12_GLOBAL__N_115unmanagedGetterEP11RLMPropertyPKc, symObjAddr: 0x11E4, symBinAddr: 0x2B2F00, symSize: 0x204 }
  - { offset: 0xE3699, size: 0x8, addend: 0x0, symName: __ZN12_GLOBAL__N_129RLMCollectionClassForPropertyEP11RLMPropertyb, symObjAddr: 0xF760, symBinAddr: 0x2C02F0, symSize: 0x148 }
  - { offset: 0xE36F4, size: 0x8, addend: 0x0, symName: __ZN12_GLOBAL__N_115unmanagedSetterEP11RLMPropertyPKc, symObjAddr: 0x13E8, symBinAddr: 0x2B3104, symSize: 0xC8 }
  - { offset: 0xE373D, size: 0x8, addend: 0x0, symName: __ZN12_GLOBAL__N_111getPropertyEP13RLMObjectBaseP11RLMProperty, symObjAddr: 0xFE7C, symBinAddr: 0x2C0A0C, symSize: 0x6C }
  - { offset: 0xE3790, size: 0x8, addend: 0x0, symName: __ZN12_GLOBAL__N_13getIbEET_P13RLMObjectBasem, symObjAddr: 0x1F60, symBinAddr: 0x2B3C74, symSize: 0x78 }
  - { offset: 0xE38F6, size: 0x8, addend: 0x0, symName: __ZN12_GLOBAL__N_111kvoSetValueIbbEEvP13RLMObjectBasemT_, symObjAddr: 0x20DC, symBinAddr: 0x2B3DF0, symSize: 0xA8 }
  - { offset: 0xE3B31, size: 0x8, addend: 0x0, symName: __ZN12_GLOBAL__N_110willChangeER21RLMObservationTrackerP13RLMObjectBasem, symObjAddr: 0x9FBC, symBinAddr: 0x2BB86C, symSize: 0x150 }
  - { offset: 0xE3D06, size: 0x8, addend: 0x0, symName: __ZN12_GLOBAL__N_13getIdEET_P13RLMObjectBasem, symObjAddr: 0x218C, symBinAddr: 0x2B3EA0, symSize: 0x78 }
  - { offset: 0xE3E42, size: 0x8, addend: 0x0, symName: __ZN12_GLOBAL__N_111kvoSetValueIddEEvP13RLMObjectBasemT_, symObjAddr: 0x230C, symBinAddr: 0x2B4020, symSize: 0xA8 }
  - { offset: 0xE407A, size: 0x8, addend: 0x0, symName: __ZN12_GLOBAL__N_13getIfEET_P13RLMObjectBasem, symObjAddr: 0x23BC, symBinAddr: 0x2B40D0, symSize: 0x78 }
  - { offset: 0xE41B6, size: 0x8, addend: 0x0, symName: __ZN12_GLOBAL__N_111kvoSetValueIffEEvP13RLMObjectBasemT_, symObjAddr: 0x253C, symBinAddr: 0x2B4250, symSize: 0xA8 }
  - { offset: 0xE43EE, size: 0x8, addend: 0x0, symName: __ZN12_GLOBAL__N_13getIxEET_P13RLMObjectBasem, symObjAddr: 0x25EC, symBinAddr: 0x2B4300, symSize: 0x78 }
  - { offset: 0xE452A, size: 0x8, addend: 0x0, symName: __ZN12_GLOBAL__N_111kvoSetValueIxxEEvP13RLMObjectBasemT_, symObjAddr: 0x2764, symBinAddr: 0x2B4478, symSize: 0xA8 }
  - { offset: 0xE4761, size: 0x8, addend: 0x0, symName: __ZN12_GLOBAL__N_111kvoSetValueIU8__strongP8NSStringS3_EEvP13RLMObjectBasemT_, symObjAddr: 0x289C, symBinAddr: 0x2B45B0, symSize: 0x140 }
  - { offset: 0xE4A6F, size: 0x8, addend: 0x0, symName: __ZN12_GLOBAL__N_111kvoSetValueIU8__strongP6NSDateS3_EEvP13RLMObjectBasemT_, symObjAddr: 0x2A6C, symBinAddr: 0x2B4780, symSize: 0x140 }
  - { offset: 0xE4D7D, size: 0x8, addend: 0x0, symName: __ZN12_GLOBAL__N_111kvoSetValueIU8__strongP6NSDataS3_EEvP13RLMObjectBasemT_, symObjAddr: 0x2C3C, symBinAddr: 0x2B4950, symSize: 0x140 }
  - { offset: 0xE508B, size: 0x8, addend: 0x0, symName: __ZN12_GLOBAL__N_111kvoSetValueIU8__strongP6NSUUIDS3_EEvP13RLMObjectBasemT_, symObjAddr: 0x2E0C, symBinAddr: 0x2B4B20, symSize: 0x140 }
  - { offset: 0xE539E, size: 0x8, addend: 0x0, symName: __ZN12_GLOBAL__N_111kvoSetValueIU8__strongP13RLMDecimal128S3_EEvP13RLMObjectBasemT_, symObjAddr: 0x2FDC, symBinAddr: 0x2B4CF0, symSize: 0x140 }
  - { offset: 0xE56C7, size: 0x8, addend: 0x0, symName: __ZN12_GLOBAL__N_111kvoSetValueIU8__strongP11RLMObjectIdS3_EEvP13RLMObjectBasemT_, symObjAddr: 0x31AC, symBinAddr: 0x2B4EC0, symSize: 0x140 }
  - { offset: 0xE59DA, size: 0x8, addend: 0x0, symName: __ZN12_GLOBAL__N_18getBoxedIN5realm10StringDataEEEP11objc_objectP13RLMObjectBasem, symObjAddr: 0x32F4, symBinAddr: 0x2B5008, symSize: 0xD0 }
  - { offset: 0xE5B69, size: 0x8, addend: 0x0, symName: __ZN12_GLOBAL__N_18getBoxedIN5realm10BinaryDataEEEP11objc_objectP13RLMObjectBasem, symObjAddr: 0x33CC, symBinAddr: 0x2B50E0, symSize: 0xD0 }
  - { offset: 0xE5CF8, size: 0x8, addend: 0x0, symName: __ZN12_GLOBAL__N_18getBoxedIN5realm9TimestampEEEP11objc_objectP13RLMObjectBasem, symObjAddr: 0x34A4, symBinAddr: 0x2B51B8, symSize: 0xD4 }
  - { offset: 0xE5EDA, size: 0x8, addend: 0x0, symName: __ZN12_GLOBAL__N_18getBoxedINSt3__18optionalIN5realm4UUIDEEEEEP11objc_objectP13RLMObjectBasem, symObjAddr: 0x3580, symBinAddr: 0x2B5294, symSize: 0x124 }
  - { offset: 0xE60F1, size: 0x8, addend: 0x0, symName: __ZN12_GLOBAL__N_18getBoxedINSt3__18optionalIN5realm8ObjectIdEEEEEP11objc_objectP13RLMObjectBasem, symObjAddr: 0x36AC, symBinAddr: 0x2B53C0, symSize: 0xD8 }
  - { offset: 0xE62EA, size: 0x8, addend: 0x0, symName: __ZN12_GLOBAL__N_18getBoxedIN5realm10Decimal128EEEP11objc_objectP13RLMObjectBasem, symObjAddr: 0x378C, symBinAddr: 0x2B54A0, symSize: 0xE0 }
  - { offset: 0xE64C0, size: 0x8, addend: 0x0, symName: __ZN12_GLOBAL__N_113getCollectionEP13RLMObjectBasem, symObjAddr: 0x3874, symBinAddr: 0x2B5588, symSize: 0xE0 }
  - { offset: 0xE6551, size: 0x8, addend: 0x0, symName: __ZN12_GLOBAL__N_111kvoSetValueIU8__strongP13RLMObjectBaseS3_EEvS2_mT_, symObjAddr: 0x3A44, symBinAddr: 0x2B5758, symSize: 0x34C }
  - { offset: 0xE6B5A, size: 0x8, addend: 0x0, symName: __ZN12_GLOBAL__N_111kvoSetValueIU8__strongPU16objcproto6RLMInt8NSNumberS4_EEvP13RLMObjectBasemT_, symObjAddr: 0x3D90, symBinAddr: 0x2B5AA4, symSize: 0x13C }
  - { offset: 0xE6EA6, size: 0x8, addend: 0x0, symName: __ZN12_GLOBAL__N_18getBoxedIN5realm3ObjEEEP11objc_objectP13RLMObjectBasem, symObjAddr: 0x3EDC, symBinAddr: 0x2B5BF0, symSize: 0xE8 }
  - { offset: 0xE70ED, size: 0x8, addend: 0x0, symName: __ZN12_GLOBAL__N_111kvoSetValueIU8__strongPU18objcproto8RLMValue11objc_objectS3_EEvP13RLMObjectBasemT_, symObjAddr: 0x3FCC, symBinAddr: 0x2B5CE0, symSize: 0x10D0 }
  - { offset: 0xE9B28, size: 0x8, addend: 0x0, symName: __ZN12_GLOBAL__N_18getBoxedIN5realm5MixedEEEP11objc_objectP13RLMObjectBasem, symObjAddr: 0x50A4, symBinAddr: 0x2B6DB8, symSize: 0xF0 }
  - { offset: 0xEAFB8, size: 0x8, addend: 0x0, symName: __ZNK5realm3Obj3getIS0_EET_NS_6ColKeyE, symObjAddr: 0x0, symBinAddr: 0x2B1D58, symSize: 0x88 }
  - { offset: 0xEB17F, size: 0x8, addend: 0x0, symName: __Z37RLMManagedAccessorClassForObjectClassP10objc_classP15RLMObjectSchemaPKc, symObjAddr: 0xC4, symBinAddr: 0x2B1DE0, symSize: 0x2C }
  - { offset: 0xEB22D, size: 0x8, addend: 0x0, symName: __Z37RLMManagedAccessorClassForObjectClassP10objc_classP15RLMObjectSchemaPKc, symObjAddr: 0xC4, symBinAddr: 0x2B1DE0, symSize: 0x2C }
  - { offset: 0xEB380, size: 0x8, addend: 0x0, symName: __Z39RLMUnmanagedAccessorClassForObjectClassP10objc_classP15RLMObjectSchema, symObjAddr: 0xEF0, symBinAddr: 0x2B2C0C, symSize: 0x2F4 }
  - { offset: 0xEB3FE, size: 0x8, addend: 0x0, symName: __Z25RLMReplaceClassNameMethodP10objc_classP8NSString, symObjAddr: 0x14B0, symBinAddr: 0x2B31CC, symSize: 0x104 }
  - { offset: 0xEB4D8, size: 0x8, addend: 0x0, symName: ____Z25RLMReplaceClassNameMethodP10objc_classP8NSString_block_invoke, symObjAddr: 0x15B4, symBinAddr: 0x2B32D0, symSize: 0x8 }
  - { offset: 0xEB521, size: 0x8, addend: 0x0, symName: ___copy_helper_block_ea8_32s, symObjAddr: 0x15BC, symBinAddr: 0x2B32D8, symSize: 0x8 }
  - { offset: 0xEB548, size: 0x8, addend: 0x0, symName: ___destroy_helper_block_ea8_32s, symObjAddr: 0x15C4, symBinAddr: 0x2B32E0, symSize: 0x8 }
  - { offset: 0xEB567, size: 0x8, addend: 0x0, symName: __Z28RLMReplaceSharedSchemaMethodP10objc_classP15RLMObjectSchema, symObjAddr: 0x15CC, symBinAddr: 0x2B32E8, symSize: 0x140 }
  - { offset: 0xEB699, size: 0x8, addend: 0x0, symName: _RLMDynamicValidatedSet, symObjAddr: 0x1794, symBinAddr: 0x2B34B0, symSize: 0x228 }
  - { offset: 0xEB78B, size: 0x8, addend: 0x0, symName: __ZL14RLMCoerceToNilP11objc_object, symObjAddr: 0x1B68, symBinAddr: 0x2B3884, symSize: 0xBC }
  - { offset: 0xEB7F4, size: 0x8, addend: 0x0, symName: __Z13RLMDynamicSetP13RLMObjectBaseP11RLMPropertyP11objc_object, symObjAddr: 0x19BC, symBinAddr: 0x2B36D8, symSize: 0x1AC }
  - { offset: 0xECB45, size: 0x8, addend: 0x0, symName: __ZN5realm6Object18set_property_valueIU8__strongP11objc_object18RLMAccessorContextEEvRT0_NS_10StringDataET_NS_12CreatePolicyE, symObjAddr: 0xFDE0, symBinAddr: 0x2C0970, symSize: 0x9C }
  - { offset: 0xECBD9, size: 0x8, addend: 0x0, symName: __ZN18RLMAccessorContextD2Ev, symObjAddr: 0x5194, symBinAddr: 0x2B6EA8, symSize: 0x3C }
  - { offset: 0xECCD5, size: 0x8, addend: 0x0, symName: __ZN18RLMAccessorContextC2EP13RLMObjectBasePKN5realm8PropertyE, symObjAddr: 0x5268, symBinAddr: 0x2B6F78, symSize: 0xE0 }
  - { offset: 0xECD98, size: 0x8, addend: 0x0, symName: _RLMDynamicGet, symObjAddr: 0x1C2C, symBinAddr: 0x2B3940, symSize: 0x250 }
  - { offset: 0xED1D5, size: 0x8, addend: 0x0, symName: __ZNK5realm6Object23get_property_value_implIU8__strongP11objc_object18RLMAccessorContextEET_RT0_RKNS_8PropertyE, symObjAddr: 0x115EC, symBinAddr: 0x2C20D8, symSize: 0x714 }
  - { offset: 0xEE2F4, size: 0x8, addend: 0x0, symName: _RLMDynamicGetByName, symObjAddr: 0x1E7C, symBinAddr: 0x2B3B90, symSize: 0xDC }
  - { offset: 0xEE35A, size: 0x8, addend: 0x0, symName: _RLMGetSwiftPropertyBool, symObjAddr: 0x1F58, symBinAddr: 0x2B3C6C, symSize: 0x8 }
  - { offset: 0xEE405, size: 0x8, addend: 0x0, symName: _RLMGetSwiftPropertyBoolOptional, symObjAddr: 0x1FD8, symBinAddr: 0x2B3CEC, symSize: 0x9C }
  - { offset: 0xEE540, size: 0x8, addend: 0x0, symName: _RLMSetSwiftPropertyBool, symObjAddr: 0x2074, symBinAddr: 0x2B3D88, symSize: 0x68 }
  - { offset: 0xEE703, size: 0x8, addend: 0x0, symName: __ZL27RLMVerifyInWriteTransactionP13RLMObjectBase, symObjAddr: 0x39C8, symBinAddr: 0x2B56DC, symSize: 0x7C }
  - { offset: 0xEE753, size: 0x8, addend: 0x0, symName: _RLMGetSwiftPropertyDouble, symObjAddr: 0x2184, symBinAddr: 0x2B3E98, symSize: 0x8 }
  - { offset: 0xEE805, size: 0x8, addend: 0x0, symName: _RLMGetSwiftPropertyDoubleOptional, symObjAddr: 0x2204, symBinAddr: 0x2B3F18, symSize: 0xA0 }
  - { offset: 0xEE96C, size: 0x8, addend: 0x0, symName: _RLMSetSwiftPropertyDouble, symObjAddr: 0x22A4, symBinAddr: 0x2B3FB8, symSize: 0x68 }
  - { offset: 0xEE9E8, size: 0x8, addend: 0x0, symName: _RLMGetSwiftPropertyFloat, symObjAddr: 0x23B4, symBinAddr: 0x2B40C8, symSize: 0x8 }
  - { offset: 0xEEA9A, size: 0x8, addend: 0x0, symName: _RLMGetSwiftPropertyFloatOptional, symObjAddr: 0x2434, symBinAddr: 0x2B4148, symSize: 0xA0 }
  - { offset: 0xEEC01, size: 0x8, addend: 0x0, symName: _RLMSetSwiftPropertyFloat, symObjAddr: 0x24D4, symBinAddr: 0x2B41E8, symSize: 0x68 }
  - { offset: 0xEEC7D, size: 0x8, addend: 0x0, symName: _RLMGetSwiftPropertyInt64, symObjAddr: 0x25E4, symBinAddr: 0x2B42F8, symSize: 0x8 }
  - { offset: 0xEED2F, size: 0x8, addend: 0x0, symName: _RLMGetSwiftPropertyInt64Optional, symObjAddr: 0x2664, symBinAddr: 0x2B4378, symSize: 0x98 }
  - { offset: 0xEEE96, size: 0x8, addend: 0x0, symName: _RLMSetSwiftPropertyInt64, symObjAddr: 0x26FC, symBinAddr: 0x2B4410, symSize: 0x68 }
  - { offset: 0xEEF12, size: 0x8, addend: 0x0, symName: _RLMSetSwiftPropertyString, symObjAddr: 0x280C, symBinAddr: 0x2B4520, symSize: 0x90 }
  - { offset: 0xEEFFB, size: 0x8, addend: 0x0, symName: __ZN27RLMStatelessAccessorContext5unboxIN5realm10StringDataEEET_P11objc_object, symObjAddr: 0x5D6C, symBinAddr: 0x2B79E0, symSize: 0xE4 }
  - { offset: 0xEF077, size: 0x8, addend: 0x0, symName: _RLMSetSwiftPropertyDate, symObjAddr: 0x29DC, symBinAddr: 0x2B46F0, symSize: 0x90 }
  - { offset: 0xEF165, size: 0x8, addend: 0x0, symName: __ZN27RLMStatelessAccessorContext5unboxIN5realm9TimestampEEET_P11objc_object, symObjAddr: 0x5930, symBinAddr: 0x2B75A4, symSize: 0x1B0 }
  - { offset: 0xEF3BA, size: 0x8, addend: 0x0, symName: _RLMSetSwiftPropertyData, symObjAddr: 0x2BAC, symBinAddr: 0x2B48C0, symSize: 0x90 }
  - { offset: 0xEF4A8, size: 0x8, addend: 0x0, symName: __ZN27RLMStatelessAccessorContext5unboxIN5realm10BinaryDataEEET_P11objc_object, symObjAddr: 0x5C84, symBinAddr: 0x2B78F8, symSize: 0xE8 }
  - { offset: 0xEF524, size: 0x8, addend: 0x0, symName: _RLMSetSwiftPropertyUUID, symObjAddr: 0x2D7C, symBinAddr: 0x2B4A90, symSize: 0x90 }
  - { offset: 0xEF612, size: 0x8, addend: 0x0, symName: __ZN27RLMStatelessAccessorContext5unboxIN5realm4UUIDEEET_P11objc_object, symObjAddr: 0x5EF4, symBinAddr: 0x2B7B64, symSize: 0xAC }
  - { offset: 0xEF664, size: 0x8, addend: 0x0, symName: _RLMSetSwiftPropertyDecimal128, symObjAddr: 0x2F4C, symBinAddr: 0x2B4C60, symSize: 0x90 }
  - { offset: 0xEF787, size: 0x8, addend: 0x0, symName: _RLMSetSwiftPropertyObjectId, symObjAddr: 0x311C, symBinAddr: 0x2B4E30, symSize: 0x90 }
  - { offset: 0xEF875, size: 0x8, addend: 0x0, symName: __ZN27RLMStatelessAccessorContext5unboxIN5realm8ObjectIdEEET_P11objc_object, symObjAddr: 0x5E54, symBinAddr: 0x2B7AC4, symSize: 0xA0 }
  - { offset: 0xEF8D9, size: 0x8, addend: 0x0, symName: _RLMGetSwiftPropertyString, symObjAddr: 0x32EC, symBinAddr: 0x2B5000, symSize: 0x8 }
  - { offset: 0xEF922, size: 0x8, addend: 0x0, symName: __ZN27RLMStatelessAccessorContext3boxEN5realm10StringDataE, symObjAddr: 0x11D28, symBinAddr: 0x2C2814, symSize: 0x58 }
  - { offset: 0xEF963, size: 0x8, addend: 0x0, symName: _RLMGetSwiftPropertyData, symObjAddr: 0x33C4, symBinAddr: 0x2B50D8, symSize: 0x8 }
  - { offset: 0xEF9AC, size: 0x8, addend: 0x0, symName: __ZN27RLMStatelessAccessorContext3boxEN5realm10BinaryDataE, symObjAddr: 0x11D80, symBinAddr: 0x2C286C, symSize: 0x48 }
  - { offset: 0xEF9ED, size: 0x8, addend: 0x0, symName: _RLMGetSwiftPropertyDate, symObjAddr: 0x349C, symBinAddr: 0x2B51B0, symSize: 0x8 }
  - { offset: 0xEFA51, size: 0x8, addend: 0x0, symName: __ZN27RLMStatelessAccessorContext3boxEN5realm9TimestampE, symObjAddr: 0x11DC8, symBinAddr: 0x2C28B4, symSize: 0x70 }
  - { offset: 0xEFAB1, size: 0x8, addend: 0x0, symName: _RLMGetSwiftPropertyUUID, symObjAddr: 0x3578, symBinAddr: 0x2B528C, symSize: 0x8 }
  - { offset: 0xEFB30, size: 0x8, addend: 0x0, symName: __ZN27RLMStatelessAccessorContext3boxENSt3__18optionalIN5realm4UUIDEEE, symObjAddr: 0x11EE0, symBinAddr: 0x2C29CC, symSize: 0x54 }
  - { offset: 0xEFBA7, size: 0x8, addend: 0x0, symName: _RLMGetSwiftPropertyObjectId, symObjAddr: 0x36A4, symBinAddr: 0x2B53B8, symSize: 0x8 }
  - { offset: 0xEFC26, size: 0x8, addend: 0x0, symName: __ZN27RLMStatelessAccessorContext3boxENSt3__18optionalIN5realm8ObjectIdEEE, symObjAddr: 0x11E38, symBinAddr: 0x2C2924, symSize: 0x40 }
  - { offset: 0xEFC84, size: 0x8, addend: 0x0, symName: _RLMGetSwiftPropertyDecimal128, symObjAddr: 0x3784, symBinAddr: 0x2B5498, symSize: 0x8 }
  - { offset: 0xEFCCD, size: 0x8, addend: 0x0, symName: __ZN27RLMStatelessAccessorContext3boxEN5realm10Decimal128E, symObjAddr: 0x11E78, symBinAddr: 0x2C2964, symSize: 0x68 }
  - { offset: 0xEFD09, size: 0x8, addend: 0x0, symName: _RLMGetSwiftPropertyArray, symObjAddr: 0x386C, symBinAddr: 0x2B5580, symSize: 0x8 }
  - { offset: 0xEFD52, size: 0x8, addend: 0x0, symName: _RLMGetSwiftPropertySet, symObjAddr: 0x3954, symBinAddr: 0x2B5668, symSize: 0x8 }
  - { offset: 0xEFD9B, size: 0x8, addend: 0x0, symName: _RLMGetSwiftPropertyMap, symObjAddr: 0x395C, symBinAddr: 0x2B5670, symSize: 0x8 }
  - { offset: 0xEFDE4, size: 0x8, addend: 0x0, symName: _RLMSetSwiftPropertyNil, symObjAddr: 0x3964, symBinAddr: 0x2B5678, symSize: 0x64 }
  - { offset: 0xF004D, size: 0x8, addend: 0x0, symName: __ZN18RLMAccessorContext12createObjectEP11objc_objectN5realm12CreatePolicyEbNS2_6ObjKeyE, symObjAddr: 0x6294, symBinAddr: 0x2B7EF0, symSize: 0x13C0 }
  - { offset: 0xF2B95, size: 0x8, addend: 0x0, symName: __ZN27RLMStatelessAccessorContext5unboxIxEET_P11objc_object, symObjAddr: 0x5C34, symBinAddr: 0x2B78A8, symSize: 0x50 }
  - { offset: 0xF2BD1, size: 0x8, addend: 0x0, symName: _RLMSetSwiftPropertyObject, symObjAddr: 0x3ECC, symBinAddr: 0x2B5BE0, symSize: 0x8 }
  - { offset: 0xF2C25, size: 0x8, addend: 0x0, symName: _RLMGetSwiftPropertyObject, symObjAddr: 0x3ED4, symBinAddr: 0x2B5BE8, symSize: 0x8 }
  - { offset: 0xF2C6E, size: 0x8, addend: 0x0, symName: __ZN18RLMAccessorContext3boxEON5realm3ObjE, symObjAddr: 0x580C, symBinAddr: 0x2B7480, symSize: 0x64 }
  - { offset: 0xF2CA8, size: 0x8, addend: 0x0, symName: _RLMSetSwiftPropertyAny, symObjAddr: 0x3FC4, symBinAddr: 0x2B5CD8, symSize: 0x8 }
  - { offset: 0xF3FAB, size: 0x8, addend: 0x0, symName: __ZN18RLMAccessorContext11will_changeERKN5realm3ObjERKNS0_8PropertyE, symObjAddr: 0x76B4, symBinAddr: 0x2B92B0, symSize: 0x160 }
  - { offset: 0xF41F3, size: 0x8, addend: 0x0, symName: __ZN27RLMStatelessAccessorContext7is_nullEP11objc_object, symObjAddr: 0xA10C, symBinAddr: 0x2BB9BC, symSize: 0x50 }
  - { offset: 0xF4238, size: 0x8, addend: 0x0, symName: __ZN18RLMAccessorContextC2ERS_RKN5realm3ObjERKNS1_8PropertyE, symObjAddr: 0x51D0, symBinAddr: 0x2B6EE4, symSize: 0x94 }
  - { offset: 0xF435A, size: 0x8, addend: 0x0, symName: __ZN5realm12object_store10Dictionary6assignIRU8__strongPU18objcproto8RLMValue11objc_object18RLMAccessorContextEEvRT0_OT_NS_12CreatePolicyE, symObjAddr: 0x12450, symBinAddr: 0x2C2F34, symSize: 0x248 }
  - { offset: 0xF4493, size: 0x8, addend: 0x0, symName: __ZN5realm4List6assignIRU8__strongPU18objcproto8RLMValue11objc_object18RLMAccessorContextEEvRT0_OT_NS_12CreatePolicyE, symObjAddr: 0x121A8, symBinAddr: 0x2C2C8C, symSize: 0x2A8 }
  - { offset: 0xF4696, size: 0x8, addend: 0x0, symName: __ZN27RLMStatelessAccessorContext11is_same_setERKN5realm12object_store3SetEP11objc_object, symObjAddr: 0x7C1C, symBinAddr: 0x2B9808, symSize: 0x44 }
  - { offset: 0xF46CE, size: 0x8, addend: 0x0, symName: __ZN5realm12object_store3Set6insertIRU8__strongP11objc_object18RLMAccessorContextEENSt3__14pairImbEERT0_OT_NS_12CreatePolicyE, symObjAddr: 0xE39C, symBinAddr: 0x2BEF2C, symSize: 0x4EC }
  - { offset: 0xF5102, size: 0x8, addend: 0x0, symName: __ZN27RLMStatelessAccessorContext5unboxIbEET_P11objc_object, symObjAddr: 0x5AE0, symBinAddr: 0x2B7754, symSize: 0x50 }
  - { offset: 0xF513E, size: 0x8, addend: 0x0, symName: __ZN27RLMStatelessAccessorContext5unboxIfEET_P11objc_object, symObjAddr: 0x5BDC, symBinAddr: 0x2B7850, symSize: 0x58 }
  - { offset: 0xF517A, size: 0x8, addend: 0x0, symName: __ZN27RLMStatelessAccessorContext5unboxIdEET_P11objc_object, symObjAddr: 0x5B84, symBinAddr: 0x2B77F8, symSize: 0x58 }
  - { offset: 0xF51B6, size: 0x8, addend: 0x0, symName: __ZN27RLMStatelessAccessorContext5unboxINSt3__18optionalIxEEEET_P11objc_object, symObjAddr: 0x6124, symBinAddr: 0x2B7D80, symSize: 0x7C }
  - { offset: 0xF5222, size: 0x8, addend: 0x0, symName: __ZN27RLMStatelessAccessorContext5unboxINSt3__18optionalIbEEEET_P11objc_object, symObjAddr: 0x5FB4, symBinAddr: 0x2B7C10, symSize: 0x70 }
  - { offset: 0xF528E, size: 0x8, addend: 0x0, symName: __ZN27RLMStatelessAccessorContext5unboxINSt3__18optionalIN5realm8ObjectIdEEEEET_P11objc_object, symObjAddr: 0x61A0, symBinAddr: 0x2B7DFC, symSize: 0x8C }
  - { offset: 0xF52FA, size: 0x8, addend: 0x0, symName: __ZN27RLMStatelessAccessorContext5unboxINSt3__18optionalIN5realm4UUIDEEEEET_P11objc_object, symObjAddr: 0x622C, symBinAddr: 0x2B7E88, symSize: 0x68 }
  - { offset: 0xF5575, size: 0x8, addend: 0x0, symName: __ZN27RLMStatelessAccessorContext5unboxINSt3__18optionalIfEEEET_P11objc_object, symObjAddr: 0x60A4, symBinAddr: 0x2B7D00, symSize: 0x80 }
  - { offset: 0xF56AF, size: 0x8, addend: 0x0, symName: __ZN27RLMStatelessAccessorContext5unboxINSt3__18optionalIdEEEET_P11objc_object, symObjAddr: 0x6024, symBinAddr: 0x2B7C80, symSize: 0x80 }
  - { offset: 0xF57E9, size: 0x8, addend: 0x0, symName: __ZNSt3__110shared_ptrIN5realm5RealmEED2B8ne180100Ev, symObjAddr: 0x915C, symBinAddr: 0x2BAA0C, symSize: 0x50 }
  - { offset: 0xF5873, size: 0x8, addend: 0x0, symName: _RLMGetSwiftPropertyAny, symObjAddr: 0x509C, symBinAddr: 0x2B6DB0, symSize: 0x8 }
  - { offset: 0xF58D4, size: 0x8, addend: 0x0, symName: __ZN18RLMAccessorContext3boxEN5realm5MixedE, symObjAddr: 0x53E4, symBinAddr: 0x2B7058, symSize: 0xB0 }
  - { offset: 0xF595F, size: 0x8, addend: 0x0, symName: __ZNSt3__110unique_ptrI21RLMObservationTrackerNS_14default_deleteIS1_EEE5resetB8ne180100EPS1_, symObjAddr: 0x127CC, symBinAddr: 0x2C3234, symSize: 0x2C }
  - { offset: 0xF5A6F, size: 0x8, addend: 0x0, symName: __ZN18RLMAccessorContext3boxEON5realm4ListE, symObjAddr: 0x5494, symBinAddr: 0x2B7108, symSize: 0x114 }
  - { offset: 0xF5BCF, size: 0x8, addend: 0x0, symName: __ZN18RLMAccessorContext3boxEON5realm12object_store3SetE, symObjAddr: 0x55A8, symBinAddr: 0x2B721C, symSize: 0xD4 }
  - { offset: 0xF5D99, size: 0x8, addend: 0x0, symName: __ZN18RLMAccessorContext3boxEON5realm12object_store10DictionaryE, symObjAddr: 0x567C, symBinAddr: 0x2B72F0, symSize: 0x124 }
  - { offset: 0xF5F46, size: 0x8, addend: 0x0, symName: __ZN18RLMAccessorContext3boxEON5realm6ObjectE, symObjAddr: 0x57A0, symBinAddr: 0x2B7414, symSize: 0x6C }
  - { offset: 0xF5FDE, size: 0x8, addend: 0x0, symName: __ZN18RLMAccessorContext3boxEON5realm3ObjE, symObjAddr: 0x580C, symBinAddr: 0x2B7480, symSize: 0x64 }
  - { offset: 0xF5FE9, size: 0x8, addend: 0x0, symName: __ZN18RLMAccessorContext3boxEON5realm7ResultsE, symObjAddr: 0x5870, symBinAddr: 0x2B74E4, symSize: 0xC0 }
  - { offset: 0xF618C, size: 0x8, addend: 0x0, symName: __ZN5realm9TimestampC2Exi, symObjAddr: 0x12698, symBinAddr: 0x2C317C, symSize: 0xB8 }
  - { offset: 0xF61F7, size: 0x8, addend: 0x0, symName: __ZL7bridgedI8NSNumberEPT_P11objc_object, symObjAddr: 0x5B30, symBinAddr: 0x2B77A4, symSize: 0x54 }
  - { offset: 0xF7BCA, size: 0x8, addend: 0x0, symName: __ZNK5realm5Group14check_attachedEv, symObjAddr: 0x12138, symBinAddr: 0x2C2C24, symSize: 0x68 }
  - { offset: 0xF7C61, size: 0x8, addend: 0x0, symName: __ZN18RLMAccessorContext18value_for_propertyEP11objc_objectRKN5realm8PropertyEm, symObjAddr: 0x7824, symBinAddr: 0x2B9410, symSize: 0x30C }
  - { offset: 0xF7D2F, size: 0x8, addend: 0x0, symName: __ZN18RLMAccessorContext26default_value_for_propertyERKN5realm12ObjectSchemaERKNS0_8PropertyE, symObjAddr: 0x7B30, symBinAddr: 0x2B971C, symSize: 0xA8 }
  - { offset: 0xF7E22, size: 0x8, addend: 0x0, symName: __ZN5realm6Object23set_property_value_implIU8__strongP11objc_object18RLMAccessorContextEEvRT0_RKNS_8PropertyET_NS_12CreatePolicyEb, symObjAddr: 0xFEE8, symBinAddr: 0x2C0A78, symSize: 0x708 }
  - { offset: 0xF8F24, size: 0x8, addend: 0x0, symName: __ZNSt3__112basic_stringIcNS_11char_traitsIcEENS_9allocatorIcEEEC2B8ne180100ILi0EEEPKc, symObjAddr: 0x12990, symBinAddr: 0x2C3354, symSize: 0xB0 }
  - { offset: 0xF9301, size: 0x8, addend: 0x0, symName: __ZNSt3__112basic_stringIcNS_11char_traitsIcEENS_9allocatorIcEEE25__init_copy_ctor_externalEPKcm, symObjAddr: 0x12A40, symBinAddr: 0x2C3404, symSize: 0x8C }
  - { offset: 0xF9313, size: 0x8, addend: 0x0, symName: __ZN27RLMStatelessAccessorContext5printEP11objc_object, symObjAddr: 0x12848, symBinAddr: 0x2C3260, symSize: 0x5C }
  - { offset: 0xF936B, size: 0x8, addend: 0x0, symName: __ZNSt3__112basic_stringIcNS_11char_traitsIcEENS_9allocatorIcEEE25__init_copy_ctor_externalEPKcm, symObjAddr: 0x12A40, symBinAddr: 0x2C3404, symSize: 0x8C }
  - { offset: 0xF9714, size: 0x8, addend: 0x0, symName: __ZN5realm19ObjectAlreadyExistsC2INSt3__112basic_stringIcNS2_11char_traitsIcEENS2_9allocatorIcEEEES8_EERKT0_T_, symObjAddr: 0x12ACC, symBinAddr: 0x2C3490, symSize: 0x11C }
  - { offset: 0xF971F, size: 0x8, addend: 0x0, symName: __ZN5realm19ObjectAlreadyExistsC2INSt3__112basic_stringIcNS2_11char_traitsIcEENS2_9allocatorIcEEEES8_EERKT0_T_, symObjAddr: 0x12ACC, symBinAddr: 0x2C3490, symSize: 0x11C }
  - { offset: 0xF9D26, size: 0x8, addend: 0x0, symName: __ZN27RLMStatelessAccessorContext12is_same_listERKN5realm4ListEP11objc_object, symObjAddr: 0x7BD8, symBinAddr: 0x2B97C4, symSize: 0x44 }
  - { offset: 0xF9D5E, size: 0x8, addend: 0x0, symName: __ZN27RLMStatelessAccessorContext18is_same_dictionaryERKN5realm12object_store10DictionaryEP11objc_object, symObjAddr: 0x7C60, symBinAddr: 0x2B984C, symSize: 0x44 }
  - { offset: 0xF9D96, size: 0x8, addend: 0x0, symName: '+[RLMManagedPropertyAccessor promote:on:]', symObjAddr: 0x7CA4, symBinAddr: 0x2B9890, symSize: 0x4 }
  - { offset: 0xF9E7E, size: 0x8, addend: 0x0, symName: ____ZN12_GLOBAL__N_113managedGetterEP11RLMPropertyPKc_block_invoke, symObjAddr: 0x7E64, symBinAddr: 0x2B99D8, symSize: 0x10 }
  - { offset: 0xFAA56, size: 0x8, addend: 0x0, symName: ____ZN12_GLOBAL__N_113managedGetterEP11RLMPropertyPKc_block_invoke_2, symObjAddr: 0x8004, symBinAddr: 0x2B9B78, symSize: 0x3F8 }
  - { offset: 0xFBB39, size: 0x8, addend: 0x0, symName: __ZNSt3__16vectorINS_10unique_ptrIN5realm14BaseDescriptorENS_14default_deleteIS3_EEEENS_9allocatorIS6_EEE16__destroy_vectorclB8ne180100Ev, symObjAddr: 0x8FF0, symBinAddr: 0x2BA990, symSize: 0x7C }
  - { offset: 0xFC155, size: 0x8, addend: 0x0, symName: __ZNSt3__110shared_ptrIN5realm5RealmEED2B8ne180100Ev, symObjAddr: 0x915C, symBinAddr: 0x2BAA0C, symSize: 0x50 }
  - { offset: 0xFC15F, size: 0x8, addend: 0x0, symName: ____ZN12_GLOBAL__N_118makeOptionalGetterIxEEP11objc_objectm_block_invoke, symObjAddr: 0x83FC, symBinAddr: 0x2B9F70, symSize: 0xD4 }
  - { offset: 0xFC348, size: 0x8, addend: 0x0, symName: __ZN27RLMStatelessAccessorContext3boxENSt3__18optionalIxEE, symObjAddr: 0x84D0, symBinAddr: 0x2BA044, symSize: 0x48 }
  - { offset: 0xFC3AC, size: 0x8, addend: 0x0, symName: ____ZN12_GLOBAL__N_115makeBoxedGetterIxEEP11objc_objectm_block_invoke, symObjAddr: 0x8518, symBinAddr: 0x2BA08C, symSize: 0xDC }
  - { offset: 0xFC565, size: 0x8, addend: 0x0, symName: ____ZN12_GLOBAL__N_110makeGetterIcxEEP11objc_objectm_block_invoke, symObjAddr: 0x85F4, symBinAddr: 0x2BA168, symSize: 0x24 }
  - { offset: 0xFC5C1, size: 0x8, addend: 0x0, symName: ____ZN12_GLOBAL__N_110makeGetterIsxEEP11objc_objectm_block_invoke, symObjAddr: 0x8618, symBinAddr: 0x2BA18C, symSize: 0x24 }
  - { offset: 0xFC61D, size: 0x8, addend: 0x0, symName: ____ZN12_GLOBAL__N_110makeGetterIixEEP11objc_objectm_block_invoke, symObjAddr: 0x863C, symBinAddr: 0x2BA1B0, symSize: 0x20 }
  - { offset: 0xFC67A, size: 0x8, addend: 0x0, symName: ____ZN12_GLOBAL__N_110makeGetterIlxEEP11objc_objectm_block_invoke, symObjAddr: 0x865C, symBinAddr: 0x2BA1D0, symSize: 0x10 }
  - { offset: 0xFC6D8, size: 0x8, addend: 0x0, symName: ____ZN12_GLOBAL__N_110makeGetterIxxEEP11objc_objectm_block_invoke, symObjAddr: 0x866C, symBinAddr: 0x2BA1E0, symSize: 0x10 }
  - { offset: 0xFC735, size: 0x8, addend: 0x0, symName: ____ZN12_GLOBAL__N_118makeOptionalGetterIfEEP11objc_objectm_block_invoke, symObjAddr: 0x867C, symBinAddr: 0x2BA1F0, symSize: 0xD4 }
  - { offset: 0xFC91E, size: 0x8, addend: 0x0, symName: __ZN27RLMStatelessAccessorContext3boxENSt3__18optionalIfEE, symObjAddr: 0x8750, symBinAddr: 0x2BA2C4, symSize: 0x48 }
  - { offset: 0xFC982, size: 0x8, addend: 0x0, symName: ____ZN12_GLOBAL__N_115makeBoxedGetterIfEEP11objc_objectm_block_invoke, symObjAddr: 0x8798, symBinAddr: 0x2BA30C, symSize: 0xDC }
  - { offset: 0xFCB3C, size: 0x8, addend: 0x0, symName: ____ZN12_GLOBAL__N_110makeGetterIffEEP11objc_objectm_block_invoke, symObjAddr: 0x8874, symBinAddr: 0x2BA3E8, symSize: 0x10 }
  - { offset: 0xFCB99, size: 0x8, addend: 0x0, symName: ____ZN12_GLOBAL__N_118makeOptionalGetterIdEEP11objc_objectm_block_invoke, symObjAddr: 0x8884, symBinAddr: 0x2BA3F8, symSize: 0xD4 }
  - { offset: 0xFCD82, size: 0x8, addend: 0x0, symName: __ZN27RLMStatelessAccessorContext3boxENSt3__18optionalIdEE, symObjAddr: 0x8958, symBinAddr: 0x2BA4CC, symSize: 0x48 }
  - { offset: 0xFCDE6, size: 0x8, addend: 0x0, symName: ____ZN12_GLOBAL__N_115makeBoxedGetterIdEEP11objc_objectm_block_invoke, symObjAddr: 0x89A0, symBinAddr: 0x2BA514, symSize: 0xDC }
  - { offset: 0xFCFA0, size: 0x8, addend: 0x0, symName: ____ZN12_GLOBAL__N_110makeGetterIddEEP11objc_objectm_block_invoke, symObjAddr: 0x8A7C, symBinAddr: 0x2BA5F0, symSize: 0x10 }
  - { offset: 0xFCFFD, size: 0x8, addend: 0x0, symName: ____ZN12_GLOBAL__N_118makeOptionalGetterIbEEP11objc_objectm_block_invoke, symObjAddr: 0x8A8C, symBinAddr: 0x2BA600, symSize: 0xDC }
  - { offset: 0xFD1E6, size: 0x8, addend: 0x0, symName: __ZN27RLMStatelessAccessorContext3boxENSt3__18optionalIbEE, symObjAddr: 0x8B68, symBinAddr: 0x2BA6DC, symSize: 0x50 }
  - { offset: 0xFD24A, size: 0x8, addend: 0x0, symName: ____ZN12_GLOBAL__N_115makeBoxedGetterIbEEP11objc_objectm_block_invoke, symObjAddr: 0x8BB8, symBinAddr: 0x2BA72C, symSize: 0xDC }
  - { offset: 0xFD403, size: 0x8, addend: 0x0, symName: ____ZN12_GLOBAL__N_110makeGetterIbbEEP11objc_objectm_block_invoke, symObjAddr: 0x8C94, symBinAddr: 0x2BA808, symSize: 0x10 }
  - { offset: 0xFD461, size: 0x8, addend: 0x0, symName: ____ZN12_GLOBAL__N_115makeBoxedGetterIN5realm10StringDataEEEP11objc_objectm_block_invoke, symObjAddr: 0x8CA4, symBinAddr: 0x2BA818, symSize: 0x10 }
  - { offset: 0xFD4BF, size: 0x8, addend: 0x0, symName: ____ZN12_GLOBAL__N_115makeBoxedGetterIN5realm9TimestampEEEP11objc_objectm_block_invoke, symObjAddr: 0x8CB4, symBinAddr: 0x2BA828, symSize: 0x10 }
  - { offset: 0xFD51D, size: 0x8, addend: 0x0, symName: ____ZN12_GLOBAL__N_115makeBoxedGetterIN5realm10BinaryDataEEEP11objc_objectm_block_invoke, symObjAddr: 0x8CC4, symBinAddr: 0x2BA838, symSize: 0x10 }
  - { offset: 0xFD57B, size: 0x8, addend: 0x0, symName: ____ZN12_GLOBAL__N_115makeBoxedGetterIN5realm3ObjEEEP11objc_objectm_block_invoke, symObjAddr: 0x8CD4, symBinAddr: 0x2BA848, symSize: 0x10 }
  - { offset: 0xFD5D9, size: 0x8, addend: 0x0, symName: ____ZN12_GLOBAL__N_115makeBoxedGetterIN5realm10Decimal128EEEP11objc_objectm_block_invoke, symObjAddr: 0x8CE4, symBinAddr: 0x2BA858, symSize: 0x10 }
  - { offset: 0xFD637, size: 0x8, addend: 0x0, symName: ____ZN12_GLOBAL__N_118makeOptionalGetterIN5realm8ObjectIdEEEP11objc_objectm_block_invoke, symObjAddr: 0x8CF4, symBinAddr: 0x2BA868, symSize: 0x10 }
  - { offset: 0xFD694, size: 0x8, addend: 0x0, symName: ____ZN12_GLOBAL__N_115makeBoxedGetterIN5realm8ObjectIdEEEP11objc_objectm_block_invoke, symObjAddr: 0x8D04, symBinAddr: 0x2BA878, symSize: 0xC8 }
  - { offset: 0xFD831, size: 0x8, addend: 0x0, symName: __ZN27RLMStatelessAccessorContext3boxEN5realm8ObjectIdE, symObjAddr: 0x8DCC, symBinAddr: 0x2BA940, symSize: 0x40 }
  - { offset: 0xFD880, size: 0x8, addend: 0x0, symName: ____ZN12_GLOBAL__N_115makeBoxedGetterIN5realm5MixedEEEP11objc_objectm_block_invoke, symObjAddr: 0x8E0C, symBinAddr: 0x2BA980, symSize: 0x10 }
  - { offset: 0xFDF30, size: 0x8, addend: 0x0, symName: ____ZN12_GLOBAL__N_118makeOptionalGetterIN5realm4UUIDEEEP11objc_objectm_block_invoke, symObjAddr: 0x91AC, symBinAddr: 0x2BAA5C, symSize: 0x10 }
  - { offset: 0xFDFA1, size: 0x8, addend: 0x0, symName: ____ZN12_GLOBAL__N_115makeBoxedGetterIN5realm4UUIDEEEP11objc_objectm_block_invoke, symObjAddr: 0x91BC, symBinAddr: 0x2BAA6C, symSize: 0xD8 }
  - { offset: 0xFE146, size: 0x8, addend: 0x0, symName: __ZN27RLMStatelessAccessorContext3boxEN5realm4UUIDE, symObjAddr: 0x9294, symBinAddr: 0x2BAB44, symSize: 0x38 }
  - { offset: 0xFE161, size: 0x8, addend: 0x0, symName: ____ZN12_GLOBAL__N_110makeSetterIU8__strongPU28objcproto17NSFastEnumeration11objc_objectS3_EEP11objc_objectP11RLMProperty_block_invoke, symObjAddr: 0x9524, symBinAddr: 0x2BADD4, symSize: 0x68 }
  - { offset: 0xFE72E, size: 0x8, addend: 0x0, symName: ____ZN12_GLOBAL__N_110makeSetterIU8__strongPU28objcproto17NSFastEnumeration11objc_objectS3_EEP11objc_objectP11RLMProperty_block_invoke_2, symObjAddr: 0x958C, symBinAddr: 0x2BAE3C, symSize: 0xA30 }
  - { offset: 0xFFA1E, size: 0x8, addend: 0x0, symName: __ZN5realm4List3setIRU8__strongP11objc_object18RLMAccessorContextEEvRT0_mOT_NS_12CreatePolicyE, symObjAddr: 0xA15C, symBinAddr: 0x2BBA0C, symSize: 0x880 }
  - { offset: 0x101243, size: 0x8, addend: 0x0, symName: __ZN5realm4List6insertIU8__strongP11objc_object18RLMAccessorContextEEvRT0_mOT_NS_12CreatePolicyE, symObjAddr: 0xA9DC, symBinAddr: 0x2BC28C, symSize: 0x274 }
  - { offset: 0x101985, size: 0x8, addend: 0x0, symName: __ZN5realm12object_store10Dictionary6insertIRU8__strongP11objc_object18RLMAccessorContextEEvRT0_NS_10StringDataEOT_NS_12CreatePolicyE, symObjAddr: 0xB8A8, symBinAddr: 0x2BD0D4, symSize: 0x2B4 }
  - { offset: 0x102923, size: 0x8, addend: 0x0, symName: __ZNK5realm12object_store10Collection17validate_embeddedIRU8__strongP11objc_object18RLMAccessorContextEEvRT0_OT_NS_12CreatePolicyE, symObjAddr: 0xAC50, symBinAddr: 0x2BC500, symSize: 0x148 }
  - { offset: 0x102BF9, size: 0x8, addend: 0x0, symName: __ZNK5realm17ObjCollectionBaseINS_7LstBaseEE17update_unresolvedENS_12UpdateStatusE, symObjAddr: 0xD414, symBinAddr: 0x2BEC1C, symSize: 0x50 }
  - { offset: 0x102CF5, size: 0x8, addend: 0x0, symName: __ZNK5realm12ArrayKeyBaseILi0EE3getEm, symObjAddr: 0xDF38, symBinAddr: 0x2BEC6C, symSize: 0x30 }
  - { offset: 0x102D45, size: 0x8, addend: 0x0, symName: __ZZN5realm4List3setIRU8__strongP11objc_object18RLMAccessorContextEEvRT0_mOT_NS_12CreatePolicyEENKUlS9_E_clIPNS_5MixedEEEDaS9_, symObjAddr: 0xE10C, symBinAddr: 0x2BEC9C, symSize: 0x1F8 }
  - { offset: 0x1034B6, size: 0x8, addend: 0x0, symName: __ZZN5realm4List6insertIU8__strongP11objc_object18RLMAccessorContextEEvRT0_mOT_NS_12CreatePolicyEENKUlS8_E_clIPxEEDaS8_, symObjAddr: 0xAE5C, symBinAddr: 0x2BC688, symSize: 0x3C }
  - { offset: 0x103549, size: 0x8, addend: 0x0, symName: __ZZN5realm4List6insertIU8__strongP11objc_object18RLMAccessorContextEEvRT0_mOT_NS_12CreatePolicyEENKUlS8_E_clIPNS_4UUIDEEEDaS8_, symObjAddr: 0xB108, symBinAddr: 0x2BC934, symSize: 0x40 }
  - { offset: 0x1035D9, size: 0x8, addend: 0x0, symName: __ZZN5realm4List6insertIU8__strongP11objc_object18RLMAccessorContextEEvRT0_mOT_NS_12CreatePolicyEENKUlS8_E_clIPNS_8ObjectIdEEEDaS8_, symObjAddr: 0xB03C, symBinAddr: 0x2BC868, symSize: 0x40 }
  - { offset: 0x10366C, size: 0x8, addend: 0x0, symName: __ZZN5realm4List6insertIU8__strongP11objc_object18RLMAccessorContextEEvRT0_mOT_NS_12CreatePolicyEENKUlS8_E_clIPbEEDaS8_, symObjAddr: 0xAED4, symBinAddr: 0x2BC700, symSize: 0x3C }
  - { offset: 0x1036FC, size: 0x8, addend: 0x0, symName: __ZZN5realm4List6insertIU8__strongP11objc_object18RLMAccessorContextEEvRT0_mOT_NS_12CreatePolicyEENKUlS8_E_clIPfEEDaS8_, symObjAddr: 0xAF4C, symBinAddr: 0x2BC778, symSize: 0x38 }
  - { offset: 0x10378D, size: 0x8, addend: 0x0, symName: __ZZN5realm4List6insertIU8__strongP11objc_object18RLMAccessorContextEEvRT0_mOT_NS_12CreatePolicyEENKUlS8_E_clIPNS_5MixedEEEDaS8_, symObjAddr: 0xB148, symBinAddr: 0x2BC974, symSize: 0x150 }
  - { offset: 0x103C7B, size: 0x8, addend: 0x0, symName: __ZZN5realm4List6insertIU8__strongP11objc_object18RLMAccessorContextEEvRT0_mOT_NS_12CreatePolicyEENKUlS8_E_clIPdEEDaS8_, symObjAddr: 0xAFC4, symBinAddr: 0x2BC7F0, symSize: 0x38 }
  - { offset: 0x103D0C, size: 0x8, addend: 0x0, symName: __ZZN5realm4List6insertIU8__strongP11objc_object18RLMAccessorContextEEvRT0_mOT_NS_12CreatePolicyEENKUlS8_E_clIPNSt3__18optionalINS_4UUIDEEEEEDaS8_, symObjAddr: 0xB07C, symBinAddr: 0x2BC8A8, symSize: 0x8C }
  - { offset: 0x103D9D, size: 0x8, addend: 0x0, symName: __ZZN5realm4List6insertIU8__strongP11objc_object18RLMAccessorContextEEvRT0_mOT_NS_12CreatePolicyEENKUlS8_E_clIPNSt3__18optionalINS_8ObjectIdEEEEEDaS8_, symObjAddr: 0xAFFC, symBinAddr: 0x2BC828, symSize: 0x40 }
  - { offset: 0x103E30, size: 0x8, addend: 0x0, symName: __ZZN5realm4List6insertIU8__strongP11objc_object18RLMAccessorContextEEvRT0_mOT_NS_12CreatePolicyEENKUlS8_E_clIPNSt3__18optionalIxEEEEDaS8_, symObjAddr: 0xAE1C, symBinAddr: 0x2BC648, symSize: 0x40 }
  - { offset: 0x103EC0, size: 0x8, addend: 0x0, symName: __ZZN5realm4List6insertIU8__strongP11objc_object18RLMAccessorContextEEvRT0_mOT_NS_12CreatePolicyEENKUlS8_E_clIPNSt3__18optionalIbEEEEDaS8_, symObjAddr: 0xAE98, symBinAddr: 0x2BC6C4, symSize: 0x3C }
  - { offset: 0x103F6C, size: 0x8, addend: 0x0, symName: __ZZN5realm4List6insertIU8__strongP11objc_object18RLMAccessorContextEEvRT0_mOT_NS_12CreatePolicyEENKUlS8_E_clIPNSt3__18optionalIfEEEEDaS8_, symObjAddr: 0xAF10, symBinAddr: 0x2BC73C, symSize: 0x3C }
  - { offset: 0x103FFF, size: 0x8, addend: 0x0, symName: __ZZN5realm4List6insertIU8__strongP11objc_object18RLMAccessorContextEEvRT0_mOT_NS_12CreatePolicyEENKUlS8_E_clIPNSt3__18optionalIdEEEEDaS8_, symObjAddr: 0xAF84, symBinAddr: 0x2BC7B0, symSize: 0x40 }
  - { offset: 0x10422A, size: 0x8, addend: 0x0, symName: __ZN5realm4List6assignIRU8__strongP11objc_object18RLMAccessorContextEEvRT0_OT_NS_12CreatePolicyE, symObjAddr: 0xB368, symBinAddr: 0x2BCB94, symSize: 0xCC }
  - { offset: 0x104347, size: 0x8, addend: 0x0, symName: __ZN5realm12object_store10Dictionary6assignIRU8__strongP11objc_object18RLMAccessorContextEEvRT0_OT_NS_12CreatePolicyE, symObjAddr: 0xB434, symBinAddr: 0x2BCC60, symSize: 0x94 }
  - { offset: 0x104435, size: 0x8, addend: 0x0, symName: __ZN27RLMStatelessAccessorContext20enumerate_collectionIZN5realm4List6assignIRU8__strongP11objc_object18RLMAccessorContextEEvRT0_OT_NS1_12CreatePolicyEEUlSC_E_EEvS5_SC_, symObjAddr: 0xB4C8, symBinAddr: 0x2BCCF4, symSize: 0x20C }
  - { offset: 0x104569, size: 0x8, addend: 0x0, symName: __ZN27RLMStatelessAccessorContext20enumerate_dictionaryIZN5realm12object_store10Dictionary6assignIRU8__strongP11objc_object18RLMAccessorContextEEvRT0_OT_NS1_12CreatePolicyEEUlNS1_10StringDataESD_E_EEvS6_SD_, symObjAddr: 0xB6D4, symBinAddr: 0x2BCF00, symSize: 0x1D4 }
  - { offset: 0x104723, size: 0x8, addend: 0x0, symName: __ZN5realm12object_store10Dictionary6insertINS_5MixedEEEvNS_10StringDataET_, symObjAddr: 0xBB5C, symBinAddr: 0x2BD388, symSize: 0x78 }
  - { offset: 0x104803, size: 0x8, addend: 0x0, symName: __ZZN5realm12object_store10Dictionary6insertIRU8__strongP11objc_object18RLMAccessorContextEEvRT0_NS_10StringDataEOT_NS_12CreatePolicyEENKUlSB_E_clIPxEEDaSB_, symObjAddr: 0xBCF4, symBinAddr: 0x2BD520, symSize: 0x104 }
  - { offset: 0x104B1C, size: 0x8, addend: 0x0, symName: __ZZN5realm12object_store10Dictionary6insertIRU8__strongP11objc_object18RLMAccessorContextEEvRT0_NS_10StringDataEOT_NS_12CreatePolicyEENKUlSB_E_clIPNS_4UUIDEEEDaSB_, symObjAddr: 0xCF84, symBinAddr: 0x2BE7B0, symSize: 0x108 }
  - { offset: 0x104E29, size: 0x8, addend: 0x0, symName: __ZZN5realm12object_store10Dictionary6insertIRU8__strongP11objc_object18RLMAccessorContextEEvRT0_NS_10StringDataEOT_NS_12CreatePolicyEENKUlSB_E_clIPNS_9TimestampEEEDaSB_, symObjAddr: 0xC760, symBinAddr: 0x2BDF8C, symSize: 0x140 }
  - { offset: 0x105162, size: 0x8, addend: 0x0, symName: __ZZN5realm12object_store10Dictionary6insertIRU8__strongP11objc_object18RLMAccessorContextEEvRT0_NS_10StringDataEOT_NS_12CreatePolicyEENKUlSB_E_clIPNS_8ObjectIdEEEDaSB_, symObjAddr: 0xCB98, symBinAddr: 0x2BE3C4, symSize: 0x110 }
  - { offset: 0x105483, size: 0x8, addend: 0x0, symName: __ZZN5realm12object_store10Dictionary6insertIRU8__strongP11objc_object18RLMAccessorContextEEvRT0_NS_10StringDataEOT_NS_12CreatePolicyEENKUlSB_E_clIPSA_EEDaSB_, symObjAddr: 0xC520, symBinAddr: 0x2BDD4C, symSize: 0x120 }
  - { offset: 0x105790, size: 0x8, addend: 0x0, symName: __ZZN5realm12object_store10Dictionary6insertIRU8__strongP11objc_object18RLMAccessorContextEEvRT0_NS_10StringDataEOT_NS_12CreatePolicyEENKUlSB_E_clIPNS_10BinaryDataEEEDaSB_, symObjAddr: 0xC640, symBinAddr: 0x2BDE6C, symSize: 0x120 }
  - { offset: 0x105A9D, size: 0x8, addend: 0x0, symName: __ZZN5realm12object_store10Dictionary6insertIRU8__strongP11objc_object18RLMAccessorContextEEvRT0_NS_10StringDataEOT_NS_12CreatePolicyEENKUlSB_E_clIPbEEDaSB_, symObjAddr: 0xBF24, symBinAddr: 0x2BD750, symSize: 0x104 }
  - { offset: 0x105DAD, size: 0x8, addend: 0x0, symName: __ZZN5realm12object_store10Dictionary6insertIRU8__strongP11objc_object18RLMAccessorContextEEvRT0_NS_10StringDataEOT_NS_12CreatePolicyEENKUlSB_E_clIPNS_3ObjEEEDaSB_, symObjAddr: 0xC8A0, symBinAddr: 0x2BE0CC, symSize: 0x1C8 }
  - { offset: 0x106209, size: 0x8, addend: 0x0, symName: __ZZN5realm12object_store10Dictionary6insertIRU8__strongP11objc_object18RLMAccessorContextEEvRT0_NS_10StringDataEOT_NS_12CreatePolicyEENKUlSB_E_clIPNSt3__18optionalINS_8ObjectIdEEEEEDaSB_, symObjAddr: 0xCA68, symBinAddr: 0x2BE294, symSize: 0x130 }
  - { offset: 0x10622A, size: 0x8, addend: 0x0, symName: __ZZN5realm12object_store10Dictionary6insertIRU8__strongP11objc_object18RLMAccessorContextEEvRT0_NS_10StringDataEOT_NS_12CreatePolicyEENKUlSB_E_clIPfEEDaSB_, symObjAddr: 0xC168, symBinAddr: 0x2BD994, symSize: 0x13C }
  - { offset: 0x10658D, size: 0x8, addend: 0x0, symName: __ZZN5realm12object_store10Dictionary6insertIRU8__strongP11objc_object18RLMAccessorContextEEvRT0_NS_10StringDataEOT_NS_12CreatePolicyEENKUlSB_E_clIPNS_5MixedEEEDaSB_, symObjAddr: 0xD08C, symBinAddr: 0x2BE8B8, symSize: 0x258 }
  - { offset: 0x106CDA, size: 0x8, addend: 0x0, symName: __ZZN5realm12object_store10Dictionary6insertIRU8__strongP11objc_object18RLMAccessorContextEEvRT0_NS_10StringDataEOT_NS_12CreatePolicyEENKUlSB_E_clIPNS_10Decimal128EEEDaSB_, symObjAddr: 0xCCA8, symBinAddr: 0x2BE4D4, symSize: 0x150 }
  - { offset: 0x107003, size: 0x8, addend: 0x0, symName: __ZZN5realm12object_store10Dictionary6insertIRU8__strongP11objc_object18RLMAccessorContextEEvRT0_NS_10StringDataEOT_NS_12CreatePolicyEENKUlSB_E_clIPdEEDaSB_, symObjAddr: 0xC3E4, symBinAddr: 0x2BDC10, symSize: 0x13C }
  - { offset: 0x10736E, size: 0x8, addend: 0x0, symName: __ZZN5realm12object_store10Dictionary6insertIRU8__strongP11objc_object18RLMAccessorContextEEvRT0_NS_10StringDataEOT_NS_12CreatePolicyEENKUlSB_E_clIPNSt3__18optionalINS_4UUIDEEEEEDaSB_, symObjAddr: 0xCDF8, symBinAddr: 0x2BE624, symSize: 0x18C }
  - { offset: 0x10766A, size: 0x8, addend: 0x0, symName: __ZZN5realm12object_store10Dictionary6insertIRU8__strongP11objc_object18RLMAccessorContextEEvRT0_NS_10StringDataEOT_NS_12CreatePolicyEENKUlSB_E_clIPNSt3__18optionalINS_8ObjectIdEEEEEDaSB_, symObjAddr: 0xCA68, symBinAddr: 0x2BE294, symSize: 0x130 }
  - { offset: 0x1079E5, size: 0x8, addend: 0x0, symName: __ZZN5realm12object_store10Dictionary6insertIRU8__strongP11objc_object18RLMAccessorContextEEvRT0_NS_10StringDataEOT_NS_12CreatePolicyEENKUlSB_E_clIPNSt3__18optionalIxEEEEDaSB_, symObjAddr: 0xBBD4, symBinAddr: 0x2BD400, symSize: 0x120 }
  - { offset: 0x107CF2, size: 0x8, addend: 0x0, symName: __ZZN5realm12object_store10Dictionary6insertIRU8__strongP11objc_object18RLMAccessorContextEEvRT0_NS_10StringDataEOT_NS_12CreatePolicyEENKUlSB_E_clIPNSt3__18optionalIbEEEEDaSB_, symObjAddr: 0xBDF8, symBinAddr: 0x2BD624, symSize: 0x12C }
  - { offset: 0x108077, size: 0x8, addend: 0x0, symName: __ZZN5realm12object_store10Dictionary6insertIRU8__strongP11objc_object18RLMAccessorContextEEvRT0_NS_10StringDataEOT_NS_12CreatePolicyEENKUlSB_E_clIPNSt3__18optionalIfEEEEDaSB_, symObjAddr: 0xC028, symBinAddr: 0x2BD854, symSize: 0x140 }
  - { offset: 0x1083AA, size: 0x8, addend: 0x0, symName: __ZZN5realm12object_store10Dictionary6insertIRU8__strongP11objc_object18RLMAccessorContextEEvRT0_NS_10StringDataEOT_NS_12CreatePolicyEENKUlSB_E_clIPNSt3__18optionalIdEEEEDaSB_, symObjAddr: 0xC2A4, symBinAddr: 0x2BDAD0, symSize: 0x140 }
  - { offset: 0x1088C3, size: 0x8, addend: 0x0, symName: __ZNSt3__112basic_stringIcNS_11char_traitsIcEENS_9allocatorIcEEEC2B8ne180100EPKcm, symObjAddr: 0xD2E4, symBinAddr: 0x2BEB10, symSize: 0xA8 }
  - { offset: 0x108C70, size: 0x8, addend: 0x0, symName: __ZNKSt3__112basic_stringIcNS_11char_traitsIcEENS_9allocatorIcEEE20__throw_length_errorB8ne180100Ev, symObjAddr: 0xD38C, symBinAddr: 0x2BEBB8, symSize: 0x14 }
  - { offset: 0x108E82, size: 0x8, addend: 0x0, symName: __ZNKSt3__112basic_stringIcNS_11char_traitsIcEENS_9allocatorIcEEE20__throw_length_errorB8ne180100Ev, symObjAddr: 0xD38C, symBinAddr: 0x2BEBB8, symSize: 0x14 }
  - { offset: 0x108EAB, size: 0x8, addend: 0x0, symName: __ZNSt3__120__throw_length_errorB8ne180100EPKc, symObjAddr: 0xD3A0, symBinAddr: 0x2BEBCC, symSize: 0x50 }
  - { offset: 0x109613, size: 0x8, addend: 0x0, symName: ____ZN12_GLOBAL__N_110makeSetterIU8__strongPU16objcproto6RLMInt8NSNumberS4_EEP11objc_objectP11RLMProperty_block_invoke, symObjAddr: 0xE888, symBinAddr: 0x2BF418, symSize: 0x68 }
  - { offset: 0x109669, size: 0x8, addend: 0x0, symName: ____ZN12_GLOBAL__N_110makeSetterIU8__strongPU16objcproto6RLMInt8NSNumberS4_EEP11objc_objectP11RLMProperty_block_invoke_2, symObjAddr: 0xE8F0, symBinAddr: 0x2BF480, symSize: 0x10 }
  - { offset: 0x1096D2, size: 0x8, addend: 0x0, symName: ____ZN12_GLOBAL__N_110makeSetterIcxEEP11objc_objectP11RLMProperty_block_invoke, symObjAddr: 0xE900, symBinAddr: 0x2BF490, symSize: 0x4C }
  - { offset: 0x109725, size: 0x8, addend: 0x0, symName: ____ZN12_GLOBAL__N_110makeSetterIcxEEP11objc_objectP11RLMProperty_block_invoke_2, symObjAddr: 0xE94C, symBinAddr: 0x2BF4DC, symSize: 0xAC }
  - { offset: 0x109932, size: 0x8, addend: 0x0, symName: ____ZN12_GLOBAL__N_110makeSetterIsxEEP11objc_objectP11RLMProperty_block_invoke, symObjAddr: 0xE9F8, symBinAddr: 0x2BF588, symSize: 0x4C }
  - { offset: 0x109985, size: 0x8, addend: 0x0, symName: ____ZN12_GLOBAL__N_110makeSetterIsxEEP11objc_objectP11RLMProperty_block_invoke_2, symObjAddr: 0xEA44, symBinAddr: 0x2BF5D4, symSize: 0xAC }
  - { offset: 0x109B92, size: 0x8, addend: 0x0, symName: ____ZN12_GLOBAL__N_110makeSetterIixEEP11objc_objectP11RLMProperty_block_invoke, symObjAddr: 0xEAF0, symBinAddr: 0x2BF680, symSize: 0x4C }
  - { offset: 0x109BE5, size: 0x8, addend: 0x0, symName: ____ZN12_GLOBAL__N_110makeSetterIixEEP11objc_objectP11RLMProperty_block_invoke_2, symObjAddr: 0xEB3C, symBinAddr: 0x2BF6CC, symSize: 0xAC }
  - { offset: 0x109DF2, size: 0x8, addend: 0x0, symName: ____ZN12_GLOBAL__N_110makeSetterIlxEEP11objc_objectP11RLMProperty_block_invoke, symObjAddr: 0xEBE8, symBinAddr: 0x2BF778, symSize: 0x4C }
  - { offset: 0x109E45, size: 0x8, addend: 0x0, symName: ____ZN12_GLOBAL__N_110makeSetterIlxEEP11objc_objectP11RLMProperty_block_invoke_2, symObjAddr: 0xEC34, symBinAddr: 0x2BF7C4, symSize: 0xAC }
  - { offset: 0x10A052, size: 0x8, addend: 0x0, symName: ____ZN12_GLOBAL__N_110makeSetterIxxEEP11objc_objectP11RLMProperty_block_invoke, symObjAddr: 0xECE0, symBinAddr: 0x2BF870, symSize: 0x4C }
  - { offset: 0x10A0A5, size: 0x8, addend: 0x0, symName: ____ZN12_GLOBAL__N_110makeSetterIxxEEP11objc_objectP11RLMProperty_block_invoke_2, symObjAddr: 0xED2C, symBinAddr: 0x2BF8BC, symSize: 0x10 }
  - { offset: 0x10A10E, size: 0x8, addend: 0x0, symName: ____ZN12_GLOBAL__N_110makeSetterIU8__strongPU18objcproto8RLMFloat8NSNumberS4_EEP11objc_objectP11RLMProperty_block_invoke, symObjAddr: 0xED3C, symBinAddr: 0x2BF8CC, symSize: 0x68 }
  - { offset: 0x10A1D2, size: 0x8, addend: 0x0, symName: ____ZN12_GLOBAL__N_110makeSetterIU8__strongPU18objcproto8RLMFloat8NSNumberS4_EEP11objc_objectP11RLMProperty_block_invoke_2, symObjAddr: 0xEDA4, symBinAddr: 0x2BF934, symSize: 0x150 }
  - { offset: 0x10A449, size: 0x8, addend: 0x0, symName: ____ZN12_GLOBAL__N_110makeSetterIffEEP11objc_objectP11RLMProperty_block_invoke, symObjAddr: 0xEEF4, symBinAddr: 0x2BFA84, symSize: 0x4C }
  - { offset: 0x10A49C, size: 0x8, addend: 0x0, symName: ____ZN12_GLOBAL__N_110makeSetterIffEEP11objc_objectP11RLMProperty_block_invoke_2, symObjAddr: 0xEF40, symBinAddr: 0x2BFAD0, symSize: 0x10 }
  - { offset: 0x10A506, size: 0x8, addend: 0x0, symName: ____ZN12_GLOBAL__N_110makeSetterIU8__strongPU19objcproto9RLMDouble8NSNumberS4_EEP11objc_objectP11RLMProperty_block_invoke, symObjAddr: 0xEF50, symBinAddr: 0x2BFAE0, symSize: 0x68 }
  - { offset: 0x10A5CA, size: 0x8, addend: 0x0, symName: ____ZN12_GLOBAL__N_110makeSetterIU8__strongPU19objcproto9RLMDouble8NSNumberS4_EEP11objc_objectP11RLMProperty_block_invoke_2, symObjAddr: 0xEFB8, symBinAddr: 0x2BFB48, symSize: 0x150 }
  - { offset: 0x10A841, size: 0x8, addend: 0x0, symName: ____ZN12_GLOBAL__N_110makeSetterIddEEP11objc_objectP11RLMProperty_block_invoke, symObjAddr: 0xF108, symBinAddr: 0x2BFC98, symSize: 0x4C }
  - { offset: 0x10A894, size: 0x8, addend: 0x0, symName: ____ZN12_GLOBAL__N_110makeSetterIddEEP11objc_objectP11RLMProperty_block_invoke_2, symObjAddr: 0xF154, symBinAddr: 0x2BFCE4, symSize: 0x10 }
  - { offset: 0x10A8FE, size: 0x8, addend: 0x0, symName: ____ZN12_GLOBAL__N_110makeSetterIU8__strongPU17objcproto7RLMBool8NSNumberS4_EEP11objc_objectP11RLMProperty_block_invoke, symObjAddr: 0xF164, symBinAddr: 0x2BFCF4, symSize: 0x68 }
  - { offset: 0x10A9C2, size: 0x8, addend: 0x0, symName: ____ZN12_GLOBAL__N_110makeSetterIU8__strongPU17objcproto7RLMBool8NSNumberS4_EEP11objc_objectP11RLMProperty_block_invoke_2, symObjAddr: 0xF1CC, symBinAddr: 0x2BFD5C, symSize: 0x154 }
  - { offset: 0x10AC39, size: 0x8, addend: 0x0, symName: ____ZN12_GLOBAL__N_110makeSetterIbbEEP11objc_objectP11RLMProperty_block_invoke, symObjAddr: 0xF320, symBinAddr: 0x2BFEB0, symSize: 0x4C }
  - { offset: 0x10AC8C, size: 0x8, addend: 0x0, symName: ____ZN12_GLOBAL__N_110makeSetterIbbEEP11objc_objectP11RLMProperty_block_invoke_2, symObjAddr: 0xF36C, symBinAddr: 0x2BFEFC, symSize: 0x10 }
  - { offset: 0x10ACFA, size: 0x8, addend: 0x0, symName: ____ZN12_GLOBAL__N_110makeSetterIU8__strongP8NSStringS3_EEP11objc_objectP11RLMProperty_block_invoke, symObjAddr: 0xF37C, symBinAddr: 0x2BFF0C, symSize: 0x68 }
  - { offset: 0x10AD50, size: 0x8, addend: 0x0, symName: ____ZN12_GLOBAL__N_110makeSetterIU8__strongP8NSStringS3_EEP11objc_objectP11RLMProperty_block_invoke_2, symObjAddr: 0xF3E4, symBinAddr: 0x2BFF74, symSize: 0x10 }
  - { offset: 0x10ADB9, size: 0x8, addend: 0x0, symName: ____ZN12_GLOBAL__N_110makeSetterIU8__strongP6NSDateS3_EEP11objc_objectP11RLMProperty_block_invoke, symObjAddr: 0xF3F4, symBinAddr: 0x2BFF84, symSize: 0x68 }
  - { offset: 0x10AE0F, size: 0x8, addend: 0x0, symName: ____ZN12_GLOBAL__N_110makeSetterIU8__strongP6NSDateS3_EEP11objc_objectP11RLMProperty_block_invoke_2, symObjAddr: 0xF45C, symBinAddr: 0x2BFFEC, symSize: 0x10 }
  - { offset: 0x10AE78, size: 0x8, addend: 0x0, symName: ____ZN12_GLOBAL__N_110makeSetterIU8__strongP6NSDataS3_EEP11objc_objectP11RLMProperty_block_invoke, symObjAddr: 0xF46C, symBinAddr: 0x2BFFFC, symSize: 0x68 }
  - { offset: 0x10AECE, size: 0x8, addend: 0x0, symName: ____ZN12_GLOBAL__N_110makeSetterIU8__strongP6NSDataS3_EEP11objc_objectP11RLMProperty_block_invoke_2, symObjAddr: 0xF4D4, symBinAddr: 0x2C0064, symSize: 0x10 }
  - { offset: 0x10AF37, size: 0x8, addend: 0x0, symName: ____ZN12_GLOBAL__N_110makeSetterIU8__strongPU18objcproto8RLMValue11objc_objectS3_EEP11objc_objectP11RLMProperty_block_invoke, symObjAddr: 0xF4E4, symBinAddr: 0x2C0074, symSize: 0x68 }
  - { offset: 0x10AF8D, size: 0x8, addend: 0x0, symName: ____ZN12_GLOBAL__N_110makeSetterIU8__strongPU18objcproto8RLMValue11objc_objectS3_EEP11objc_objectP11RLMProperty_block_invoke_2, symObjAddr: 0xF54C, symBinAddr: 0x2C00DC, symSize: 0x10 }
  - { offset: 0x10AFF6, size: 0x8, addend: 0x0, symName: ____ZN12_GLOBAL__N_110makeSetterIU8__strongP13RLMObjectBaseS3_EEP11objc_objectP11RLMProperty_block_invoke, symObjAddr: 0xF55C, symBinAddr: 0x2C00EC, symSize: 0x68 }
  - { offset: 0x10B04C, size: 0x8, addend: 0x0, symName: ____ZN12_GLOBAL__N_110makeSetterIU8__strongP13RLMObjectBaseS3_EEP11objc_objectP11RLMProperty_block_invoke_2, symObjAddr: 0xF5C4, symBinAddr: 0x2C0154, symSize: 0x10 }
  - { offset: 0x10B0B5, size: 0x8, addend: 0x0, symName: ____ZN12_GLOBAL__N_110makeSetterIU8__strongP11RLMObjectIdS3_EEP11objc_objectP11RLMProperty_block_invoke, symObjAddr: 0xF5D4, symBinAddr: 0x2C0164, symSize: 0x68 }
  - { offset: 0x10B10B, size: 0x8, addend: 0x0, symName: ____ZN12_GLOBAL__N_110makeSetterIU8__strongP11RLMObjectIdS3_EEP11objc_objectP11RLMProperty_block_invoke_2, symObjAddr: 0xF63C, symBinAddr: 0x2C01CC, symSize: 0x10 }
  - { offset: 0x10B174, size: 0x8, addend: 0x0, symName: ____ZN12_GLOBAL__N_110makeSetterIU8__strongP13RLMDecimal128S3_EEP11objc_objectP11RLMProperty_block_invoke, symObjAddr: 0xF64C, symBinAddr: 0x2C01DC, symSize: 0x68 }
  - { offset: 0x10B1CA, size: 0x8, addend: 0x0, symName: ____ZN12_GLOBAL__N_110makeSetterIU8__strongP13RLMDecimal128S3_EEP11objc_objectP11RLMProperty_block_invoke_2, symObjAddr: 0xF6B4, symBinAddr: 0x2C0244, symSize: 0x10 }
  - { offset: 0x10B233, size: 0x8, addend: 0x0, symName: ____ZN12_GLOBAL__N_110makeSetterIU8__strongP6NSUUIDS3_EEP11objc_objectP11RLMProperty_block_invoke, symObjAddr: 0xF6C4, symBinAddr: 0x2C0254, symSize: 0x68 }
  - { offset: 0x10B289, size: 0x8, addend: 0x0, symName: ____ZN12_GLOBAL__N_110makeSetterIU8__strongP6NSUUIDS3_EEP11objc_objectP11RLMProperty_block_invoke_2, symObjAddr: 0xF72C, symBinAddr: 0x2C02BC, symSize: 0x10 }
  - { offset: 0x10B2F1, size: 0x8, addend: 0x0, symName: ____ZN12_GLOBAL__N_115unmanagedGetterEP11RLMPropertyPKc_block_invoke, symObjAddr: 0xF73C, symBinAddr: 0x2C02CC, symSize: 0x24 }
  - { offset: 0x10B326, size: 0x8, addend: 0x0, symName: ____ZN12_GLOBAL__N_115unmanagedGetterEP11RLMPropertyPKc_block_invoke_2, symObjAddr: 0xF8A8, symBinAddr: 0x2C0438, symSize: 0xAC }
  - { offset: 0x10B3DE, size: 0x8, addend: 0x0, symName: ___copy_helper_block_ea8_32s40s, symObjAddr: 0xFAF4, symBinAddr: 0x2C0684, symSize: 0x28 }
  - { offset: 0x10B407, size: 0x8, addend: 0x0, symName: ___destroy_helper_block_ea8_32s40s, symObjAddr: 0xFB1C, symBinAddr: 0x2C06AC, symSize: 0x28 }
  - { offset: 0x10B425, size: 0x8, addend: 0x0, symName: ____ZN12_GLOBAL__N_115unmanagedGetterEP11RLMPropertyPKc_block_invoke.165, symObjAddr: 0xFB44, symBinAddr: 0x2C06D4, symSize: 0xAC }
  - { offset: 0x10B4ED, size: 0x8, addend: 0x0, symName: ____ZN12_GLOBAL__N_115unmanagedSetterEP11RLMPropertyPKc_block_invoke, symObjAddr: 0xFBF0, symBinAddr: 0x2C0780, symSize: 0x1F0 }
  - { offset: 0x10B5B9, size: 0x8, addend: 0x0, symName: __ZN5realm12object_store3Set6assignIRU8__strongP11objc_object18RLMAccessorContextEEvRT0_OT_NS_12CreatePolicyE, symObjAddr: 0x10640, symBinAddr: 0x2C1180, symSize: 0x94 }
  - { offset: 0x10B694, size: 0x8, addend: 0x0, symName: __ZN5realm12_GLOBAL__N_112ValueUpdaterIU8__strongP11objc_object18RLMAccessorContextEclIxEEvPT_, symObjAddr: 0x10984, symBinAddr: 0x2C1470, symSize: 0x68 }
  - { offset: 0x10B740, size: 0x8, addend: 0x0, symName: __ZN5realm12_GLOBAL__N_112ValueUpdaterIU8__strongP11objc_object18RLMAccessorContextEclINS_9TimestampEEEvPT_, symObjAddr: 0x10F08, symBinAddr: 0x2C19F4, symSize: 0xA0 }
  - { offset: 0x10B829, size: 0x8, addend: 0x0, symName: __ZN5realm12_GLOBAL__N_112ValueUpdaterIU8__strongP11objc_object18RLMAccessorContextEclINS_10Decimal128EEEvPT_, symObjAddr: 0x113B4, symBinAddr: 0x2C1EA0, symSize: 0x74 }
  - { offset: 0x10B8F3, size: 0x8, addend: 0x0, symName: __ZN5realm12_GLOBAL__N_112ValueUpdaterIU8__strongP11objc_object18RLMAccessorContextEclINS_10StringDataEEEvPT_, symObjAddr: 0x10DC8, symBinAddr: 0x2C18B4, symSize: 0xA0 }
  - { offset: 0x10BB05, size: 0x8, addend: 0x0, symName: __ZN5realm12_GLOBAL__N_112ValueUpdaterIU8__strongP11objc_object18RLMAccessorContextEclIbEEvPT_, symObjAddr: 0x10AD0, symBinAddr: 0x2C15BC, symSize: 0x68 }
  - { offset: 0x10BBAD, size: 0x8, addend: 0x0, symName: __ZN5realm12_GLOBAL__N_112ValueUpdaterIU8__strongP11objc_object18RLMAccessorContextEclINS_10BinaryDataEEEvPT_, symObjAddr: 0x10E68, symBinAddr: 0x2C1954, symSize: 0xA0 }
  - { offset: 0x10BDBE, size: 0x8, addend: 0x0, symName: __ZN5realm12_GLOBAL__N_112ValueUpdaterIU8__strongP11objc_object18RLMAccessorContextEclEPNS_3ObjE, symObjAddr: 0x10FA8, symBinAddr: 0x2C1A94, symSize: 0x1C0 }
  - { offset: 0x10C037, size: 0x8, addend: 0x0, symName: __ZN5realm12_GLOBAL__N_112ValueUpdaterIU8__strongP11objc_object18RLMAccessorContextEclINS_8ObjectIdEEEvPT_, symObjAddr: 0x112DC, symBinAddr: 0x2C1DC8, symSize: 0xD8 }
  - { offset: 0x10C217, size: 0x8, addend: 0x0, symName: __ZN5realm12_GLOBAL__N_112ValueUpdaterIU8__strongP11objc_object18RLMAccessorContextEclINS_4UUIDEEEvPT_, symObjAddr: 0x11520, symBinAddr: 0x2C200C, symSize: 0xCC }
  - { offset: 0x10C3F7, size: 0x8, addend: 0x0, symName: __ZN5realm12_GLOBAL__N_112ValueUpdaterIU8__strongP11objc_object18RLMAccessorContextEclIfEEvPT_, symObjAddr: 0x10C14, symBinAddr: 0x2C1700, symSize: 0x68 }
  - { offset: 0x10C4A3, size: 0x8, addend: 0x0, symName: __ZN5realm12_GLOBAL__N_112ValueUpdaterIU8__strongP11objc_object18RLMAccessorContextEclIdEEvPT_, symObjAddr: 0x10D60, symBinAddr: 0x2C184C, symSize: 0x68 }
  - { offset: 0x10C54F, size: 0x8, addend: 0x0, symName: __ZN5realm12_GLOBAL__N_112ValueUpdaterIU8__strongP11objc_object18RLMAccessorContextEclINSt3__18optionalIxEEEEvPT_, symObjAddr: 0x108B4, symBinAddr: 0x2C13A0, symSize: 0xD0 }
  - { offset: 0x10C69E, size: 0x8, addend: 0x0, symName: __ZN5realm12_GLOBAL__N_112ValueUpdaterIU8__strongP11objc_object18RLMAccessorContextEclINSt3__18optionalIbEEEEvPT_, symObjAddr: 0x109EC, symBinAddr: 0x2C14D8, symSize: 0xE4 }
  - { offset: 0x10C7ED, size: 0x8, addend: 0x0, symName: __ZN5realm12_GLOBAL__N_112ValueUpdaterIU8__strongP11objc_object18RLMAccessorContextEclINSt3__18optionalINS_8ObjectIdEEEEEvPT_, symObjAddr: 0x11168, symBinAddr: 0x2C1C54, symSize: 0x174 }
  - { offset: 0x10CA9C, size: 0x8, addend: 0x0, symName: __ZN5realm12_GLOBAL__N_112ValueUpdaterIU8__strongP11objc_object18RLMAccessorContextEclINSt3__18optionalINS_4UUIDEEEEEvPT_, symObjAddr: 0x11428, symBinAddr: 0x2C1F14, symSize: 0xF8 }
  - { offset: 0x10CD12, size: 0x8, addend: 0x0, symName: __ZN5realm12_GLOBAL__N_112ValueUpdaterIU8__strongP11objc_object18RLMAccessorContextEclINSt3__18optionalIfEEEEvPT_, symObjAddr: 0x10B38, symBinAddr: 0x2C1624, symSize: 0xDC }
  - { offset: 0x10CE8E, size: 0x8, addend: 0x0, symName: __ZN5realm12_GLOBAL__N_112ValueUpdaterIU8__strongP11objc_object18RLMAccessorContextEclINSt3__18optionalIdEEEEvPT_, symObjAddr: 0x10C7C, symBinAddr: 0x2C1768, symSize: 0xE4 }
  - { offset: 0x10CFDC, size: 0x8, addend: 0x0, symName: __ZN27RLMStatelessAccessorContext20enumerate_collectionIZN5realm12object_store3Set6assignIRU8__strongP11objc_object18RLMAccessorContextEEvRT0_OT_NS1_12CreatePolicyEEUlSD_E_EEvS6_SD_, symObjAddr: 0x10728, symBinAddr: 0x2C1214, symSize: 0x18C }
  - { offset: 0x10D0C9, size: 0x8, addend: 0x0, symName: __ZN27RLMStatelessAccessorContext10null_valueEv, symObjAddr: 0x11D00, symBinAddr: 0x2C27EC, symSize: 0x28 }
  - { offset: 0x10D0DD, size: 0x8, addend: 0x0, symName: __ZNK5realm3Obj17get_linked_objectENS_6ColKeyE, symObjAddr: 0x11F34, symBinAddr: 0x2C2A20, symSize: 0x50 }
  - { offset: 0x10D10A, size: 0x8, addend: 0x0, symName: __ZN5realm7ResultsC1ENSt3__110shared_ptrINS_5RealmEEERKNS_3ObjENS_8TableKeyENS_6ColKeyE, symObjAddr: 0x11F84, symBinAddr: 0x2C2A70, symSize: 0x1B4 }
  - { offset: 0x11286C, size: 0x8, addend: 0x0, symName: '-[RLMArray initWithObjectClassName:keyType:]', symObjAddr: 0x0, symBinAddr: 0x2C35AC, symSize: 0x4 }
  - { offset: 0x15B263, size: 0x8, addend: 0x0, symName: '-[RLMArray initWithObjectClassName:keyType:]', symObjAddr: 0x0, symBinAddr: 0x2C35AC, symSize: 0x4 }
  - { offset: 0x15B2B2, size: 0x8, addend: 0x0, symName: '-[RLMArray initWithObjectType:optional:keyType:]', symObjAddr: 0x4, symBinAddr: 0x2C35B0, symSize: 0x4 }
  - { offset: 0x15B34D, size: 0x8, addend: 0x0, symName: '-[RLMArray initWithObjectClassName:]', symObjAddr: 0x8, symBinAddr: 0x2C35B4, symSize: 0xB0 }
  - { offset: 0x15B3E7, size: 0x8, addend: 0x0, symName: '-[RLMArray initWithObjectType:optional:]', symObjAddr: 0xB8, symBinAddr: 0x2C3664, symSize: 0x78 }
  - { offset: 0x15B47C, size: 0x8, addend: 0x0, symName: '-[RLMArray setParent:property:]', symObjAddr: 0x130, symBinAddr: 0x2C36DC, symSize: 0x88 }
  - { offset: 0x15B487, size: 0x8, addend: 0x0, symName: '-[RLMArray setParent:property:]', symObjAddr: 0x130, symBinAddr: 0x2C36DC, symSize: 0x88 }
  - { offset: 0x15B4DA, size: 0x8, addend: 0x0, symName: '-[RLMArray addObjects:]', symObjAddr: 0x1B8, symBinAddr: 0x2C3764, symSize: 0x12C }
  - { offset: 0x15B534, size: 0x8, addend: 0x0, symName: '-[RLMArray addObject:]', symObjAddr: 0x2E4, symBinAddr: 0x2C3890, symSize: 0x58 }
  - { offset: 0x15B577, size: 0x8, addend: 0x0, symName: '-[RLMArray removeLastObject]', symObjAddr: 0x33C, symBinAddr: 0x2C38E8, symSize: 0x38 }
  - { offset: 0x15B5BA, size: 0x8, addend: 0x0, symName: '-[RLMArray objectAtIndexedSubscript:]', symObjAddr: 0x374, symBinAddr: 0x2C3920, symSize: 0x4 }
  - { offset: 0x15B5FD, size: 0x8, addend: 0x0, symName: '-[RLMArray setObject:atIndexedSubscript:]', symObjAddr: 0x378, symBinAddr: 0x2C3924, symSize: 0x10 }
  - { offset: 0x15B64E, size: 0x8, addend: 0x0, symName: '-[RLMArray sortedResultsUsingKeyPath:ascending:]', symObjAddr: 0x388, symBinAddr: 0x2C3934, symSize: 0x11C }
  - { offset: 0x15B6A5, size: 0x8, addend: 0x0, symName: '-[RLMArray indexOfObjectWhere:]', symObjAddr: 0x4A4, symBinAddr: 0x2C3A50, symSize: 0x28 }
  - { offset: 0x15B70D, size: 0x8, addend: 0x0, symName: '-[RLMArray indexOfObjectWhere:args:]', symObjAddr: 0x4CC, symBinAddr: 0x2C3A78, symSize: 0x64 }
  - { offset: 0x15B764, size: 0x8, addend: 0x0, symName: '-[RLMArray addNotificationBlock:]', symObjAddr: 0x530, symBinAddr: 0x2C3ADC, symSize: 0x68 }
  - { offset: 0x15B7FA, size: 0x8, addend: 0x0, symName: '-[RLMArray addNotificationBlock:queue:]', symObjAddr: 0x598, symBinAddr: 0x2C3B44, symSize: 0x90 }
  - { offset: 0x15B85E, size: 0x8, addend: 0x0, symName: '-[RLMArray addNotificationBlock:keyPaths:]', symObjAddr: 0x628, symBinAddr: 0x2C3BD4, symSize: 0x90 }
  - { offset: 0x15B8C2, size: 0x8, addend: 0x0, symName: '-[RLMArray addNotificationBlock:keyPaths:queue:]', symObjAddr: 0x6B8, symBinAddr: 0x2C3C64, symSize: 0xB0 }
  - { offset: 0x15B936, size: 0x8, addend: 0x0, symName: '-[RLMArray realm]', symObjAddr: 0x768, symBinAddr: 0x2C3D14, symSize: 0x8 }
  - { offset: 0x15B969, size: 0x8, addend: 0x0, symName: '-[RLMArray firstObject]', symObjAddr: 0x770, symBinAddr: 0x2C3D1C, symSize: 0x38 }
  - { offset: 0x15B9A0, size: 0x8, addend: 0x0, symName: '-[RLMArray lastObject]', symObjAddr: 0x7A8, symBinAddr: 0x2C3D54, symSize: 0x38 }
  - { offset: 0x15B9E7, size: 0x8, addend: 0x0, symName: '-[RLMArray objectAtIndex:]', symObjAddr: 0x7E0, symBinAddr: 0x2C3D8C, symSize: 0x38 }
  - { offset: 0x15BA3B, size: 0x8, addend: 0x0, symName: __ZL19validateArrayBoundsP8RLMArraymb, symObjAddr: 0x818, symBinAddr: 0x2C3DC4, symSize: 0x58 }
  - { offset: 0x15BB45, size: 0x8, addend: 0x0, symName: '-[RLMArray count]', symObjAddr: 0x870, symBinAddr: 0x2C3E1C, symSize: 0x8 }
  - { offset: 0x15BB7C, size: 0x8, addend: 0x0, symName: '-[RLMArray isInvalidated]', symObjAddr: 0x878, symBinAddr: 0x2C3E24, symSize: 0x8 }
  - { offset: 0x15BBAF, size: 0x8, addend: 0x0, symName: '-[RLMArray countByEnumeratingWithState:objects:count:]', symObjAddr: 0x880, symBinAddr: 0x2C3E2C, symSize: 0xC }
  - { offset: 0x15BCB7, size: 0x8, addend: 0x0, symName: __Z34RLMArrayValidateMatchingObjectTypeP8RLMArrayP11objc_object, symObjAddr: 0x88C, symBinAddr: 0x2C3E38, symSize: 0x24C }
  - { offset: 0x15BDA5, size: 0x8, addend: 0x0, symName: __ZL15RLMTypeToString15RLMPropertyType, symObjAddr: 0xAD8, symBinAddr: 0x2C4084, symSize: 0x24 }
  - { offset: 0x15BDD4, size: 0x8, addend: 0x0, symName: '-[RLMArray addObjectsFromArray:]', symObjAddr: 0xAFC, symBinAddr: 0x2C40A8, symSize: 0x1BC }
  - { offset: 0x15BE49, size: 0x8, addend: 0x0, symName: __ZL11changeArrayP8RLMArray16NSKeyValueChange8_NSRangeU13block_pointerFvvE, symObjAddr: 0xCB8, symBinAddr: 0x2C4264, symSize: 0x190 }
  - { offset: 0x15C044, size: 0x8, addend: 0x0, symName: '___32-[RLMArray addObjectsFromArray:]_block_invoke', symObjAddr: 0xE48, symBinAddr: 0x2C43F4, symSize: 0xC }
  - { offset: 0x15C095, size: 0x8, addend: 0x0, symName: '-[RLMArray insertObject:atIndex:]', symObjAddr: 0xE54, symBinAddr: 0x2C4400, symSize: 0xE0 }
  - { offset: 0x15C110, size: 0x8, addend: 0x0, symName: __ZL11changeArrayP8RLMArray16NSKeyValueChangemU13block_pointerFvvE, symObjAddr: 0xF34, symBinAddr: 0x2C44E0, symSize: 0x188 }
  - { offset: 0x15C28E, size: 0x8, addend: 0x0, symName: '___33-[RLMArray insertObject:atIndex:]_block_invoke', symObjAddr: 0x10BC, symBinAddr: 0x2C4668, symSize: 0x14 }
  - { offset: 0x15C2EF, size: 0x8, addend: 0x0, symName: '-[RLMArray insertObjects:atIndexes:]', symObjAddr: 0x10D0, symBinAddr: 0x2C467C, symSize: 0xF4 }
  - { offset: 0x15C350, size: 0x8, addend: 0x0, symName: __ZL11changeArrayP8RLMArray16NSKeyValueChangeP10NSIndexSetU13block_pointerFvvE, symObjAddr: 0x11C4, symBinAddr: 0x2C4770, symSize: 0x1BC }
  - { offset: 0x15C563, size: 0x8, addend: 0x0, symName: '___36-[RLMArray insertObjects:atIndexes:]_block_invoke', symObjAddr: 0x1380, symBinAddr: 0x2C492C, symSize: 0x154 }
  - { offset: 0x15C5FF, size: 0x8, addend: 0x0, symName: ___copy_helper_block_ea8_32s40s48s, symObjAddr: 0x14D4, symBinAddr: 0x2C4A80, symSize: 0x30 }
  - { offset: 0x15C628, size: 0x8, addend: 0x0, symName: ___destroy_helper_block_ea8_32s40s48s, symObjAddr: 0x1504, symBinAddr: 0x2C4AB0, symSize: 0x30 }
  - { offset: 0x15C647, size: 0x8, addend: 0x0, symName: '-[RLMArray removeObjectAtIndex:]', symObjAddr: 0x1534, symBinAddr: 0x2C4AE0, symSize: 0x80 }
  - { offset: 0x15C6A5, size: 0x8, addend: 0x0, symName: '___32-[RLMArray removeObjectAtIndex:]_block_invoke', symObjAddr: 0x15B4, symBinAddr: 0x2C4B60, symSize: 0xC }
  - { offset: 0x15C6F6, size: 0x8, addend: 0x0, symName: '-[RLMArray removeObjectsAtIndexes:]', symObjAddr: 0x15C0, symBinAddr: 0x2C4B6C, symSize: 0xA4 }
  - { offset: 0x15C747, size: 0x8, addend: 0x0, symName: '___35-[RLMArray removeObjectsAtIndexes:]_block_invoke', symObjAddr: 0x1664, symBinAddr: 0x2C4C10, symSize: 0xC }
  - { offset: 0x15C798, size: 0x8, addend: 0x0, symName: '-[RLMArray replaceObjectAtIndex:withObject:]', symObjAddr: 0x1670, symBinAddr: 0x2C4C1C, symSize: 0xE4 }
  - { offset: 0x15C813, size: 0x8, addend: 0x0, symName: '___44-[RLMArray replaceObjectAtIndex:withObject:]_block_invoke', symObjAddr: 0x1754, symBinAddr: 0x2C4D00, symSize: 0x14 }
  - { offset: 0x15C874, size: 0x8, addend: 0x0, symName: '-[RLMArray moveObjectAtIndex:toIndex:]', symObjAddr: 0x1768, symBinAddr: 0x2C4D14, symSize: 0x108 }
  - { offset: 0x15C91F, size: 0x8, addend: 0x0, symName: '___38-[RLMArray moveObjectAtIndex:toIndex:]_block_invoke', symObjAddr: 0x1870, symBinAddr: 0x2C4E1C, symSize: 0x38 }
  - { offset: 0x15C9F6, size: 0x8, addend: 0x0, symName: '-[RLMArray exchangeObjectAtIndex:withObjectAtIndex:]', symObjAddr: 0x18A8, symBinAddr: 0x2C4E54, symSize: 0x1D4 }
  - { offset: 0x15CB63, size: 0x8, addend: 0x0, symName: '___52-[RLMArray exchangeObjectAtIndex:withObjectAtIndex:]_block_invoke', symObjAddr: 0x1A7C, symBinAddr: 0x2C5028, symSize: 0x14 }
  - { offset: 0x15CBC4, size: 0x8, addend: 0x0, symName: '-[RLMArray indexOfObject:]', symObjAddr: 0x1A90, symBinAddr: 0x2C503C, symSize: 0x198 }
  - { offset: 0x15CC64, size: 0x8, addend: 0x0, symName: '-[RLMArray removeAllObjects]', symObjAddr: 0x1C28, symBinAddr: 0x2C51D4, symSize: 0x78 }
  - { offset: 0x15CCA5, size: 0x8, addend: 0x0, symName: '___28-[RLMArray removeAllObjects]_block_invoke', symObjAddr: 0x1CA0, symBinAddr: 0x2C524C, symSize: 0xC }
  - { offset: 0x15CCE6, size: 0x8, addend: 0x0, symName: '-[RLMArray replaceAllObjectsWithObjects:]', symObjAddr: 0x1CAC, symBinAddr: 0x2C5258, symSize: 0x148 }
  - { offset: 0x15CD44, size: 0x8, addend: 0x0, symName: '___41-[RLMArray replaceAllObjectsWithObjects:]_block_invoke', symObjAddr: 0x1DF4, symBinAddr: 0x2C53A0, symSize: 0xC }
  - { offset: 0x15CD85, size: 0x8, addend: 0x0, symName: '___41-[RLMArray replaceAllObjectsWithObjects:]_block_invoke_2', symObjAddr: 0x1E00, symBinAddr: 0x2C53AC, symSize: 0x174 }
  - { offset: 0x15CDED, size: 0x8, addend: 0x0, symName: '-[RLMArray objectsWhere:]', symObjAddr: 0x1F74, symBinAddr: 0x2C5520, symSize: 0x30 }
  - { offset: 0x15CE56, size: 0x8, addend: 0x0, symName: '-[RLMArray objectsWhere:args:]', symObjAddr: 0x1FA4, symBinAddr: 0x2C5550, symSize: 0x6C }
  - { offset: 0x15CEAE, size: 0x8, addend: 0x0, symName: '-[RLMArray typeForProperty:]', symObjAddr: 0x2010, symBinAddr: 0x2C55BC, symSize: 0x140 }
  - { offset: 0x15CF58, size: 0x8, addend: 0x0, symName: '-[RLMArray aggregateProperty:operation:method:]', symObjAddr: 0x2150, symBinAddr: 0x2C56FC, symSize: 0x3E8 }
  - { offset: 0x15D0C7, size: 0x8, addend: 0x0, symName: '___47-[RLMArray aggregateProperty:operation:method:]_block_invoke', symObjAddr: 0x2538, symBinAddr: 0x2C5AE4, symSize: 0x64 }
  - { offset: 0x15D116, size: 0x8, addend: 0x0, symName: '-[RLMArray valueForKeyPath:]', symObjAddr: 0x259C, symBinAddr: 0x2C5B48, symSize: 0x1A0 }
  - { offset: 0x15D18E, size: 0x8, addend: 0x0, symName: '-[RLMArray valueForKey:]', symObjAddr: 0x273C, symBinAddr: 0x2C5CE8, symSize: 0xB4 }
  - { offset: 0x15D1D6, size: 0x8, addend: 0x0, symName: '-[RLMArray setValue:forKey:]', symObjAddr: 0x27F0, symBinAddr: 0x2C5D9C, symSize: 0xF8 }
  - { offset: 0x15D262, size: 0x8, addend: 0x0, symName: '-[RLMArray minOfProperty:]', symObjAddr: 0x28E8, symBinAddr: 0x2C5E94, symSize: 0x28 }
  - { offset: 0x15D2AE, size: 0x8, addend: 0x0, symName: '-[RLMArray maxOfProperty:]', symObjAddr: 0x2910, symBinAddr: 0x2C5EBC, symSize: 0x28 }
  - { offset: 0x15D2FA, size: 0x8, addend: 0x0, symName: '-[RLMArray sumOfProperty:]', symObjAddr: 0x2938, symBinAddr: 0x2C5EE4, symSize: 0x28 }
  - { offset: 0x15D346, size: 0x8, addend: 0x0, symName: '-[RLMArray averageOfProperty:]', symObjAddr: 0x2960, symBinAddr: 0x2C5F0C, symSize: 0x28 }
  - { offset: 0x15D392, size: 0x8, addend: 0x0, symName: '-[RLMArray indexOfObjectWithPredicate:]', symObjAddr: 0x2988, symBinAddr: 0x2C5F34, symSize: 0xC4 }
  - { offset: 0x15D3DA, size: 0x8, addend: 0x0, symName: '___39-[RLMArray indexOfObjectWithPredicate:]_block_invoke', symObjAddr: 0x2A4C, symBinAddr: 0x2C5FF8, symSize: 0xC }
  - { offset: 0x15D43C, size: 0x8, addend: 0x0, symName: '-[RLMArray objectsAtIndexes:]', symObjAddr: 0x2A58, symBinAddr: 0x2C6004, symSize: 0xB4 }
  - { offset: 0x15D4AC, size: 0x8, addend: 0x0, symName: '-[RLMArray isEqual:]', symObjAddr: 0x2B0C, symBinAddr: 0x2C60B8, symSize: 0x110 }
  - { offset: 0x15D539, size: 0x8, addend: 0x0, symName: '-[RLMArray addObserver:forKeyPath:options:context:]', symObjAddr: 0x2C1C, symBinAddr: 0x2C61C8, symSize: 0xB8 }
  - { offset: 0x15D5D1, size: 0x8, addend: 0x0, symName: '-[RLMArray objectsWithPredicate:]', symObjAddr: 0x2CD4, symBinAddr: 0x2C6280, symSize: 0x4C }
  - { offset: 0x15D622, size: 0x8, addend: 0x0, symName: '-[RLMArray sortedResultsUsingDescriptors:]', symObjAddr: 0x2D20, symBinAddr: 0x2C62CC, symSize: 0x4C }
  - { offset: 0x15D673, size: 0x8, addend: 0x0, symName: '-[RLMArray distinctResultsUsingKeyPaths:]', symObjAddr: 0x2D6C, symBinAddr: 0x2C6318, symSize: 0x4C }
  - { offset: 0x15D6C4, size: 0x8, addend: 0x0, symName: '-[RLMArray sectionedResultsSortedUsingKeyPath:ascending:keyBlock:]', symObjAddr: 0x2DB8, symBinAddr: 0x2C6364, symSize: 0x68 }
  - { offset: 0x15D732, size: 0x8, addend: 0x0, symName: '-[RLMArray sectionedResultsUsingSortDescriptors:keyBlock:]', symObjAddr: 0x2E20, symBinAddr: 0x2C63CC, symSize: 0x68 }
  - { offset: 0x15D793, size: 0x8, addend: 0x0, symName: '-[RLMArray freeze]', symObjAddr: 0x2E88, symBinAddr: 0x2C6434, symSize: 0x24 }
  - { offset: 0x15D7D4, size: 0x8, addend: 0x0, symName: '-[RLMArray thaw]', symObjAddr: 0x2EAC, symBinAddr: 0x2C6458, symSize: 0x24 }
  - { offset: 0x15D815, size: 0x8, addend: 0x0, symName: '-[RLMArray makeThreadSafeReference]', symObjAddr: 0x2ED0, symBinAddr: 0x2C647C, symSize: 0x2C }
  - { offset: 0x15D888, size: 0x8, addend: 0x0, symName: '-[RLMArray objectiveCMetadata]', symObjAddr: 0x2EFC, symBinAddr: 0x2C64A8, symSize: 0x2C }
  - { offset: 0x15D893, size: 0x8, addend: 0x0, symName: '-[RLMArray objectiveCMetadata]', symObjAddr: 0x2EFC, symBinAddr: 0x2C64A8, symSize: 0x2C }
  - { offset: 0x15D906, size: 0x8, addend: 0x0, symName: '+[RLMArray objectWithThreadSafeReference:metadata:realm:]', symObjAddr: 0x2F28, symBinAddr: 0x2C64D4, symSize: 0x44 }
  - { offset: 0x15D911, size: 0x8, addend: 0x0, symName: '+[RLMArray objectWithThreadSafeReference:metadata:realm:]', symObjAddr: 0x2F28, symBinAddr: 0x2C64D4, symSize: 0x44 }
  - { offset: 0x15D9B1, size: 0x8, addend: 0x0, symName: '-[RLMArray description]', symObjAddr: 0x2F6C, symBinAddr: 0x2C6518, symSize: 0x8 }
  - { offset: 0x15D9BC, size: 0x8, addend: 0x0, symName: '-[RLMArray description]', symObjAddr: 0x2F6C, symBinAddr: 0x2C6518, symSize: 0x8 }
  - { offset: 0x15D9F2, size: 0x8, addend: 0x0, symName: '-[RLMArray descriptionWithMaxDepth:]', symObjAddr: 0x2F74, symBinAddr: 0x2C6520, symSize: 0x10 }
  - { offset: 0x15DA63, size: 0x8, addend: 0x0, symName: '-[RLMArray propertyKey]', symObjAddr: 0x2F84, symBinAddr: 0x2C6530, symSize: 0x8 }
  - { offset: 0x15DA9B, size: 0x8, addend: 0x0, symName: '-[RLMArray type]', symObjAddr: 0x2F8C, symBinAddr: 0x2C6538, symSize: 0x8 }
  - { offset: 0x15DAD2, size: 0x8, addend: 0x0, symName: '-[RLMArray isOptional]', symObjAddr: 0x2F94, symBinAddr: 0x2C6540, symSize: 0x8 }
  - { offset: 0x15DB09, size: 0x8, addend: 0x0, symName: '-[RLMArray objectClassName]', symObjAddr: 0x2F9C, symBinAddr: 0x2C6548, symSize: 0x8 }
  - { offset: 0x15DB40, size: 0x8, addend: 0x0, symName: '-[RLMArray isFrozen]', symObjAddr: 0x2FA4, symBinAddr: 0x2C6550, symSize: 0x8 }
  - { offset: 0x15DB77, size: 0x8, addend: 0x0, symName: '-[RLMArray isLegacyProperty]', symObjAddr: 0x2FAC, symBinAddr: 0x2C6558, symSize: 0x8 }
  - { offset: 0x15DBAE, size: 0x8, addend: 0x0, symName: '-[RLMArray .cxx_destruct]', symObjAddr: 0x2FB4, symBinAddr: 0x2C6560, symSize: 0x44 }
  - { offset: 0x15DBE1, size: 0x8, addend: 0x0, symName: '+[RLMSortDescriptor sortDescriptorWithKeyPath:ascending:]', symObjAddr: 0x2FF8, symBinAddr: 0x2C65A4, symSize: 0x6C }
  - { offset: 0x15DC45, size: 0x8, addend: 0x0, symName: '-[RLMSortDescriptor reversedSortDescriptor]', symObjAddr: 0x3064, symBinAddr: 0x2C6610, symSize: 0x30 }
  - { offset: 0x15DC7D, size: 0x8, addend: 0x0, symName: '-[RLMSortDescriptor keyPath]', symObjAddr: 0x3094, symBinAddr: 0x2C6640, symSize: 0x8 }
  - { offset: 0x15DCB5, size: 0x8, addend: 0x0, symName: '-[RLMSortDescriptor ascending]', symObjAddr: 0x309C, symBinAddr: 0x2C6648, symSize: 0x8 }
  - { offset: 0x15DCED, size: 0x8, addend: 0x0, symName: '-[RLMSortDescriptor .cxx_destruct]', symObjAddr: 0x30A4, symBinAddr: 0x2C6650, symSize: 0xC }
  - { offset: 0x160541, size: 0x8, addend: 0x0, symName: __MergedGlobals, symObjAddr: 0x1B1A40, symBinAddr: 0x4A9658, symSize: 0x0 }
  - { offset: 0x16055B, size: 0x8, addend: 0x0, symName: __MergedGlobals, symObjAddr: 0x1B1A40, symBinAddr: 0x4A9658, symSize: 0x0 }
  - { offset: 0x160589, size: 0x8, addend: 0x0, symName: '+[RLMAsyncRefreshTask completedRefresh]', symObjAddr: 0xB24, symBinAddr: 0x2C7180, symSize: 0x7C }
  - { offset: 0x1605B3, size: 0x8, addend: 0x0, symName: __MergedGlobals, symObjAddr: 0x1B1A40, symBinAddr: 0x4A9658, symSize: 0x0 }
  - { offset: 0x196A6D, size: 0x8, addend: 0x0, symName: _RLMSetAsyncOpenQueue, symObjAddr: 0x0, symBinAddr: 0x2C665C, symSize: 0x10 }
  - { offset: 0x196B66, size: 0x8, addend: 0x0, symName: '-[RLMAsyncOpenTask cancel]', symObjAddr: 0x10, symBinAddr: 0x2C666C, symSize: 0x34 }
  - { offset: 0x196C96, size: 0x8, addend: 0x0, symName: '-[RLMAsyncOpenTask initWithConfiguration:confinedTo:]', symObjAddr: 0x44, symBinAddr: 0x2C66A0, symSize: 0xE8 }
  - { offset: 0x196CED, size: 0x8, addend: 0x0, symName: '-[RLMAsyncOpenTask initWithConfiguration:confinedTo:completion:]', symObjAddr: 0x12C, symBinAddr: 0x2C6788, symSize: 0xC8 }
  - { offset: 0x196D52, size: 0x8, addend: 0x0, symName: '-[RLMAsyncOpenTask waitForOpen:]', symObjAddr: 0x1F4, symBinAddr: 0x2C6850, symSize: 0xF0 }
  - { offset: 0x196D9A, size: 0x8, addend: 0x0, symName: '___32-[RLMAsyncOpenTask waitForOpen:]_block_invoke', symObjAddr: 0x2E4, symBinAddr: 0x2C6940, symSize: 0xA4 }
  - { offset: 0x196E36, size: 0x8, addend: 0x0, symName: ___copy_helper_block_ea8_32b40w, symObjAddr: 0x388, symBinAddr: 0x2C69E4, symSize: 0x38 }
  - { offset: 0x196E5F, size: 0x8, addend: 0x0, symName: ___destroy_helper_block_ea8_32s40w, symObjAddr: 0x3C0, symBinAddr: 0x2C6A1C, symSize: 0x28 }
  - { offset: 0x196E7E, size: 0x8, addend: 0x0, symName: '-[RLMAsyncOpenTask waitWithCompletion:]', symObjAddr: 0x3E8, symBinAddr: 0x2C6A44, symSize: 0xDC }
  - { offset: 0x197000, size: 0x8, addend: 0x0, symName: '-[RLMAsyncOpenTask reportError:]', symObjAddr: 0x4C4, symBinAddr: 0x2C6B20, symSize: 0x124 }
  - { offset: 0x197074, size: 0x8, addend: 0x0, symName: '-[RLMAsyncOpenTask releaseResources]', symObjAddr: 0x8FC, symBinAddr: 0x2C6F58, symSize: 0x48 }
  - { offset: 0x197181, size: 0x8, addend: 0x0, symName: '___39-[RLMAsyncOpenTask waitWithCompletion:]_block_invoke', symObjAddr: 0x5E8, symBinAddr: 0x2C6C44, symSize: 0x188 }
  - { offset: 0x197328, size: 0x8, addend: 0x0, symName: '-[RLMAsyncOpenTask checkCancellation]', symObjAddr: 0x770, symBinAddr: 0x2C6DCC, symSize: 0x58 }
  - { offset: 0x1973B2, size: 0x8, addend: 0x0, symName: '___34-[RLMAsyncOpenTask startAsyncOpen]_block_invoke', symObjAddr: 0x7C8, symBinAddr: 0x2C6E24, symSize: 0x134 }
  - { offset: 0x1975AA, size: 0x8, addend: 0x0, symName: '___32-[RLMAsyncOpenTask reportError:]_block_invoke', symObjAddr: 0x944, symBinAddr: 0x2C6FA0, symSize: 0x10 }
  - { offset: 0x197601, size: 0x8, addend: 0x0, symName: ___copy_helper_block_ea8_32s40b, symObjAddr: 0x954, symBinAddr: 0x2C6FB0, symSize: 0x34 }
  - { offset: 0x19762A, size: 0x8, addend: 0x0, symName: '-[RLMAsyncOpenTask localRealm]', symObjAddr: 0x988, symBinAddr: 0x2C6FE4, symSize: 0x8 }
  - { offset: 0x197661, size: 0x8, addend: 0x0, symName: '-[RLMAsyncOpenTask setLocalRealm:]', symObjAddr: 0x990, symBinAddr: 0x2C6FEC, symSize: 0xC }
  - { offset: 0x1976A2, size: 0x8, addend: 0x0, symName: '-[RLMAsyncOpenTask .cxx_destruct]', symObjAddr: 0x99C, symBinAddr: 0x2C6FF8, symSize: 0x54 }
  - { offset: 0x197709, size: 0x8, addend: 0x0, symName: '-[RLMAsyncOpenTask .cxx_construct]', symObjAddr: 0x9F0, symBinAddr: 0x2C704C, symSize: 0x8 }
  - { offset: 0x197741, size: 0x8, addend: 0x0, symName: '-[RLMAsyncOpenTask .cxx_construct]', symObjAddr: 0x9F0, symBinAddr: 0x2C704C, symSize: 0x8 }
  - { offset: 0x197760, size: 0x8, addend: 0x0, symName: '-[RLMAsyncOpenTask .cxx_construct]', symObjAddr: 0x9F0, symBinAddr: 0x2C704C, symSize: 0x8 }
  - { offset: 0x1977E7, size: 0x8, addend: 0x0, symName: '-[RLMAsyncRefreshTask complete:]', symObjAddr: 0x9F8, symBinAddr: 0x2C7054, symSize: 0x90 }
  - { offset: 0x197949, size: 0x8, addend: 0x0, symName: '-[RLMAsyncRefreshTask wait:]', symObjAddr: 0xA88, symBinAddr: 0x2C70E4, symSize: 0x9C }
  - { offset: 0x197A7A, size: 0x8, addend: 0x0, symName: '__ZZ39+[RLMAsyncRefreshTask completedRefresh]ENK3$_0clEv', symObjAddr: 0xBA0, symBinAddr: 0x2C71FC, symSize: 0x28 }
  - { offset: 0x197AAD, size: 0x8, addend: 0x0, symName: '-[RLMAsyncRefreshTask .cxx_destruct]', symObjAddr: 0xBC8, symBinAddr: 0x2C7224, symSize: 0xC }
  - { offset: 0x197AE0, size: 0x8, addend: 0x0, symName: '-[RLMAsyncRefreshTask .cxx_construct]', symObjAddr: 0xBD4, symBinAddr: 0x2C7230, symSize: 0x8 }
  - { offset: 0x197B18, size: 0x8, addend: 0x0, symName: '-[RLMAsyncRefreshTask .cxx_construct]', symObjAddr: 0xBD4, symBinAddr: 0x2C7230, symSize: 0x8 }
  - { offset: 0x197B37, size: 0x8, addend: 0x0, symName: '-[RLMAsyncRefreshTask .cxx_construct]', symObjAddr: 0xBD4, symBinAddr: 0x2C7230, symSize: 0x8 }
  - { offset: 0x197B56, size: 0x8, addend: 0x0, symName: '-[RLMAsyncWriteTask initWithRealm:]', symObjAddr: 0xBDC, symBinAddr: 0x2C7238, symSize: 0x8C }
  - { offset: 0x197B9E, size: 0x8, addend: 0x0, symName: '-[RLMAsyncWriteTask setTransactionId:]', symObjAddr: 0xC68, symBinAddr: 0x2C72C4, symSize: 0x8 }
  - { offset: 0x197C25, size: 0x8, addend: 0x0, symName: '-[RLMAsyncWriteTask complete:]', symObjAddr: 0xC70, symBinAddr: 0x2C72CC, symSize: 0xA0 }
  - { offset: 0x197DE3, size: 0x8, addend: 0x0, symName: '-[RLMAsyncWriteTask wait:]', symObjAddr: 0xD10, symBinAddr: 0x2C736C, symSize: 0x94 }
  - { offset: 0x197F69, size: 0x8, addend: 0x0, symName: '-[RLMAsyncWriteTask .cxx_destruct]', symObjAddr: 0xDA4, symBinAddr: 0x2C7400, symSize: 0x30 }
  - { offset: 0x197F9C, size: 0x8, addend: 0x0, symName: '-[RLMAsyncWriteTask .cxx_construct]', symObjAddr: 0xDD4, symBinAddr: 0x2C7430, symSize: 0x8 }
  - { offset: 0x197FD4, size: 0x8, addend: 0x0, symName: '-[RLMAsyncWriteTask .cxx_construct]', symObjAddr: 0xDD4, symBinAddr: 0x2C7430, symSize: 0x8 }
  - { offset: 0x197FF3, size: 0x8, addend: 0x0, symName: '-[RLMAsyncWriteTask .cxx_construct]', symObjAddr: 0xDD4, symBinAddr: 0x2C7430, symSize: 0x8 }
  - { offset: 0x199F00, size: 0x8, addend: 0x0, symName: __ZN12RLMClassInfoC2EP8RLMRealmP15RLMObjectSchemaPKN5realm12ObjectSchemaE, symObjAddr: 0x0, symBinAddr: 0x2C754C, symSize: 0x1C }
  - { offset: 0x199F44, size: 0x8, addend: 0x0, symName: __ZNSt3__119piecewise_constructE, symObjAddr: 0x21D8, symBinAddr: 0x41F268, symSize: 0x0 }
  - { offset: 0x1C4F89, size: 0x8, addend: 0x0, symName: __ZNSt3__112__destroy_atB8ne180100INS_4pairIU8__strongKP8NSString12RLMClassInfoEELi0EEEvPT_, symObjAddr: 0x1500, symBinAddr: 0x2C8A10, symSize: 0x44 }
  - { offset: 0x1D5E09, size: 0x8, addend: 0x0, symName: __ZN12RLMClassInfoC2EP8RLMRealmP15RLMObjectSchemaPKN5realm12ObjectSchemaE, symObjAddr: 0x0, symBinAddr: 0x2C754C, symSize: 0x1C }
  - { offset: 0x1D5F22, size: 0x8, addend: 0x0, symName: __ZN12RLMClassInfoC1EP8RLMRealmP15RLMObjectSchemaPKN5realm12ObjectSchemaE, symObjAddr: 0x1C, symBinAddr: 0x2C7568, symSize: 0x1C }
  - { offset: 0x1D5F5E, size: 0x8, addend: 0x0, symName: __ZN12RLMClassInfoC1EP8RLMRealmP15RLMObjectSchemaPKN5realm12ObjectSchemaE, symObjAddr: 0x1C, symBinAddr: 0x2C7568, symSize: 0x1C }
  - { offset: 0x1D61BE, size: 0x8, addend: 0x0, symName: __ZN12RLMClassInfoC2EP8RLMRealmP15RLMObjectSchemaNSt3__110unique_ptrIN5realm12ObjectSchemaENS4_14default_deleteIS7_EEEE, symObjAddr: 0x38, symBinAddr: 0x2C7584, symSize: 0x54 }
  - { offset: 0x1D6361, size: 0x8, addend: 0x0, symName: __ZN12RLMClassInfoC1EP8RLMRealmP15RLMObjectSchemaNSt3__110unique_ptrIN5realm12ObjectSchemaENS4_14default_deleteIS7_EEEE, symObjAddr: 0x8C, symBinAddr: 0x2C75D8, symSize: 0x54 }
  - { offset: 0x1D6557, size: 0x8, addend: 0x0, symName: __ZNK12RLMClassInfo5tableEv, symObjAddr: 0xE0, symBinAddr: 0x2C762C, symSize: 0x8C }
  - { offset: 0x1D661C, size: 0x8, addend: 0x0, symName: __ZNK12RLMClassInfo22propertyForTableColumnEN5realm6ColKeyE, symObjAddr: 0x16C, symBinAddr: 0x2C76B8, symSize: 0xA8 }
  - { offset: 0x1D6691, size: 0x8, addend: 0x0, symName: __ZNK12RLMClassInfo21propertyForPrimaryKeyEv, symObjAddr: 0x214, symBinAddr: 0x2C7760, symSize: 0x24 }
  - { offset: 0x1D670D, size: 0x8, addend: 0x0, symName: __ZNK12RLMClassInfo11tableColumnEP8NSString, symObjAddr: 0x238, symBinAddr: 0x2C7784, symSize: 0x68 }
  - { offset: 0x1D67BE, size: 0x8, addend: 0x0, symName: __ZNK12RLMClassInfo11tableColumnEP11RLMProperty, symObjAddr: 0x2A0, symBinAddr: 0x2C77EC, symSize: 0x34 }
  - { offset: 0x1D6813, size: 0x8, addend: 0x0, symName: __ZNK12RLMClassInfo19computedTableColumnEP11RLMProperty, symObjAddr: 0x2D4, symBinAddr: 0x2C7820, symSize: 0x134 }
  - { offset: 0x1D68FE, size: 0x8, addend: 0x0, symName: __ZN13RLMSchemaInfoixEP8NSString, symObjAddr: 0x408, symBinAddr: 0x2C7954, symSize: 0x144 }
  - { offset: 0x1D6CD1, size: 0x8, addend: 0x0, symName: __ZN12RLMClassInfo14linkTargetTypeEm, symObjAddr: 0x54C, symBinAddr: 0x2C7A98, symSize: 0xC0 }
  - { offset: 0x1D6D50, size: 0x8, addend: 0x0, symName: __ZN12RLMClassInfo14linkTargetTypeERKN5realm8PropertyE, symObjAddr: 0x60C, symBinAddr: 0x2C7B58, symSize: 0x64 }
  - { offset: 0x1D6E19, size: 0x8, addend: 0x0, symName: __ZN12RLMClassInfo7resolveEP8RLMRealm, symObjAddr: 0x670, symBinAddr: 0x2C7BBC, symSize: 0x60 }
  - { offset: 0x1D6E2A, size: 0x8, addend: 0x0, symName: __ZN12RLMClassInfo7resolveEP8RLMRealm, symObjAddr: 0x670, symBinAddr: 0x2C7BBC, symSize: 0x60 }
  - { offset: 0x1D6E6F, size: 0x8, addend: 0x0, symName: __ZNK12RLMClassInfo12isSwiftClassEv, symObjAddr: 0x6D0, symBinAddr: 0x2C7C1C, symSize: 0x1C }
  - { offset: 0x1D6EAE, size: 0x8, addend: 0x0, symName: __ZNK12RLMClassInfo9isDynamicEv, symObjAddr: 0x6EC, symBinAddr: 0x2C7C38, symSize: 0x10 }
  - { offset: 0x1D6ED4, size: 0x8, addend: 0x0, symName: __ZNK12RLMClassInfo9isDynamicEv, symObjAddr: 0x6EC, symBinAddr: 0x2C7C38, symSize: 0x10 }
  - { offset: 0x1D7B68, size: 0x8, addend: 0x0, symName: __ZNK12RLMClassInfo27keyPathArrayFromStringArrayEP7NSArrayIP8NSStringE, symObjAddr: 0x6FC, symBinAddr: 0x2C7C48, symSize: 0x79C }
  - { offset: 0x1D8D88, size: 0x8, addend: 0x0, symName: __ZNKSt3__16vectorINS0_INS_4pairIN5realm8TableKeyENS2_6ColKeyEEENS_9allocatorIS5_EEEENS6_IS8_EEE20__throw_length_errorB8ne180100Ev, symObjAddr: 0x143C, symBinAddr: 0x2C8988, symSize: 0x14 }
  - { offset: 0x1D8DAB, size: 0x8, addend: 0x0, symName: __ZNSt3__16vectorINS0_INS_4pairIN5realm8TableKeyENS2_6ColKeyEEENS_9allocatorIS5_EEEENS6_IS8_EEE16__destroy_vectorclB8ne180100Ev, symObjAddr: 0x13A8, symBinAddr: 0x2C88F4, symSize: 0x40 }
  - { offset: 0x1D8EAE, size: 0x8, addend: 0x0, symName: __ZN13RLMSchemaInfo5beginEv, symObjAddr: 0xE98, symBinAddr: 0x2C83E4, symSize: 0x8 }
  - { offset: 0x1D8EDA, size: 0x8, addend: 0x0, symName: __ZN13RLMSchemaInfo5beginEv, symObjAddr: 0xE98, symBinAddr: 0x2C83E4, symSize: 0x8 }
  - { offset: 0x1D8EF7, size: 0x8, addend: 0x0, symName: __ZN13RLMSchemaInfo5beginEv, symObjAddr: 0xE98, symBinAddr: 0x2C83E4, symSize: 0x8 }
  - { offset: 0x1D8F14, size: 0x8, addend: 0x0, symName: __ZN13RLMSchemaInfo3endEv, symObjAddr: 0xEA0, symBinAddr: 0x2C83EC, symSize: 0x8 }
  - { offset: 0x1D8F70, size: 0x8, addend: 0x0, symName: __ZNK13RLMSchemaInfo5beginEv, symObjAddr: 0xEA8, symBinAddr: 0x2C83F4, symSize: 0x8 }
  - { offset: 0x1D8F9C, size: 0x8, addend: 0x0, symName: __ZNK13RLMSchemaInfo5beginEv, symObjAddr: 0xEA8, symBinAddr: 0x2C83F4, symSize: 0x8 }
  - { offset: 0x1D8FB9, size: 0x8, addend: 0x0, symName: __ZNK13RLMSchemaInfo5beginEv, symObjAddr: 0xEA8, symBinAddr: 0x2C83F4, symSize: 0x8 }
  - { offset: 0x1D8FD6, size: 0x8, addend: 0x0, symName: __ZNK13RLMSchemaInfo3endEv, symObjAddr: 0xEB0, symBinAddr: 0x2C83FC, symSize: 0x8 }
  - { offset: 0x1D9021, size: 0x8, addend: 0x0, symName: __ZN13RLMSchemaInfoixEN5realm8TableKeyE, symObjAddr: 0xEB8, symBinAddr: 0x2C8404, symSize: 0x2C }
  - { offset: 0x1D9056, size: 0x8, addend: 0x0, symName: __ZN13RLMSchemaInfoixEN5realm8TableKeyE, symObjAddr: 0xEB8, symBinAddr: 0x2C8404, symSize: 0x2C }
  - { offset: 0x1D9090, size: 0x8, addend: 0x0, symName: __ZN13RLMSchemaInfoixEN5realm8TableKeyE, symObjAddr: 0xEB8, symBinAddr: 0x2C8404, symSize: 0x2C }
  - { offset: 0x1D90AD, size: 0x8, addend: 0x0, symName: __ZN13RLMSchemaInfoixEN5realm8TableKeyE, symObjAddr: 0xEB8, symBinAddr: 0x2C8404, symSize: 0x2C }
  - { offset: 0x1D9C03, size: 0x8, addend: 0x0, symName: __ZN13RLMSchemaInfoC2EP8RLMRealm, symObjAddr: 0xEE4, symBinAddr: 0x2C8430, symSize: 0x314 }
  - { offset: 0x1DA5C8, size: 0x8, addend: 0x0, symName: __ZNSt3__112__hash_tableINS_17__hash_value_typeIU8__strongP8NSString12RLMClassInfoEENS_22__unordered_map_hasherIS4_S6_NS_4hashIS4_EENS_8equal_toIS4_EELb1EEENS_21__unordered_map_equalIS4_S6_SB_S9_Lb1EEENS_9allocatorIS6_EEE8__rehashILb1EEEvm, symObjAddr: 0x1570, symBinAddr: 0x2C8A80, symSize: 0xDC }
  - { offset: 0x1DA6C4, size: 0x8, addend: 0x0, symName: __ZNSt3__112__hash_tableINS_17__hash_value_typeIU8__strongP8NSString12RLMClassInfoEENS_22__unordered_map_hasherIS4_S6_NS_4hashIS4_EENS_8equal_toIS4_EELb1EEENS_21__unordered_map_equalIS4_S6_SB_S9_Lb1EEENS_9allocatorIS6_EEE20__node_insert_uniqueEPNS_11__hash_nodeIS6_PvEE, symObjAddr: 0x17A4, symBinAddr: 0x2C8CB4, symSize: 0x6C }
  - { offset: 0x1DA78D, size: 0x8, addend: 0x0, symName: __ZNSt3__110unique_ptrINS_11__hash_nodeINS_17__hash_value_typeIU8__strongP8NSString12RLMClassInfoEEPvEENS_22__hash_node_destructorINS_9allocatorIS9_EEEEE5resetB8ne180100EPS9_, symObjAddr: 0x1A0C, symBinAddr: 0x2C8F1C, symSize: 0x44 }
  - { offset: 0x1DA91B, size: 0x8, addend: 0x0, symName: __ZNSt3__112__hash_tableINS_17__hash_value_typeIU8__strongP8NSString12RLMClassInfoEENS_22__unordered_map_hasherIS4_S6_NS_4hashIS4_EENS_8equal_toIS4_EELb1EEENS_21__unordered_map_equalIS4_S6_SB_S9_Lb1EEENS_9allocatorIS6_EEED2Ev, symObjAddr: 0x148C, symBinAddr: 0x2C899C, symSize: 0x38 }
  - { offset: 0x1DAAA1, size: 0x8, addend: 0x0, symName: __ZN13RLMSchemaInfoC1EP8RLMRealm, symObjAddr: 0x11F8, symBinAddr: 0x2C8744, symSize: 0x4 }
  - { offset: 0x1DAADD, size: 0x8, addend: 0x0, symName: __ZN13RLMSchemaInfoC1EP8RLMRealm, symObjAddr: 0x11F8, symBinAddr: 0x2C8744, symSize: 0x4 }
  - { offset: 0x1DAFB4, size: 0x8, addend: 0x0, symName: __ZN13RLMSchemaInfo5cloneERKN5realm6SchemaEP8RLMRealm, symObjAddr: 0x11FC, symBinAddr: 0x2C8748, symSize: 0xF0 }
  - { offset: 0x1DB64C, size: 0x8, addend: 0x0, symName: __ZNSt3__112__hash_tableINS_17__hash_value_typeIU8__strongP8NSString12RLMClassInfoEENS_22__unordered_map_hasherIS4_S6_NS_4hashIS4_EENS_8equal_toIS4_EELb1EEENS_21__unordered_map_equalIS4_S6_SB_S9_Lb1EEENS_9allocatorIS6_EEE21__emplace_unique_implIJRKNS_21piecewise_construct_tENS_5tupleIJRU8__strongKS3_EEENSM_IJRKP8RLMRealmRKP15RLMObjectSchemaOPKN5realm12ObjectSchemaEEEEEEENS_4pairINS_15__hash_iteratorIPNS_11__hash_nodeIS6_PvEEEEbEEDpOT_, symObjAddr: 0x1A50, symBinAddr: 0x2C8F60, symSize: 0x74 }
  - { offset: 0x1DBBC1, size: 0x8, addend: 0x0, symName: __ZN13RLMSchemaInfo25appendDynamicObjectSchemaENSt3__110unique_ptrIN5realm12ObjectSchemaENS0_14default_deleteIS3_EEEEP15RLMObjectSchemaP8RLMRealm, symObjAddr: 0x12EC, symBinAddr: 0x2C8838, symSize: 0xBC }
  - { offset: 0x1DBE10, size: 0x8, addend: 0x0, symName: __ZNSt3__112__hash_tableINS_17__hash_value_typeIU8__strongP8NSString12RLMClassInfoEENS_22__unordered_map_hasherIS4_S6_NS_4hashIS4_EENS_8equal_toIS4_EELb1EEENS_21__unordered_map_equalIS4_S6_SB_S9_Lb1EEENS_9allocatorIS6_EEE21__emplace_unique_implIJRKNS_21piecewise_construct_tENS_5tupleIJOS4_EEENSM_IJRKP8RLMRealmRU8__strongP15RLMObjectSchemaONS_10unique_ptrIN5realm12ObjectSchemaENS_14default_deleteISZ_EEEEEEEEEENS_4pairINS_15__hash_iteratorIPNS_11__hash_nodeIS6_PvEEEEbEEDpOT_, symObjAddr: 0x1B70, symBinAddr: 0x2C9080, symSize: 0x74 }
  - { offset: 0x1DBF9A, size: 0x8, addend: 0x0, symName: __ZNSt3__16vectorINS0_INS_4pairIN5realm8TableKeyENS2_6ColKeyEEENS_9allocatorIS5_EEEENS6_IS8_EEE7__clearB8ne180100Ev, symObjAddr: 0x13E8, symBinAddr: 0x2C8934, symSize: 0x54 }
  - { offset: 0x1DC2B0, size: 0x8, addend: 0x0, symName: __ZNSt3__112__hash_tableINS_17__hash_value_typeIU8__strongP8NSString12RLMClassInfoEENS_22__unordered_map_hasherIS4_S6_NS_4hashIS4_EENS_8equal_toIS4_EELb1EEENS_21__unordered_map_equalIS4_S6_SB_S9_Lb1EEENS_9allocatorIS6_EEE17__deallocate_nodeEPNS_16__hash_node_baseIPNS_11__hash_nodeIS6_PvEEEE, symObjAddr: 0x14C4, symBinAddr: 0x2C89D4, symSize: 0x3C }
  - { offset: 0x1DC63E, size: 0x8, addend: 0x0, symName: __ZNSt3__110unique_ptrIN5realm12ObjectSchemaENS_14default_deleteIS2_EEE5resetB8ne180100EPS2_, symObjAddr: 0x1544, symBinAddr: 0x2C8A54, symSize: 0x2C }
  - { offset: 0x1DC6CB, size: 0x8, addend: 0x0, symName: __ZNSt3__112__hash_tableINS_17__hash_value_typeIU8__strongP8NSString12RLMClassInfoEENS_22__unordered_map_hasherIS4_S6_NS_4hashIS4_EENS_8equal_toIS4_EELb1EEENS_21__unordered_map_equalIS4_S6_SB_S9_Lb1EEENS_9allocatorIS6_EEE11__do_rehashILb1EEEvm, symObjAddr: 0x164C, symBinAddr: 0x2C8B5C, symSize: 0x158 }
  - { offset: 0x1DCB96, size: 0x8, addend: 0x0, symName: __ZNSt3__112__hash_tableINS_17__hash_value_typeIU8__strongP8NSString12RLMClassInfoEENS_22__unordered_map_hasherIS4_S6_NS_4hashIS4_EENS_8equal_toIS4_EELb1EEENS_21__unordered_map_equalIS4_S6_SB_S9_Lb1EEENS_9allocatorIS6_EEE20__node_insert_uniqueEPNS_11__hash_nodeIS6_PvEE, symObjAddr: 0x17A4, symBinAddr: 0x2C8CB4, symSize: 0x6C }
  - { offset: 0x1DCC31, size: 0x8, addend: 0x0, symName: __ZNSt3__112__hash_tableINS_17__hash_value_typeIU8__strongP8NSString12RLMClassInfoEENS_22__unordered_map_hasherIS4_S6_NS_4hashIS4_EENS_8equal_toIS4_EELb1EEENS_21__unordered_map_equalIS4_S6_SB_S9_Lb1EEENS_9allocatorIS6_EEE28__node_insert_unique_prepareB8ne180100EmRS6_, symObjAddr: 0x1810, symBinAddr: 0x2C8D20, symSize: 0x144 }
  - { offset: 0x1DCE40, size: 0x8, addend: 0x0, symName: __ZNSt3__112__hash_tableINS_17__hash_value_typeIU8__strongP8NSString12RLMClassInfoEENS_22__unordered_map_hasherIS4_S6_NS_4hashIS4_EENS_8equal_toIS4_EELb1EEENS_21__unordered_map_equalIS4_S6_SB_S9_Lb1EEENS_9allocatorIS6_EEE28__node_insert_unique_performB8ne180100EPNS_11__hash_nodeIS6_PvEE, symObjAddr: 0x1954, symBinAddr: 0x2C8E64, symSize: 0xB8 }
  - { offset: 0x1DCEA9, size: 0x8, addend: 0x0, symName: __ZNSt3__112__hash_tableINS_17__hash_value_typeIU8__strongP8NSString12RLMClassInfoEENS_22__unordered_map_hasherIS4_S6_NS_4hashIS4_EENS_8equal_toIS4_EELb1EEENS_21__unordered_map_equalIS4_S6_SB_S9_Lb1EEENS_9allocatorIS6_EEE28__node_insert_unique_performB8ne180100EPNS_11__hash_nodeIS6_PvEE, symObjAddr: 0x1954, symBinAddr: 0x2C8E64, symSize: 0xB8 }
  - { offset: 0x1DCEC7, size: 0x8, addend: 0x0, symName: __ZNSt3__112__hash_tableINS_17__hash_value_typeIU8__strongP8NSString12RLMClassInfoEENS_22__unordered_map_hasherIS4_S6_NS_4hashIS4_EENS_8equal_toIS4_EELb1EEENS_21__unordered_map_equalIS4_S6_SB_S9_Lb1EEENS_9allocatorIS6_EEE28__node_insert_unique_performB8ne180100EPNS_11__hash_nodeIS6_PvEE, symObjAddr: 0x1954, symBinAddr: 0x2C8E64, symSize: 0xB8 }
  - { offset: 0x1DD045, size: 0x8, addend: 0x0, symName: __ZNSt3__112__hash_tableINS_17__hash_value_typeIU8__strongP8NSString12RLMClassInfoEENS_22__unordered_map_hasherIS4_S6_NS_4hashIS4_EENS_8equal_toIS4_EELb1EEENS_21__unordered_map_equalIS4_S6_SB_S9_Lb1EEENS_9allocatorIS6_EEE16__construct_nodeIJRKNS_21piecewise_construct_tENS_5tupleIJRU8__strongKS3_EEENSM_IJRKP8RLMRealmRKP15RLMObjectSchemaOPKN5realm12ObjectSchemaEEEEEEENS_10unique_ptrINS_11__hash_nodeIS6_PvEENS_22__hash_node_destructorINSF_IS17_EEEEEEDpOT_, symObjAddr: 0x1AC4, symBinAddr: 0x2C8FD4, symSize: 0xAC }
  - { offset: 0x1DD793, size: 0x8, addend: 0x0, symName: __ZNSt3__112__hash_tableINS_17__hash_value_typeIU8__strongP8NSString12RLMClassInfoEENS_22__unordered_map_hasherIS4_S6_NS_4hashIS4_EENS_8equal_toIS4_EELb1EEENS_21__unordered_map_equalIS4_S6_SB_S9_Lb1EEENS_9allocatorIS6_EEE16__construct_nodeIJRKNS_21piecewise_construct_tENS_5tupleIJOS4_EEENSM_IJRKP8RLMRealmRU8__strongP15RLMObjectSchemaONS_10unique_ptrIN5realm12ObjectSchemaENS_14default_deleteISZ_EEEEEEEEEENSX_INS_11__hash_nodeIS6_PvEENS_22__hash_node_destructorINSF_IS17_EEEEEEDpOT_, symObjAddr: 0x1BE4, symBinAddr: 0x2C90F4, symSize: 0xB4 }
  - { offset: 0x1DFCE3, size: 0x8, addend: 0x0, symName: '-[RLMFastEnumerator initWithBackingCollection:collection:classInfo:parentInfo:property:]', symObjAddr: 0x0, symBinAddr: 0x2C91A8, symSize: 0x1BC }
  - { offset: 0x1EA95D, size: 0x8, addend: 0x0, symName: __ZN5realm5_impl9box_mixedI18RLMAccessorContextEEDaRT_RKNS_12object_store10CollectionERKNS_11PathElementENS_5MixedE, symObjAddr: 0x3904, symBinAddr: 0x2CCAAC, symSize: 0xD8 }
  - { offset: 0x233CB7, size: 0x8, addend: 0x0, symName: __ZNSt3__119__allocate_at_leastB8ne180100INS_9allocatorINS_4pairINS_12basic_stringIcNS_11char_traitsIcEENS1_IcEEEEbEEEEEENS_19__allocation_resultINS_16allocator_traitsIT_E7pointerEEERSC_m, symObjAddr: 0x3FF0, symBinAddr: 0x2CD184, symSize: 0x34 }
  - { offset: 0x234A9D, size: 0x8, addend: 0x0, symName: __ZNSt3__127__tree_balance_after_insertB8ne180100IPNS_16__tree_node_baseIPvEEEEvT_S5_, symObjAddr: 0x53EC, symBinAddr: 0x2CD93C, symSize: 0x198 }
  - { offset: 0x23C7C6, size: 0x8, addend: 0x0, symName: '-[RLMFastEnumerator initWithBackingCollection:collection:classInfo:parentInfo:property:]', symObjAddr: 0x0, symBinAddr: 0x2C91A8, symSize: 0x1BC }
  - { offset: 0x23C83E, size: 0x8, addend: 0x0, symName: '-[RLMFastEnumerator initWithBackingDictionary:dictionary:classInfo:parentInfo:property:]', symObjAddr: 0x1BC, symBinAddr: 0x2C9364, symSize: 0x1BC }
  - { offset: 0x23C8B6, size: 0x8, addend: 0x0, symName: '-[RLMFastEnumerator initWithResults:collection:classInfo:]', symObjAddr: 0x378, symBinAddr: 0x2C9520, symSize: 0x130 }
  - { offset: 0x23C90E, size: 0x8, addend: 0x0, symName: '-[RLMFastEnumerator dealloc]', symObjAddr: 0x4A8, symBinAddr: 0x2C9650, symSize: 0x84 }
  - { offset: 0x23C941, size: 0x8, addend: 0x0, symName: '-[RLMFastEnumerator detach]', symObjAddr: 0x52C, symBinAddr: 0x2C96D4, symSize: 0x78 }
  - { offset: 0x23CB0A, size: 0x8, addend: 0x0, symName: '-[RLMFastEnumerator countByEnumeratingWithState:count:]', symObjAddr: 0x5A4, symBinAddr: 0x2C974C, symSize: 0x1F4 }
  - { offset: 0x23CC8B, size: 0x8, addend: 0x0, symName: __ZN5realm7Results3getI18RLMAccessorContextEEDaRT_m, symObjAddr: 0x798, symBinAddr: 0x2C9940, symSize: 0x38 }
  - { offset: 0x23CFC2, size: 0x8, addend: 0x0, symName: __ZNK5realm7Results8dispatchIZNS0_3getI18RLMAccessorContextEEDaRT_mEUlS5_E_EES4_OS5_, symObjAddr: 0x3528, symBinAddr: 0x2CC6D0, symSize: 0x2E0 }
  - { offset: 0x23D2FE, size: 0x8, addend: 0x0, symName: '-[RLMFastEnumerator .cxx_destruct]', symObjAddr: 0x7D0, symBinAddr: 0x2C9978, symSize: 0x60 }
  - { offset: 0x23D331, size: 0x8, addend: 0x0, symName: '-[RLMFastEnumerator .cxx_construct]', symObjAddr: 0x830, symBinAddr: 0x2C99D8, symSize: 0x28 }
  - { offset: 0x23D368, size: 0x8, addend: 0x0, symName: __Z16RLMFastEnumerateP22NSFastEnumerationStatemPU31objcproto20RLMCollectionPrivate11objc_object, symObjAddr: 0x858, symBinAddr: 0x2C9A00, symSize: 0xA8 }
  - { offset: 0x23D47B, size: 0x8, addend: 0x0, symName: __Z25RLMUnmanagedFastEnumerateP11objc_objectP22NSFastEnumerationState, symObjAddr: 0x900, symBinAddr: 0x2C9AA8, symSize: 0x1FC }
  - { offset: 0x23D5B3, size: 0x8, addend: 0x0, symName: __ZNKSt3__114default_deleteIA_U8__strongP11objc_objectEclB8ne180100IS3_EENS5_20_EnableIfConvertibleIT_E4typeEPS8_, symObjAddr: 0x4374, symBinAddr: 0x2CD4C8, symSize: 0x48 }
  - { offset: 0x23D650, size: 0x8, addend: 0x0, symName: '-[RLMArrayHolder .cxx_destruct]', symObjAddr: 0xAFC, symBinAddr: 0x2C9CA4, symSize: 0x18 }
  - { offset: 0x23D806, size: 0x8, addend: 0x0, symName: '-[RLMArrayHolder .cxx_construct]', symObjAddr: 0xB14, symBinAddr: 0x2C9CBC, symSize: 0x8 }
  - { offset: 0x23D83E, size: 0x8, addend: 0x0, symName: '-[RLMArrayHolder .cxx_construct]', symObjAddr: 0xB14, symBinAddr: 0x2C9CBC, symSize: 0x8 }
  - { offset: 0x23D85D, size: 0x8, addend: 0x0, symName: '-[RLMArrayHolder .cxx_construct]', symObjAddr: 0xB14, symBinAddr: 0x2C9CBC, symSize: 0x8 }
  - { offset: 0x23D87D, size: 0x8, addend: 0x0, symName: '-[RLMArrayHolder .cxx_construct]', symObjAddr: 0xB14, symBinAddr: 0x2C9CBC, symSize: 0x8 }
  - { offset: 0x23D89D, size: 0x8, addend: 0x0, symName: '-[RLMArrayHolder .cxx_construct]', symObjAddr: 0xB14, symBinAddr: 0x2C9CBC, symSize: 0x8 }
  - { offset: 0x23D8BC, size: 0x8, addend: 0x0, symName: '-[RLMArrayHolder .cxx_construct]', symObjAddr: 0xB14, symBinAddr: 0x2C9CBC, symSize: 0x8 }
  - { offset: 0x23D8F8, size: 0x8, addend: 0x0, symName: __Z17columnForPropertyP8NSStringRKN5realm12object_store10CollectionEP12RLMClassInfo15RLMPropertyType17RLMCollectionType, symObjAddr: 0xB1C, symBinAddr: 0x2C9CC4, symSize: 0x11C }
  - { offset: 0x23D9DD, size: 0x8, addend: 0x0, symName: __ZL15RLMTypeToString15RLMPropertyType, symObjAddr: 0xC38, symBinAddr: 0x2C9DE0, symSize: 0x24 }
  - { offset: 0x23D9FC, size: 0x8, addend: 0x0, symName: __Z24RLMCollectionValueForKeyIN5realm7ResultsEEP7NSArrayRT_P8NSStringR12RLMClassInfo, symObjAddr: 0xC5C, symBinAddr: 0x2C9E04, symSize: 0x540 }
  - { offset: 0x23DF08, size: 0x8, addend: 0x0, symName: __Z24RLMCollectionValueForKeyIN5realm4ListEEP7NSArrayRT_P8NSStringR12RLMClassInfo, symObjAddr: 0x119C, symBinAddr: 0x2CA344, symSize: 0x53C }
  - { offset: 0x23E423, size: 0x8, addend: 0x0, symName: __ZNK5realm4List3getI18RLMAccessorContextEEDaRT_m, symObjAddr: 0x16D8, symBinAddr: 0x2CA880, symSize: 0xE8 }
  - { offset: 0x23EB82, size: 0x8, addend: 0x0, symName: __ZNK5realm4List8dispatchIZNKS0_3getI18RLMAccessorContextEEDaRT_mEUlS5_E_EES4_OS5_, symObjAddr: 0x39DC, symBinAddr: 0x2CCB84, symSize: 0x300 }
  - { offset: 0x23EEF4, size: 0x8, addend: 0x0, symName: __Z24RLMCollectionValueForKeyIN5realm12object_store3SetEEP7NSArrayRT_P8NSStringR12RLMClassInfo, symObjAddr: 0x17C0, symBinAddr: 0x2CA968, symSize: 0x53C }
  - { offset: 0x23F40F, size: 0x8, addend: 0x0, symName: __ZNK5realm12object_store3Set3getI18RLMAccessorContextEEDaRT_m, symObjAddr: 0x1CFC, symBinAddr: 0x2CAEA4, symSize: 0x38 }
  - { offset: 0x23F719, size: 0x8, addend: 0x0, symName: __ZNK5realm12object_store3Set8dispatchIZNKS1_3getI18RLMAccessorContextEEDaRT_mEUlS6_E_EES5_OS6_, symObjAddr: 0x3CDC, symBinAddr: 0x2CCE84, symSize: 0x300 }
  - { offset: 0x23FAFD, size: 0x8, addend: 0x0, symName: __Z27RLMCollectionSetValueForKeyPU31objcproto20RLMCollectionPrivate11objc_objectP8NSStringP11objc_object, symObjAddr: 0x1D34, symBinAddr: 0x2CAEDC, symSize: 0x1C0 }
  - { offset: 0x23FC81, size: 0x8, addend: 0x0, symName: _RLMAssignToCollection, symObjAddr: 0x1EF4, symBinAddr: 0x2CB09C, symSize: 0x8 }
  - { offset: 0x23FCD6, size: 0x8, addend: 0x0, symName: _RLMDescriptionWithMaxDepth, symObjAddr: 0x1EFC, symBinAddr: 0x2CB0A4, symSize: 0x37C }
  - { offset: 0x2403F9, size: 0x8, addend: 0x0, symName: __Z32RLMSortDescriptorsToKeypathArrayP7NSArrayIP17RLMSortDescriptorE, symObjAddr: 0x2278, symBinAddr: 0x2CB420, symSize: 0x470 }
  - { offset: 0x24133B, size: 0x8, addend: 0x0, symName: __ZNSt3__114__split_bufferINS_4pairINS_12basic_stringIcNS_11char_traitsIcEENS_9allocatorIcEEEEbEERNS5_IS8_EEED2Ev, symObjAddr: 0x4024, symBinAddr: 0x2CD1B8, symSize: 0x60 }
  - { offset: 0x2415E6, size: 0x8, addend: 0x0, symName: __ZNSt3__16vectorINS_4pairINS_12basic_stringIcNS_11char_traitsIcEENS_9allocatorIcEEEEbEENS5_IS8_EEE16__destroy_vectorclB8ne180100Ev, symObjAddr: 0x4084, symBinAddr: 0x2CD218, symSize: 0x40 }
  - { offset: 0x2419B1, size: 0x8, addend: 0x0, symName: '-[RLMCollectionChange initWithChanges:]', symObjAddr: 0x26E8, symBinAddr: 0x2CB890, symSize: 0x168 }
  - { offset: 0x241F3D, size: 0x8, addend: 0x0, symName: __ZNSt3__16vectorIN5realm5_impl18ChunkedRangeVector5ChunkENS_9allocatorIS4_EEE13__vdeallocateEv, symObjAddr: 0x4110, symBinAddr: 0x2CD2A4, symSize: 0x38 }
  - { offset: 0x242047, size: 0x8, addend: 0x0, symName: __ZNSt3__112__hash_tableINS_17__hash_value_typeIxN5realm8IndexSetEEENS_22__unordered_map_hasherIxS4_NS_4hashIxEENS_8equal_toIxEELb1EEENS_21__unordered_map_equalIxS4_S9_S7_Lb1EEENS_9allocatorIS4_EEE13__move_assignERSF_NS_17integral_constantIbLb1EEE, symObjAddr: 0x419C, symBinAddr: 0x2CD330, symSize: 0xD4 }
  - { offset: 0x2423EB, size: 0x8, addend: 0x0, symName: '-[RLMCollectionChange insertions]', symObjAddr: 0x2850, symBinAddr: 0x2CB9F8, symSize: 0x8 }
  - { offset: 0x242430, size: 0x8, addend: 0x0, symName: __ZL7toArrayRKN5realm8IndexSetE, symObjAddr: 0x2858, symBinAddr: 0x2CBA00, symSize: 0x124 }
  - { offset: 0x242816, size: 0x8, addend: 0x0, symName: '-[RLMCollectionChange deletions]', symObjAddr: 0x297C, symBinAddr: 0x2CBB24, symSize: 0x8 }
  - { offset: 0x24285C, size: 0x8, addend: 0x0, symName: '-[RLMCollectionChange modifications]', symObjAddr: 0x2984, symBinAddr: 0x2CBB2C, symSize: 0x8 }
  - { offset: 0x2428A2, size: 0x8, addend: 0x0, symName: '-[RLMCollectionChange deletionsInSection:]', symObjAddr: 0x298C, symBinAddr: 0x2CBB34, symSize: 0xC }
  - { offset: 0x2428F8, size: 0x8, addend: 0x0, symName: __Z19RLMToIndexPathArrayRKN5realm8IndexSetEm, symObjAddr: 0x2998, symBinAddr: 0x2CBB40, symSize: 0x178 }
  - { offset: 0x242B36, size: 0x8, addend: 0x0, symName: '-[RLMCollectionChange insertionsInSection:]', symObjAddr: 0x2B10, symBinAddr: 0x2CBCB8, symSize: 0xC }
  - { offset: 0x242B8C, size: 0x8, addend: 0x0, symName: '-[RLMCollectionChange modificationsInSection:]', symObjAddr: 0x2B1C, symBinAddr: 0x2CBCC4, symSize: 0xC }
  - { offset: 0x242BE2, size: 0x8, addend: 0x0, symName: '-[RLMCollectionChange description]', symObjAddr: 0x2B28, symBinAddr: 0x2CBCD0, symSize: 0xE8 }
  - { offset: 0x242E53, size: 0x8, addend: 0x0, symName: '-[RLMCollectionChange .cxx_destruct]', symObjAddr: 0x2C10, symBinAddr: 0x2CBDB8, symSize: 0x88 }
  - { offset: 0x2434A5, size: 0x8, addend: 0x0, symName: __ZNSt3__112__hash_tableINS_17__hash_value_typeIxN5realm8IndexSetEEENS_22__unordered_map_hasherIxS4_NS_4hashIxEENS_8equal_toIxEELb1EEENS_21__unordered_map_equalIxS4_S9_S7_Lb1EEENS_9allocatorIS4_EEED2Ev, symObjAddr: 0x433C, symBinAddr: 0x2CD490, symSize: 0x38 }
  - { offset: 0x243621, size: 0x8, addend: 0x0, symName: __ZNSt3__16vectorIN5realm5_impl18ChunkedRangeVector5ChunkENS_9allocatorIS4_EEE16__destroy_vectorclB8ne180100Ev, symObjAddr: 0x42BC, symBinAddr: 0x2CD450, symSize: 0x40 }
  - { offset: 0x243AD0, size: 0x8, addend: 0x0, symName: '-[RLMCollectionChange .cxx_construct]', symObjAddr: 0x2C98, symBinAddr: 0x2CBE40, symSize: 0x48 }
  - { offset: 0x243B09, size: 0x8, addend: 0x0, symName: '-[RLMCollectionChange .cxx_construct]', symObjAddr: 0x2C98, symBinAddr: 0x2CBE40, symSize: 0x48 }
  - { offset: 0x243B29, size: 0x8, addend: 0x0, symName: '-[RLMCollectionChange .cxx_construct]', symObjAddr: 0x2C98, symBinAddr: 0x2CBE40, symSize: 0x48 }
  - { offset: 0x243BAB, size: 0x8, addend: 0x0, symName: '-[RLMCollectionChange .cxx_construct]', symObjAddr: 0x2C98, symBinAddr: 0x2CBE40, symSize: 0x48 }
  - { offset: 0x243BCE, size: 0x8, addend: 0x0, symName: '-[RLMCollectionChange .cxx_construct]', symObjAddr: 0x2C98, symBinAddr: 0x2CBE40, symSize: 0x48 }
  - { offset: 0x243BF0, size: 0x8, addend: 0x0, symName: '-[RLMCollectionChange .cxx_construct]', symObjAddr: 0x2C98, symBinAddr: 0x2CBE40, symSize: 0x48 }
  - { offset: 0x243C12, size: 0x8, addend: 0x0, symName: '-[RLMCollectionChange .cxx_construct]', symObjAddr: 0x2C98, symBinAddr: 0x2CBE40, symSize: 0x48 }
  - { offset: 0x243C34, size: 0x8, addend: 0x0, symName: '-[RLMCollectionChange .cxx_construct]', symObjAddr: 0x2C98, symBinAddr: 0x2CBE40, symSize: 0x48 }
  - { offset: 0x243F1C, size: 0x8, addend: 0x0, symName: '-[RLMCancellationToken realm]', symObjAddr: 0x2CE0, symBinAddr: 0x2CBE88, symSize: 0x58 }
  - { offset: 0x244044, size: 0x8, addend: 0x0, symName: '-[RLMCancellationToken suppressNextNotification]', symObjAddr: 0x2D38, symBinAddr: 0x2CBEE0, symSize: 0x70 }
  - { offset: 0x244261, size: 0x8, addend: 0x0, symName: '-[RLMCancellationToken invalidate]', symObjAddr: 0x2DA8, symBinAddr: 0x2CBF50, symSize: 0xA8 }
  - { offset: 0x24462B, size: 0x8, addend: 0x0, symName: _RLMAddNotificationBlock, symObjAddr: 0x2E50, symBinAddr: 0x2CBFF8, symSize: 0x3E0 }
  - { offset: 0x244AB8, size: 0x8, addend: 0x0, symName: ___RLMAddNotificationBlock_block_invoke, symObjAddr: 0x3230, symBinAddr: 0x2CC3D8, symSize: 0x184 }
  - { offset: 0x244FB9, size: 0x8, addend: 0x0, symName: ___copy_helper_block_ea8_32s40s48s56s64s72s, symObjAddr: 0x33B4, symBinAddr: 0x2CC55C, symSize: 0x48 }
  - { offset: 0x244FDE, size: 0x8, addend: 0x0, symName: ___destroy_helper_block_ea8_32s40s48s56s64s72s, symObjAddr: 0x33FC, symBinAddr: 0x2CC5A4, symSize: 0x48 }
  - { offset: 0x245423, size: 0x8, addend: 0x0, symName: __Z31RLMWrapCollectionChangeCallbackU13block_pointerFvP11objc_objectS0_P7NSErrorES0_b, symObjAddr: 0x3444, symBinAddr: 0x2CC5EC, symSize: 0xB4 }
  - { offset: 0x24573F, size: 0x8, addend: 0x0, symName: '-[RLMCancellationToken .cxx_destruct]', symObjAddr: 0x34F8, symBinAddr: 0x2CC6A0, symSize: 0x10 }
  - { offset: 0x2457A7, size: 0x8, addend: 0x0, symName: '-[RLMCancellationToken .cxx_construct]', symObjAddr: 0x3508, symBinAddr: 0x2CC6B0, symSize: 0x20 }
  - { offset: 0x245CA0, size: 0x8, addend: 0x0, symName: __ZZN5realm7Results3getI18RLMAccessorContextEEDaRT_mENKUlS4_E_clIPNS_5MixedEEES3_S4_, symObjAddr: 0x3808, symBinAddr: 0x2CC9B0, symSize: 0xFC }
  - { offset: 0x24659A, size: 0x8, addend: 0x0, symName: __ZNSt3__16vectorINS_4pairINS_12basic_stringIcNS_11char_traitsIcEENS_9allocatorIcEEEEbEENS5_IS8_EEE7__clearB8ne180100Ev, symObjAddr: 0x40C4, symBinAddr: 0x2CD258, symSize: 0x4C }
  - { offset: 0x24681E, size: 0x8, addend: 0x0, symName: __ZNSt3__16vectorIN5realm5_impl18ChunkedRangeVector5ChunkENS_9allocatorIS4_EEE7__clearB8ne180100Ev, symObjAddr: 0x4148, symBinAddr: 0x2CD2DC, symSize: 0x54 }
  - { offset: 0x246D8E, size: 0x8, addend: 0x0, symName: __ZNSt3__112__hash_tableINS_17__hash_value_typeIxN5realm8IndexSetEEENS_22__unordered_map_hasherIxS4_NS_4hashIxEENS_8equal_toIxEELb1EEENS_21__unordered_map_equalIxS4_S9_S7_Lb1EEENS_9allocatorIS4_EEE17__deallocate_nodeEPNS_16__hash_node_baseIPNS_11__hash_nodeIS4_PvEEEE, symObjAddr: 0x4270, symBinAddr: 0x2CD404, symSize: 0x4C }
  - { offset: 0x2471E1, size: 0x8, addend: 0x0, symName: __ZNSt3__120__shared_ptr_emplaceIN5realm24CollectionChangeCallback4ImplIN12_GLOBAL__N_125CollectionCallbackWrapperEEENS_9allocatorIS6_EEED1Ev, symObjAddr: 0x43BC, symBinAddr: 0x2CD510, symSize: 0x10 }
  - { offset: 0x247205, size: 0x8, addend: 0x0, symName: __ZNSt3__120__shared_ptr_emplaceIN5realm24CollectionChangeCallback4ImplIN12_GLOBAL__N_125CollectionCallbackWrapperEEENS_9allocatorIS6_EEED1Ev, symObjAddr: 0x43BC, symBinAddr: 0x2CD510, symSize: 0x10 }
  - { offset: 0x24723C, size: 0x8, addend: 0x0, symName: __ZNSt3__120__shared_ptr_emplaceIN5realm24CollectionChangeCallback4ImplIN12_GLOBAL__N_125CollectionCallbackWrapperEEENS_9allocatorIS6_EEED0Ev, symObjAddr: 0x43CC, symBinAddr: 0x2CD520, symSize: 0x20 }
  - { offset: 0x24730F, size: 0x8, addend: 0x0, symName: __ZNSt3__120__shared_ptr_emplaceIN5realm24CollectionChangeCallback4ImplIN12_GLOBAL__N_125CollectionCallbackWrapperEEENS_9allocatorIS6_EEE16__on_zero_sharedEv, symObjAddr: 0x43EC, symBinAddr: 0x2CD540, symSize: 0xC }
  - { offset: 0x247339, size: 0x8, addend: 0x0, symName: __ZNSt3__120__shared_ptr_emplaceIN5realm24CollectionChangeCallback4ImplIN12_GLOBAL__N_125CollectionCallbackWrapperEEENS_9allocatorIS6_EEE16__on_zero_sharedEv, symObjAddr: 0x43EC, symBinAddr: 0x2CD540, symSize: 0xC }
  - { offset: 0x247359, size: 0x8, addend: 0x0, symName: __ZNSt3__120__shared_ptr_emplaceIN5realm24CollectionChangeCallback4ImplIN12_GLOBAL__N_125CollectionCallbackWrapperEEENS_9allocatorIS6_EEE16__on_zero_sharedEv, symObjAddr: 0x43EC, symBinAddr: 0x2CD540, symSize: 0xC }
  - { offset: 0x247379, size: 0x8, addend: 0x0, symName: __ZNSt3__120__shared_ptr_emplaceIN5realm24CollectionChangeCallback4ImplIN12_GLOBAL__N_125CollectionCallbackWrapperEEENS_9allocatorIS6_EEE16__on_zero_sharedEv, symObjAddr: 0x43EC, symBinAddr: 0x2CD540, symSize: 0xC }
  - { offset: 0x247402, size: 0x8, addend: 0x0, symName: __ZNSt3__120__shared_ptr_emplaceIN5realm24CollectionChangeCallback4ImplIN12_GLOBAL__N_125CollectionCallbackWrapperEEENS_9allocatorIS6_EEE21__on_zero_shared_weakEv, symObjAddr: 0x43F8, symBinAddr: 0x2CD54C, symSize: 0x4 }
  - { offset: 0x247437, size: 0x8, addend: 0x0, symName: __ZNSt3__120__shared_ptr_emplaceIN5realm24CollectionChangeCallback4ImplIN12_GLOBAL__N_125CollectionCallbackWrapperEEENS_9allocatorIS6_EEE21__on_zero_shared_weakEv, symObjAddr: 0x43F8, symBinAddr: 0x2CD54C, symSize: 0x4 }
  - { offset: 0x24745C, size: 0x8, addend: 0x0, symName: __ZNSt3__120__shared_ptr_emplaceIN5realm24CollectionChangeCallback4ImplIN12_GLOBAL__N_125CollectionCallbackWrapperEEENS_9allocatorIS6_EEE21__on_zero_shared_weakEv, symObjAddr: 0x43F8, symBinAddr: 0x2CD54C, symSize: 0x4 }
  - { offset: 0x247481, size: 0x8, addend: 0x0, symName: __ZNSt3__120__shared_ptr_emplaceIN5realm24CollectionChangeCallback4ImplIN12_GLOBAL__N_125CollectionCallbackWrapperEEENS_9allocatorIS6_EEE21__on_zero_shared_weakEv, symObjAddr: 0x43F8, symBinAddr: 0x2CD54C, symSize: 0x4 }
  - { offset: 0x2474B1, size: 0x8, addend: 0x0, symName: __ZNSt3__120__shared_ptr_emplaceIN5realm24CollectionChangeCallback4ImplIN12_GLOBAL__N_125CollectionCallbackWrapperEEENS_9allocatorIS6_EEE21__on_zero_shared_weakEv, symObjAddr: 0x43F8, symBinAddr: 0x2CD54C, symSize: 0x4 }
  - { offset: 0x2474DB, size: 0x8, addend: 0x0, symName: __ZNSt3__120__shared_ptr_emplaceIN5realm24CollectionChangeCallback4ImplIN12_GLOBAL__N_125CollectionCallbackWrapperEEENS_9allocatorIS6_EEE21__on_zero_shared_weakEv, symObjAddr: 0x43F8, symBinAddr: 0x2CD54C, symSize: 0x4 }
  - { offset: 0x247523, size: 0x8, addend: 0x0, symName: __ZN5realm24CollectionChangeCallback4ImplIN12_GLOBAL__N_125CollectionCallbackWrapperEED1Ev, symObjAddr: 0x43FC, symBinAddr: 0x2CD550, symSize: 0x30 }
  - { offset: 0x2475C1, size: 0x8, addend: 0x0, symName: __ZN5realm24CollectionChangeCallback4ImplIN12_GLOBAL__N_125CollectionCallbackWrapperEED0Ev, symObjAddr: 0x442C, symBinAddr: 0x2CD580, symSize: 0x30 }
  - { offset: 0x24766B, size: 0x8, addend: 0x0, symName: __ZN5realm24CollectionChangeCallback4ImplIN12_GLOBAL__N_125CollectionCallbackWrapperEE6beforeERKNS_19CollectionChangeSetE, symObjAddr: 0x445C, symBinAddr: 0x2CD5B0, symSize: 0x4 }
  - { offset: 0x2476F6, size: 0x8, addend: 0x0, symName: __ZN5realm24CollectionChangeCallback4ImplIN12_GLOBAL__N_125CollectionCallbackWrapperEE5afterERKNS_19CollectionChangeSetE, symObjAddr: 0x4460, symBinAddr: 0x2CD5B4, symSize: 0x1DC }
  - { offset: 0x2485D6, size: 0x8, addend: 0x0, symName: __ZNK5realm19CollectionChangeSet5emptyEv, symObjAddr: 0x463C, symBinAddr: 0x2CD790, symSize: 0x5C }
  - { offset: 0x248600, size: 0x8, addend: 0x0, symName: __ZNK5realm19CollectionChangeSet5emptyEv, symObjAddr: 0x463C, symBinAddr: 0x2CD790, symSize: 0x5C }
  - { offset: 0x24861D, size: 0x8, addend: 0x0, symName: __ZNK5realm19CollectionChangeSet5emptyEv, symObjAddr: 0x463C, symBinAddr: 0x2CD790, symSize: 0x5C }
  - { offset: 0x249A5E, size: 0x8, addend: 0x0, symName: __ZNSt3__113unordered_mapIxN5realm8IndexSetENS_4hashIxEENS_8equal_toIxEENS_9allocatorINS_4pairIKxS2_EEEEEC2ERKSC_, symObjAddr: 0x4CB8, symBinAddr: 0x2CD7EC, symSize: 0x74 }
  - { offset: 0x24AC89, size: 0x8, addend: 0x0, symName: __ZNSt3__112__hash_tableINS_17__hash_value_typeIxN5realm8IndexSetEEENS_22__unordered_map_hasherIxS4_NS_4hashIxEENS_8equal_toIxEELb1EEENS_21__unordered_map_equalIxS4_S9_S7_Lb1EEENS_9allocatorIS4_EEE8__rehashILb1EEEvm, symObjAddr: 0x4D2C, symBinAddr: 0x2CD860, symSize: 0xDC }
  - { offset: 0x24DF5C, size: 0x8, addend: 0x0, symName: _RLMRealmRefreshRequiredNotification, symObjAddr: 0x180, symBinAddr: 0x486080, symSize: 0x0 }
  - { offset: 0x24DF87, size: 0x8, addend: 0x0, symName: _RLMRealmDidChangeNotification, symObjAddr: 0x188, symBinAddr: 0x486088, symSize: 0x0 }
  - { offset: 0x24DF9D, size: 0x8, addend: 0x0, symName: _RLMExceptionName, symObjAddr: 0x190, symBinAddr: 0x486090, symSize: 0x0 }
  - { offset: 0x24DFB8, size: 0x8, addend: 0x0, symName: _RLMRealmVersionKey, symObjAddr: 0x198, symBinAddr: 0x486098, symSize: 0x0 }
  - { offset: 0x24DFCE, size: 0x8, addend: 0x0, symName: _RLMRealmCoreVersionKey, symObjAddr: 0x1A0, symBinAddr: 0x4860A0, symSize: 0x0 }
  - { offset: 0x24DFE4, size: 0x8, addend: 0x0, symName: _RLMInvalidatedKey, symObjAddr: 0x1A8, symBinAddr: 0x4860A8, symSize: 0x0 }
  - { offset: 0x24DFFA, size: 0x8, addend: 0x0, symName: _RLMBackupRealmConfigurationErrorKey, symObjAddr: 0x1B0, symBinAddr: 0x4860B0, symSize: 0x0 }
  - { offset: 0x24E047, size: 0x8, addend: 0x0, symName: '-[RLMDecimal128 init]', symObjAddr: 0x0, symBinAddr: 0x2CDAD4, symSize: 0xB8 }
  - { offset: 0x251188, size: 0x8, addend: 0x0, symName: '-[RLMDecimal128 init]', symObjAddr: 0x0, symBinAddr: 0x2CDAD4, symSize: 0xB8 }
  - { offset: 0x251201, size: 0x8, addend: 0x0, symName: '-[RLMDecimal128 initWithValue:]', symObjAddr: 0xE8, symBinAddr: 0x2CDB8C, symSize: 0x7C }
  - { offset: 0x25126B, size: 0x8, addend: 0x0, symName: '-[RLMDecimal128 initWithNumber:]', symObjAddr: 0x164, symBinAddr: 0x2CDC08, symSize: 0x7C }
  - { offset: 0x251326, size: 0x8, addend: 0x0, symName: '-[RLMDecimal128 initWithString:]', symObjAddr: 0x1E0, symBinAddr: 0x2CDC84, symSize: 0xB4 }
  - { offset: 0x251404, size: 0x8, addend: 0x0, symName: '+[RLMDecimal128 decimalWithNumber:]', symObjAddr: 0x294, symBinAddr: 0x2CDD38, symSize: 0x5C }
  - { offset: 0x25144B, size: 0x8, addend: 0x0, symName: '+[RLMDecimal128 decimalWithNSDecimal:]', symObjAddr: 0x2F0, symBinAddr: 0x2CDD94, symSize: 0x98 }
  - { offset: 0x251492, size: 0x8, addend: 0x0, symName: '-[RLMDecimal128 copyWithZone:]', symObjAddr: 0x388, symBinAddr: 0x2CDE2C, symSize: 0x38 }
  - { offset: 0x25153E, size: 0x8, addend: 0x0, symName: '-[RLMDecimal128 isEqual:]', symObjAddr: 0x3DC, symBinAddr: 0x2CDE64, symSize: 0xFC }
  - { offset: 0x2515E2, size: 0x8, addend: 0x0, symName: '-[RLMDecimal128 hash]', symObjAddr: 0x4D8, symBinAddr: 0x2CDF60, symSize: 0x60 }
  - { offset: 0x251619, size: 0x8, addend: 0x0, symName: '-[RLMDecimal128 description]', symObjAddr: 0x538, symBinAddr: 0x2CDFC0, symSize: 0x4 }
  - { offset: 0x25164E, size: 0x8, addend: 0x0, symName: '-[RLMDecimal128 compare:]', symObjAddr: 0x53C, symBinAddr: 0x2CDFC4, symSize: 0x20 }
  - { offset: 0x251695, size: 0x8, addend: 0x0, symName: '-[RLMDecimal128 doubleValue]', symObjAddr: 0x55C, symBinAddr: 0x2CDFE4, symSize: 0x78 }
  - { offset: 0x2517DF, size: 0x8, addend: 0x0, symName: '-[RLMDecimal128 decimalValue]', symObjAddr: 0x5D4, symBinAddr: 0x2CE05C, symSize: 0xF0 }
  - { offset: 0x251BE5, size: 0x8, addend: 0x0, symName: '-[RLMDecimal128 stringValue]', symObjAddr: 0x6C4, symBinAddr: 0x2CE14C, symSize: 0x18C }
  - { offset: 0x25220C, size: 0x8, addend: 0x0, symName: '-[RLMDecimal128 isNaN]', symObjAddr: 0x850, symBinAddr: 0x2CE2D8, symSize: 0x8 }
  - { offset: 0x252284, size: 0x8, addend: 0x0, symName: '-[RLMDecimal128 magnitude]', symObjAddr: 0x858, symBinAddr: 0x2CE2E0, symSize: 0x54 }
  - { offset: 0x252301, size: 0x8, addend: 0x0, symName: '-[RLMDecimal128 negate]', symObjAddr: 0x8AC, symBinAddr: 0x2CE334, symSize: 0x40 }
  - { offset: 0x25233B, size: 0x8, addend: 0x0, symName: '+[RLMDecimal128 minimumDecimalNumber]', symObjAddr: 0x8EC, symBinAddr: 0x2CE374, symSize: 0x6C }
  - { offset: 0x2523A2, size: 0x8, addend: 0x0, symName: '+[RLMDecimal128 maximumDecimalNumber]', symObjAddr: 0x958, symBinAddr: 0x2CE3E0, symSize: 0x6C }
  - { offset: 0x252435, size: 0x8, addend: 0x0, symName: '-[RLMDecimal128 decimalNumberByAdding:]', symObjAddr: 0x9C4, symBinAddr: 0x2CE44C, symSize: 0xC0 }
  - { offset: 0x2524D6, size: 0x8, addend: 0x0, symName: '-[RLMDecimal128 decimalNumberByDividingBy:]', symObjAddr: 0xA84, symBinAddr: 0x2CE50C, symSize: 0xAC }
  - { offset: 0x252586, size: 0x8, addend: 0x0, symName: '-[RLMDecimal128 decimalNumberBySubtracting:]', symObjAddr: 0xB30, symBinAddr: 0x2CE5B8, symSize: 0xC0 }
  - { offset: 0x252627, size: 0x8, addend: 0x0, symName: '-[RLMDecimal128 decimalNumberByMultiplyingBy:]', symObjAddr: 0xBF0, symBinAddr: 0x2CE678, symSize: 0xAC }
  - { offset: 0x2526A9, size: 0x8, addend: 0x0, symName: '-[RLMDecimal128 isGreaterThan:]', symObjAddr: 0xC9C, symBinAddr: 0x2CE724, symSize: 0x3C }
  - { offset: 0x25270C, size: 0x8, addend: 0x0, symName: '-[RLMDecimal128 isGreaterThanOrEqualTo:]', symObjAddr: 0xCD8, symBinAddr: 0x2CE760, symSize: 0x3C }
  - { offset: 0x25276F, size: 0x8, addend: 0x0, symName: '-[RLMDecimal128 isLessThan:]', symObjAddr: 0xD14, symBinAddr: 0x2CE79C, symSize: 0x3C }
  - { offset: 0x2527D2, size: 0x8, addend: 0x0, symName: '-[RLMDecimal128 isLessThanOrEqualTo:]', symObjAddr: 0xD50, symBinAddr: 0x2CE7D8, symSize: 0x3C }
  - { offset: 0x252835, size: 0x8, addend: 0x0, symName: '-[RLMDecimal128 .cxx_construct]', symObjAddr: 0xD8C, symBinAddr: 0x2CE814, symSize: 0x28 }
  - { offset: 0x2546E9, size: 0x8, addend: 0x0, symName: '-[RLMDictionary initWithObjectClassName:keyType:]', symObjAddr: 0x0, symBinAddr: 0x2CE83C, symSize: 0xE8 }
  - { offset: 0x29C96F, size: 0x8, addend: 0x0, symName: '-[RLMDictionary initWithObjectClassName:keyType:]', symObjAddr: 0x0, symBinAddr: 0x2CE83C, symSize: 0xE8 }
  - { offset: 0x29CA66, size: 0x8, addend: 0x0, symName: '-[RLMDictionary initWithObjectType:optional:keyType:]', symObjAddr: 0xE8, symBinAddr: 0x2CE924, symSize: 0xA4 }
  - { offset: 0x29CB58, size: 0x8, addend: 0x0, symName: '-[RLMDictionary setParent:property:]', symObjAddr: 0x18C, symBinAddr: 0x2CE9C8, symSize: 0x88 }
  - { offset: 0x29CB63, size: 0x8, addend: 0x0, symName: '-[RLMDictionary setParent:property:]', symObjAddr: 0x18C, symBinAddr: 0x2CE9C8, symSize: 0x88 }
  - { offset: 0x29CBB6, size: 0x8, addend: 0x0, symName: __Z16RLMDictionaryKeyP13RLMDictionaryP11objc_object, symObjAddr: 0x214, symBinAddr: 0x2CEA50, symSize: 0x128 }
  - { offset: 0x29CC70, size: 0x8, addend: 0x0, symName: __ZL15RLMTypeToString15RLMPropertyType, symObjAddr: 0x33C, symBinAddr: 0x2CEB78, symSize: 0x24 }
  - { offset: 0x29CCD3, size: 0x8, addend: 0x0, symName: __Z18RLMDictionaryValueP13RLMDictionaryP11objc_object, symObjAddr: 0x360, symBinAddr: 0x2CEB9C, symSize: 0x270 }
  - { offset: 0x29CDB3, size: 0x8, addend: 0x0, symName: '-[RLMDictionary addNotificationBlock:]', symObjAddr: 0x5D0, symBinAddr: 0x2CEE0C, symSize: 0x68 }
  - { offset: 0x29CE2D, size: 0x8, addend: 0x0, symName: '-[RLMDictionary addNotificationBlock:queue:]', symObjAddr: 0x638, symBinAddr: 0x2CEE74, symSize: 0x90 }
  - { offset: 0x29CE91, size: 0x8, addend: 0x0, symName: '-[RLMDictionary addNotificationBlock:keyPaths:queue:]', symObjAddr: 0x6C8, symBinAddr: 0x2CEF04, symSize: 0xB0 }
  - { offset: 0x29CF05, size: 0x8, addend: 0x0, symName: '-[RLMDictionary addNotificationBlock:keyPaths:]', symObjAddr: 0x778, symBinAddr: 0x2CEFB4, symSize: 0x90 }
  - { offset: 0x29CF69, size: 0x8, addend: 0x0, symName: '-[RLMDictionary realm]', symObjAddr: 0x808, symBinAddr: 0x2CF044, symSize: 0x8 }
  - { offset: 0x29CF9C, size: 0x8, addend: 0x0, symName: '-[RLMDictionary count]', symObjAddr: 0x810, symBinAddr: 0x2CF04C, symSize: 0x8 }
  - { offset: 0x29CFD3, size: 0x8, addend: 0x0, symName: '-[RLMDictionary allKeys]', symObjAddr: 0x818, symBinAddr: 0x2CF054, symSize: 0x54 }
  - { offset: 0x29D00A, size: 0x8, addend: 0x0, symName: '-[RLMDictionary allValues]', symObjAddr: 0x86C, symBinAddr: 0x2CF0A8, symSize: 0x54 }
  - { offset: 0x29D041, size: 0x8, addend: 0x0, symName: '-[RLMDictionary objectForKey:]', symObjAddr: 0x8C0, symBinAddr: 0x2CF0FC, symSize: 0x84 }
  - { offset: 0x29D088, size: 0x8, addend: 0x0, symName: '-[RLMDictionary objectForKeyedSubscript:]', symObjAddr: 0x944, symBinAddr: 0x2CF180, symSize: 0x1C }
  - { offset: 0x29D0CF, size: 0x8, addend: 0x0, symName: '-[RLMDictionary isInvalidated]', symObjAddr: 0x960, symBinAddr: 0x2CF19C, symSize: 0x8 }
  - { offset: 0x29D102, size: 0x8, addend: 0x0, symName: '-[RLMDictionary setValue:forKey:]', symObjAddr: 0x968, symBinAddr: 0x2CF1A4, symSize: 0x4 }
  - { offset: 0x29D14F, size: 0x8, addend: 0x0, symName: '-[RLMDictionary setDictionary:]', symObjAddr: 0x96C, symBinAddr: 0x2CF1A8, symSize: 0x150 }
  - { offset: 0x29D1AC, size: 0x8, addend: 0x0, symName: __ZL16changeDictionaryP13RLMDictionaryU13block_pointerFvvE, symObjAddr: 0xABC, symBinAddr: 0x2CF2F8, symSize: 0x114 }
  - { offset: 0x29D216, size: 0x8, addend: 0x0, symName: '___31-[RLMDictionary setDictionary:]_block_invoke', symObjAddr: 0xBD0, symBinAddr: 0x2CF40C, symSize: 0x70 }
  - { offset: 0x29D265, size: 0x8, addend: 0x0, symName: '___31-[RLMDictionary setDictionary:]_block_invoke_2', symObjAddr: 0xC40, symBinAddr: 0x2CF47C, symSize: 0xC0 }
  - { offset: 0x29D2E6, size: 0x8, addend: 0x0, symName: '-[RLMDictionary setObject:forKeyedSubscript:]', symObjAddr: 0xD00, symBinAddr: 0x2CF53C, symSize: 0x8C }
  - { offset: 0x29D339, size: 0x8, addend: 0x0, symName: '-[RLMDictionary setObject:forKey:]', symObjAddr: 0xD8C, symBinAddr: 0x2CF5C8, symSize: 0xE4 }
  - { offset: 0x29D399, size: 0x8, addend: 0x0, symName: '___34-[RLMDictionary setObject:forKey:]_block_invoke', symObjAddr: 0xE70, symBinAddr: 0x2CF6AC, symSize: 0x98 }
  - { offset: 0x29D412, size: 0x8, addend: 0x0, symName: '-[RLMDictionary removeAllObjects]', symObjAddr: 0xF08, symBinAddr: 0x2CF744, symSize: 0x54 }
  - { offset: 0x29D452, size: 0x8, addend: 0x0, symName: '___33-[RLMDictionary removeAllObjects]_block_invoke', symObjAddr: 0xF5C, symBinAddr: 0x2CF798, symSize: 0xC }
  - { offset: 0x29D491, size: 0x8, addend: 0x0, symName: '-[RLMDictionary removeObjectsForKeys:]', symObjAddr: 0xF68, symBinAddr: 0x2CF7A4, symSize: 0x9C }
  - { offset: 0x29D4E1, size: 0x8, addend: 0x0, symName: '___38-[RLMDictionary removeObjectsForKeys:]_block_invoke', symObjAddr: 0x1004, symBinAddr: 0x2CF840, symSize: 0xC }
  - { offset: 0x29D530, size: 0x8, addend: 0x0, symName: '-[RLMDictionary removeObjectForKey:]', symObjAddr: 0x1010, symBinAddr: 0x2CF84C, symSize: 0x9C }
  - { offset: 0x29D580, size: 0x8, addend: 0x0, symName: '___36-[RLMDictionary removeObjectForKey:]_block_invoke', symObjAddr: 0x10AC, symBinAddr: 0x2CF8E8, symSize: 0xC }
  - { offset: 0x29D5D0, size: 0x8, addend: 0x0, symName: '-[RLMDictionary enumerateKeysAndObjectsUsingBlock:]', symObjAddr: 0x10B8, symBinAddr: 0x2CF8F4, symSize: 0x8 }
  - { offset: 0x29D613, size: 0x8, addend: 0x0, symName: '-[RLMDictionary valueForKey:]', symObjAddr: 0x10C0, symBinAddr: 0x2CF8FC, symSize: 0xB4 }
  - { offset: 0x29D65B, size: 0x8, addend: 0x0, symName: '-[RLMDictionary valueForKeyPath:]', symObjAddr: 0x1174, symBinAddr: 0x2CF9B0, symSize: 0x1A0 }
  - { offset: 0x29D6D3, size: 0x8, addend: 0x0, symName: '-[RLMDictionary addEntriesFromDictionary:]', symObjAddr: 0x1314, symBinAddr: 0x2CFB50, symSize: 0x11C }
  - { offset: 0x29D731, size: 0x8, addend: 0x0, symName: '___42-[RLMDictionary addEntriesFromDictionary:]_block_invoke', symObjAddr: 0x1430, symBinAddr: 0x2CFC6C, symSize: 0x5C }
  - { offset: 0x29D782, size: 0x8, addend: 0x0, symName: '___42-[RLMDictionary addEntriesFromDictionary:]_block_invoke_2', symObjAddr: 0x148C, symBinAddr: 0x2CFCC8, symSize: 0xC4 }
  - { offset: 0x29D806, size: 0x8, addend: 0x0, symName: '-[RLMDictionary countByEnumeratingWithState:objects:count:]', symObjAddr: 0x1550, symBinAddr: 0x2CFD8C, symSize: 0x5C }
  - { offset: 0x29D89A, size: 0x8, addend: 0x0, symName: '-[RLMDictionary typeForProperty:]', symObjAddr: 0x15AC, symBinAddr: 0x2CFDE8, symSize: 0x170 }
  - { offset: 0x29D944, size: 0x8, addend: 0x0, symName: '-[RLMDictionary aggregateProperty:operation:method:]', symObjAddr: 0x171C, symBinAddr: 0x2CFF58, symSize: 0x43C }
  - { offset: 0x29DAB3, size: 0x8, addend: 0x0, symName: '___52-[RLMDictionary aggregateProperty:operation:method:]_block_invoke', symObjAddr: 0x1B58, symBinAddr: 0x2D0394, symSize: 0x64 }
  - { offset: 0x29DB02, size: 0x8, addend: 0x0, symName: '-[RLMDictionary minOfProperty:]', symObjAddr: 0x1BBC, symBinAddr: 0x2D03F8, symSize: 0x28 }
  - { offset: 0x29DB4E, size: 0x8, addend: 0x0, symName: '-[RLMDictionary maxOfProperty:]', symObjAddr: 0x1BE4, symBinAddr: 0x2D0420, symSize: 0x28 }
  - { offset: 0x29DB9A, size: 0x8, addend: 0x0, symName: '-[RLMDictionary sumOfProperty:]', symObjAddr: 0x1C0C, symBinAddr: 0x2D0448, symSize: 0x28 }
  - { offset: 0x29DBE6, size: 0x8, addend: 0x0, symName: '-[RLMDictionary averageOfProperty:]', symObjAddr: 0x1C34, symBinAddr: 0x2D0470, symSize: 0x28 }
  - { offset: 0x29DC32, size: 0x8, addend: 0x0, symName: '-[RLMDictionary objectsWhere:]', symObjAddr: 0x1C5C, symBinAddr: 0x2D0498, symSize: 0x30 }
  - { offset: 0x29DC9B, size: 0x8, addend: 0x0, symName: '-[RLMDictionary objectsWhere:args:]', symObjAddr: 0x1C8C, symBinAddr: 0x2D04C8, symSize: 0x6C }
  - { offset: 0x29DD20, size: 0x8, addend: 0x0, symName: '-[RLMDictionary isEqual:]', symObjAddr: 0x1CF8, symBinAddr: 0x2D0534, symSize: 0xF4 }
  - { offset: 0x29DD92, size: 0x8, addend: 0x0, symName: '-[RLMDictionary addObserver:forKeyPath:options:context:]', symObjAddr: 0x1DEC, symBinAddr: 0x2D0628, symSize: 0xB8 }
  - { offset: 0x29DE34, size: 0x8, addend: 0x0, symName: '-[RLMDictionary propertyKey]', symObjAddr: 0x1EA4, symBinAddr: 0x2D06E0, symSize: 0x8 }
  - { offset: 0x29DE6C, size: 0x8, addend: 0x0, symName: '-[RLMDictionary objectsWithPredicate:]', symObjAddr: 0x1EAC, symBinAddr: 0x2D06E8, symSize: 0x4C }
  - { offset: 0x29DEBD, size: 0x8, addend: 0x0, symName: '-[RLMDictionary sortedResultsUsingDescriptors:]', symObjAddr: 0x1EF8, symBinAddr: 0x2D0734, symSize: 0x4C }
  - { offset: 0x29DF0E, size: 0x8, addend: 0x0, symName: '-[RLMDictionary sortedResultsUsingKeyPath:ascending:]', symObjAddr: 0x1F44, symBinAddr: 0x2D0780, symSize: 0x4C }
  - { offset: 0x29DF6C, size: 0x8, addend: 0x0, symName: '-[RLMDictionary distinctResultsUsingKeyPaths:]', symObjAddr: 0x1F90, symBinAddr: 0x2D07CC, symSize: 0x4C }
  - { offset: 0x29DFBD, size: 0x8, addend: 0x0, symName: '-[RLMDictionary freeze]', symObjAddr: 0x1FDC, symBinAddr: 0x2D0818, symSize: 0x24 }
  - { offset: 0x29DFFE, size: 0x8, addend: 0x0, symName: '-[RLMDictionary thaw]', symObjAddr: 0x2000, symBinAddr: 0x2D083C, symSize: 0x24 }
  - { offset: 0x29E03F, size: 0x8, addend: 0x0, symName: '-[RLMDictionary indexOfObject:]', symObjAddr: 0x2024, symBinAddr: 0x2D0860, symSize: 0x4C }
  - { offset: 0x29E090, size: 0x8, addend: 0x0, symName: '-[RLMDictionary objectAtIndex:]', symObjAddr: 0x2070, symBinAddr: 0x2D08AC, symSize: 0x24 }
  - { offset: 0x29E0DE, size: 0x8, addend: 0x0, symName: '-[RLMDictionary objectsAtIndexes:]', symObjAddr: 0x2094, symBinAddr: 0x2D08D0, symSize: 0x4C }
  - { offset: 0x29E12F, size: 0x8, addend: 0x0, symName: '-[RLMDictionary sectionedResultsSortedUsingKeyPath:ascending:keyBlock:]', symObjAddr: 0x20E0, symBinAddr: 0x2D091C, symSize: 0x68 }
  - { offset: 0x29E19D, size: 0x8, addend: 0x0, symName: '-[RLMDictionary sectionedResultsUsingSortDescriptors:keyBlock:]', symObjAddr: 0x2148, symBinAddr: 0x2D0984, symSize: 0x68 }
  - { offset: 0x29E1FE, size: 0x8, addend: 0x0, symName: '-[RLMDictionary makeThreadSafeReference]', symObjAddr: 0x21B0, symBinAddr: 0x2D09EC, symSize: 0x2C }
  - { offset: 0x29E271, size: 0x8, addend: 0x0, symName: '-[RLMDictionary objectiveCMetadata]', symObjAddr: 0x21DC, symBinAddr: 0x2D0A18, symSize: 0x2C }
  - { offset: 0x29E27C, size: 0x8, addend: 0x0, symName: '-[RLMDictionary objectiveCMetadata]', symObjAddr: 0x21DC, symBinAddr: 0x2D0A18, symSize: 0x2C }
  - { offset: 0x29E2EF, size: 0x8, addend: 0x0, symName: '+[RLMDictionary objectWithThreadSafeReference:metadata:realm:]', symObjAddr: 0x2208, symBinAddr: 0x2D0A44, symSize: 0x44 }
  - { offset: 0x29E2FA, size: 0x8, addend: 0x0, symName: '+[RLMDictionary objectWithThreadSafeReference:metadata:realm:]', symObjAddr: 0x2208, symBinAddr: 0x2D0A44, symSize: 0x44 }
  - { offset: 0x29E39A, size: 0x8, addend: 0x0, symName: '-[RLMDictionary description]', symObjAddr: 0x224C, symBinAddr: 0x2D0A88, symSize: 0x8 }
  - { offset: 0x29E3A5, size: 0x8, addend: 0x0, symName: '-[RLMDictionary description]', symObjAddr: 0x224C, symBinAddr: 0x2D0A88, symSize: 0x8 }
  - { offset: 0x29E3DB, size: 0x8, addend: 0x0, symName: '-[RLMDictionary descriptionWithMaxDepth:]', symObjAddr: 0x2254, symBinAddr: 0x2D0A90, symSize: 0x10 }
  - { offset: 0x29E430, size: 0x8, addend: 0x0, symName: _RLMDictionaryDescriptionWithMaxDepth, symObjAddr: 0x2264, symBinAddr: 0x2D0AA0, symSize: 0x3F0 }
  - { offset: 0x29E586, size: 0x8, addend: 0x0, symName: '-[RLMDictionary type]', symObjAddr: 0x2654, symBinAddr: 0x2D0E90, symSize: 0x8 }
  - { offset: 0x29E5BD, size: 0x8, addend: 0x0, symName: '-[RLMDictionary keyType]', symObjAddr: 0x265C, symBinAddr: 0x2D0E98, symSize: 0x8 }
  - { offset: 0x29E5F4, size: 0x8, addend: 0x0, symName: '-[RLMDictionary isOptional]', symObjAddr: 0x2664, symBinAddr: 0x2D0EA0, symSize: 0x8 }
  - { offset: 0x29E62B, size: 0x8, addend: 0x0, symName: '-[RLMDictionary objectClassName]', symObjAddr: 0x266C, symBinAddr: 0x2D0EA8, symSize: 0x8 }
  - { offset: 0x29E662, size: 0x8, addend: 0x0, symName: '-[RLMDictionary isFrozen]', symObjAddr: 0x2674, symBinAddr: 0x2D0EB0, symSize: 0x8 }
  - { offset: 0x29E699, size: 0x8, addend: 0x0, symName: '-[RLMDictionary isLegacyProperty]', symObjAddr: 0x267C, symBinAddr: 0x2D0EB8, symSize: 0x8 }
  - { offset: 0x29E6D0, size: 0x8, addend: 0x0, symName: '-[RLMDictionary .cxx_destruct]', symObjAddr: 0x2684, symBinAddr: 0x2D0EC0, symSize: 0x44 }
  - { offset: 0x2A0AFC, size: 0x8, addend: 0x0, symName: '-[RLMEmbeddedObject init]', symObjAddr: 0x0, symBinAddr: 0x2D0F04, symSize: 0x34 }
  - { offset: 0x2ABF0E, size: 0x8, addend: 0x0, symName: '-[RLMEmbeddedObject init]', symObjAddr: 0x0, symBinAddr: 0x2D0F04, symSize: 0x34 }
  - { offset: 0x2ABF45, size: 0x8, addend: 0x0, symName: '-[RLMEmbeddedObject initWithValue:]', symObjAddr: 0x34, symBinAddr: 0x2D0F38, symSize: 0xC8 }
  - { offset: 0x2ABFB6, size: 0x8, addend: 0x0, symName: '-[RLMEmbeddedObject objectForKeyedSubscript:]', symObjAddr: 0xFC, symBinAddr: 0x2D1000, symSize: 0x20 }
  - { offset: 0x2ABFFD, size: 0x8, addend: 0x0, symName: '-[RLMEmbeddedObject setObject:forKeyedSubscript:]', symObjAddr: 0x11C, symBinAddr: 0x2D1020, symSize: 0x8 }
  - { offset: 0x2AC04C, size: 0x8, addend: 0x0, symName: '-[RLMEmbeddedObject isEqualToObject:]', symObjAddr: 0x124, symBinAddr: 0x2D1028, symSize: 0x7C }
  - { offset: 0x2AC0B7, size: 0x8, addend: 0x0, symName: '-[RLMEmbeddedObject freeze]', symObjAddr: 0x1A0, symBinAddr: 0x2D10A4, symSize: 0x4 }
  - { offset: 0x2AC0EF, size: 0x8, addend: 0x0, symName: '-[RLMEmbeddedObject freeze]', symObjAddr: 0x1A0, symBinAddr: 0x2D10A4, symSize: 0x4 }
  - { offset: 0x2AC10C, size: 0x8, addend: 0x0, symName: '-[RLMEmbeddedObject thaw]', symObjAddr: 0x1A4, symBinAddr: 0x2D10A8, symSize: 0x4 }
  - { offset: 0x2AC144, size: 0x8, addend: 0x0, symName: '-[RLMEmbeddedObject thaw]', symObjAddr: 0x1A4, symBinAddr: 0x2D10A8, symSize: 0x4 }
  - { offset: 0x2AC161, size: 0x8, addend: 0x0, symName: '-[RLMEmbeddedObject addNotificationBlock:]', symObjAddr: 0x1A8, symBinAddr: 0x2D10AC, symSize: 0x28 }
  - { offset: 0x2AC1A8, size: 0x8, addend: 0x0, symName: '-[RLMEmbeddedObject addNotificationBlock:queue:]', symObjAddr: 0x1D0, symBinAddr: 0x2D10D4, symSize: 0x24 }
  - { offset: 0x2AC1FF, size: 0x8, addend: 0x0, symName: '-[RLMEmbeddedObject addNotificationBlock:keyPaths:]', symObjAddr: 0x1F4, symBinAddr: 0x2D10F8, symSize: 0x28 }
  - { offset: 0x2AC256, size: 0x8, addend: 0x0, symName: '-[RLMEmbeddedObject addNotificationBlock:keyPaths:queue:]', symObjAddr: 0x21C, symBinAddr: 0x2D1120, symSize: 0x28 }
  - { offset: 0x2AC2BD, size: 0x8, addend: 0x0, symName: '+[RLMEmbeddedObject className]', symObjAddr: 0x244, symBinAddr: 0x2D1148, symSize: 0x3C }
  - { offset: 0x2AC2F4, size: 0x8, addend: 0x0, symName: '+[RLMEmbeddedObject primaryKey]', symObjAddr: 0x280, symBinAddr: 0x2D1184, symSize: 0x8 }
  - { offset: 0x2AC327, size: 0x8, addend: 0x0, symName: '+[RLMEmbeddedObject indexedProperties]', symObjAddr: 0x288, symBinAddr: 0x2D118C, symSize: 0x10 }
  - { offset: 0x2AC35A, size: 0x8, addend: 0x0, symName: '+[RLMEmbeddedObject linkingObjectsProperties]', symObjAddr: 0x298, symBinAddr: 0x2D119C, symSize: 0x10 }
  - { offset: 0x2AC38D, size: 0x8, addend: 0x0, symName: '+[RLMEmbeddedObject defaultPropertyValues]', symObjAddr: 0x2A8, symBinAddr: 0x2D11AC, symSize: 0x8 }
  - { offset: 0x2AC3C0, size: 0x8, addend: 0x0, symName: '+[RLMEmbeddedObject ignoredProperties]', symObjAddr: 0x2B0, symBinAddr: 0x2D11B4, symSize: 0x8 }
  - { offset: 0x2AC3F3, size: 0x8, addend: 0x0, symName: '+[RLMEmbeddedObject requiredProperties]', symObjAddr: 0x2B8, symBinAddr: 0x2D11BC, symSize: 0x10 }
  - { offset: 0x2AC426, size: 0x8, addend: 0x0, symName: '+[RLMEmbeddedObject _realmIgnoreClass]', symObjAddr: 0x2C8, symBinAddr: 0x2D11CC, symSize: 0x8 }
  - { offset: 0x2AC459, size: 0x8, addend: 0x0, symName: '+[RLMEmbeddedObject isEmbedded]', symObjAddr: 0x2D0, symBinAddr: 0x2D11D4, symSize: 0x8 }
  - { offset: 0x2AC48C, size: 0x8, addend: 0x0, symName: '-[RLMEmbeddedObject isFrozen]', symObjAddr: 0x2D8, symBinAddr: 0x2D11DC, symSize: 0x10 }
  - { offset: 0x2AE296, size: 0x8, addend: 0x0, symName: __Z9makeErrorRKN5realm6StatusE, symObjAddr: 0x0, symBinAddr: 0x2D11EC, symSize: 0x1A4 }
  - { offset: 0x2AE2B0, size: 0x8, addend: 0x0, symName: _RLMErrorDomain, symObjAddr: 0xA00, symBinAddr: 0x486170, symSize: 0x0 }
  - { offset: 0x2AE2D7, size: 0x8, addend: 0x0, symName: _RLMUnknownSystemErrorDomain, symObjAddr: 0xA08, symBinAddr: 0x486178, symSize: 0x0 }
  - { offset: 0x2AE2ED, size: 0x8, addend: 0x0, symName: _RLMErrorCodeNameKey, symObjAddr: 0xA10, symBinAddr: 0x486180, symSize: 0x0 }
  - { offset: 0x2B1998, size: 0x8, addend: 0x0, symName: __Z9makeErrorRKN5realm6StatusE, symObjAddr: 0x0, symBinAddr: 0x2D11EC, symSize: 0x1A4 }
  - { offset: 0x2B1B5F, size: 0x8, addend: 0x0, symName: __ZN12_GLOBAL__N_118translateFileErrorEN5realm10ErrorCodes5ErrorE, symObjAddr: 0x1A4, symBinAddr: 0x2D1390, symSize: 0xC8 }
  - { offset: 0x2B1BAC, size: 0x8, addend: 0x0, symName: __ZN12_GLOBAL__N_111errorStringEN5realm10ErrorCodes5ErrorE, symObjAddr: 0x26C, symBinAddr: 0x2D1458, symSize: 0x4C }
  - { offset: 0x2B1C6C, size: 0x8, addend: 0x0, symName: __Z9makeErrorRKN5realm9ExceptionE, symObjAddr: 0x2B8, symBinAddr: 0x2D14A4, symSize: 0x174 }
  - { offset: 0x2B1D2A, size: 0x8, addend: 0x0, symName: __Z9makeErrorRKN5realm15FileAccessErrorE, symObjAddr: 0x42C, symBinAddr: 0x2D1618, symSize: 0x1CC }
  - { offset: 0x2B1E25, size: 0x8, addend: 0x0, symName: __Z9makeErrorRKSt9exception, symObjAddr: 0x5F8, symBinAddr: 0x2D17E4, symSize: 0x124 }
  - { offset: 0x2B1EE2, size: 0x8, addend: 0x0, symName: __Z9makeErrorRKNSt3__112system_errorE, symObjAddr: 0x71C, symBinAddr: 0x2D1908, symSize: 0x124 }
  - { offset: 0x2B3D36, size: 0x8, addend: 0x0, symName: '-[RLMGeospatialPoint initWithLatitude:longitude:]', symObjAddr: 0x0, symBinAddr: 0x2D1A2C, symSize: 0x8 }
  - { offset: 0x2B8A3E, size: 0x8, addend: 0x0, symName: __ZNSt3__119__allocate_at_leastB8ne180100INS_9allocatorIN5realm8GeoPointEEEEENS_19__allocation_resultINS_16allocator_traitsIT_E7pointerEEERS7_m, symObjAddr: 0x16D0, symBinAddr: 0x2D30E8, symSize: 0x44 }
  - { offset: 0x2B9314, size: 0x8, addend: 0x0, symName: __ZNSt3__135__uninitialized_allocator_copy_implB8ne180100INS_9allocatorINS_6vectorIN5realm8GeoPointENS1_IS4_EEEEEEPS6_S8_S8_EET2_RT_T0_T1_S9_, symObjAddr: 0x1AD8, symBinAddr: 0x2D3448, symSize: 0xBC }
  - { offset: 0x2BA912, size: 0x8, addend: 0x0, symName: '-[RLMGeospatialPoint initWithLatitude:longitude:]', symObjAddr: 0x0, symBinAddr: 0x2D1A2C, symSize: 0x8 }
  - { offset: 0x2BA967, size: 0x8, addend: 0x0, symName: '-[RLMGeospatialPoint initWithLatitude:longitude:altitude:]', symObjAddr: 0x8, symBinAddr: 0x2D1A34, symSize: 0xD8 }
  - { offset: 0x2BA9CE, size: 0x8, addend: 0x0, symName: '-[RLMGeospatialPoint value]', symObjAddr: 0xE0, symBinAddr: 0x2D1B0C, symSize: 0xC }
  - { offset: 0x2BAA2B, size: 0x8, addend: 0x0, symName: '-[RLMGeospatialPoint isEqual:]', symObjAddr: 0xEC, symBinAddr: 0x2D1B18, symSize: 0xFC }
  - { offset: 0x2BAA9A, size: 0x8, addend: 0x0, symName: '-[RLMGeospatialPoint latitude]', symObjAddr: 0x1E8, symBinAddr: 0x2D1C14, symSize: 0x8 }
  - { offset: 0x2BAACF, size: 0x8, addend: 0x0, symName: '-[RLMGeospatialPoint longitude]', symObjAddr: 0x1F0, symBinAddr: 0x2D1C1C, symSize: 0x8 }
  - { offset: 0x2BAB04, size: 0x8, addend: 0x0, symName: '-[RLMGeospatialPoint altitude]', symObjAddr: 0x1F8, symBinAddr: 0x2D1C24, symSize: 0x8 }
  - { offset: 0x2BAB39, size: 0x8, addend: 0x0, symName: '-[RLMGeospatialBox initWithBottomLeft:topRight:]', symObjAddr: 0x200, symBinAddr: 0x2D1C2C, symSize: 0xC0 }
  - { offset: 0x2BB1F7, size: 0x8, addend: 0x0, symName: '-[RLMGeospatialBox geoSpatial]', symObjAddr: 0x2C0, symBinAddr: 0x2D1CEC, symSize: 0x7C }
  - { offset: 0x2BB5B2, size: 0x8, addend: 0x0, symName: '-[RLMGeospatialBox isEqual:]', symObjAddr: 0x33C, symBinAddr: 0x2D1D68, symSize: 0x19C }
  - { offset: 0x2BB621, size: 0x8, addend: 0x0, symName: '-[RLMGeospatialBox bottomLeft]', symObjAddr: 0x4D8, symBinAddr: 0x2D1F04, symSize: 0xC }
  - { offset: 0x2BB658, size: 0x8, addend: 0x0, symName: '-[RLMGeospatialBox topRight]', symObjAddr: 0x4E4, symBinAddr: 0x2D1F10, symSize: 0xC }
  - { offset: 0x2BB68F, size: 0x8, addend: 0x0, symName: '-[RLMGeospatialBox .cxx_destruct]', symObjAddr: 0x4F0, symBinAddr: 0x2D1F1C, symSize: 0x30 }
  - { offset: 0x2BB6C2, size: 0x8, addend: 0x0, symName: '-[RLMGeospatialPolygon initWithOuterRing:holes:]', symObjAddr: 0x520, symBinAddr: 0x2D1F4C, symSize: 0x2E4 }
  - { offset: 0x2BB730, size: 0x8, addend: 0x0, symName: '-[RLMGeospatialPolygon initWithOuterRing:]', symObjAddr: 0x804, symBinAddr: 0x2D2230, symSize: 0x8 }
  - { offset: 0x2BC49A, size: 0x8, addend: 0x0, symName: '-[RLMGeospatialPolygon geoSpatial]', symObjAddr: 0x80C, symBinAddr: 0x2D2238, symSize: 0x724 }
  - { offset: 0x2BE36B, size: 0x8, addend: 0x0, symName: __ZNSt3__16vectorIN5realm8GeoPointENS_9allocatorIS2_EEE16__init_with_sizeB8ne180100IPS2_S7_EEvT_T0_m, symObjAddr: 0x1884, symBinAddr: 0x2D329C, symSize: 0x78 }
  - { offset: 0x2BE7B6, size: 0x8, addend: 0x0, symName: __ZNSt3__16vectorINS0_IN5realm8GeoPointENS_9allocatorIS2_EEEENS3_IS5_EEE21__push_back_slow_pathIRKS5_EEPS5_OT_, symObjAddr: 0x1714, symBinAddr: 0x2D312C, symSize: 0x170 }
  - { offset: 0x2BECAC, size: 0x8, addend: 0x0, symName: __ZNSt3__16vectorINS0_IN5realm8GeoPointENS_9allocatorIS2_EEEENS3_IS5_EEE16__init_with_sizeB8ne180100IPS5_S9_EEvT_T0_m, symObjAddr: 0x1A04, symBinAddr: 0x2D33C4, symSize: 0x84 }
  - { offset: 0x2BEFE4, size: 0x8, addend: 0x0, symName: '-[RLMGeospatialPolygon isEqual:]', symObjAddr: 0xF30, symBinAddr: 0x2D295C, symSize: 0x19C }
  - { offset: 0x2BF053, size: 0x8, addend: 0x0, symName: '-[RLMGeospatialPolygon outerRing]', symObjAddr: 0x10CC, symBinAddr: 0x2D2AF8, symSize: 0xC }
  - { offset: 0x2BF08A, size: 0x8, addend: 0x0, symName: '-[RLMGeospatialPolygon holes]', symObjAddr: 0x10D8, symBinAddr: 0x2D2B04, symSize: 0xC }
  - { offset: 0x2BF0C1, size: 0x8, addend: 0x0, symName: '-[RLMGeospatialPolygon .cxx_destruct]', symObjAddr: 0x10E4, symBinAddr: 0x2D2B10, symSize: 0x30 }
  - { offset: 0x2BF0F4, size: 0x8, addend: 0x0, symName: '+[RLMDistance distanceFromKilometers:]', symObjAddr: 0x1114, symBinAddr: 0x2D2B40, symSize: 0x44 }
  - { offset: 0x2BF147, size: 0x8, addend: 0x0, symName: '+[RLMDistance distanceFromMiles:]', symObjAddr: 0x1158, symBinAddr: 0x2D2B84, symSize: 0x44 }
  - { offset: 0x2BF19A, size: 0x8, addend: 0x0, symName: '+[RLMDistance distanceFromDegrees:]', symObjAddr: 0x119C, symBinAddr: 0x2D2BC8, symSize: 0x38 }
  - { offset: 0x2BF1F2, size: 0x8, addend: 0x0, symName: '+[RLMDistance distanceFromRadians:]', symObjAddr: 0x11D4, symBinAddr: 0x2D2C00, symSize: 0x30 }
  - { offset: 0x2BF235, size: 0x8, addend: 0x0, symName: '-[RLMDistance asKilometers]', symObjAddr: 0x1204, symBinAddr: 0x2D2C30, symSize: 0x2C }
  - { offset: 0x2BF26C, size: 0x8, addend: 0x0, symName: '-[RLMDistance asMiles]', symObjAddr: 0x1230, symBinAddr: 0x2D2C5C, symSize: 0x2C }
  - { offset: 0x2BF2A3, size: 0x8, addend: 0x0, symName: '-[RLMDistance asDegrees]', symObjAddr: 0x125C, symBinAddr: 0x2D2C88, symSize: 0x20 }
  - { offset: 0x2BF2EF, size: 0x8, addend: 0x0, symName: '-[RLMDistance initWithRadians:]', symObjAddr: 0x127C, symBinAddr: 0x2D2CA8, symSize: 0x7C }
  - { offset: 0x2BF363, size: 0x8, addend: 0x0, symName: '-[RLMDistance isEqual:]', symObjAddr: 0x12F8, symBinAddr: 0x2D2D24, symSize: 0xC8 }
  - { offset: 0x2BF3D2, size: 0x8, addend: 0x0, symName: '-[RLMDistance radians]', symObjAddr: 0x13C0, symBinAddr: 0x2D2DEC, symSize: 0x8 }
  - { offset: 0x2BF407, size: 0x8, addend: 0x0, symName: '-[RLMGeospatialCircle initWithCenter:radiusInRadians:]', symObjAddr: 0x13C8, symBinAddr: 0x2D2DF4, symSize: 0xC0 }
  - { offset: 0x2BF45E, size: 0x8, addend: 0x0, symName: '-[RLMGeospatialCircle initWithCenter:radius:]', symObjAddr: 0x1488, symBinAddr: 0x2D2EB4, symSize: 0x90 }
  - { offset: 0x2BFAE0, size: 0x8, addend: 0x0, symName: '-[RLMGeospatialCircle geoSpatial]', symObjAddr: 0x1518, symBinAddr: 0x2D2F44, symSize: 0x44 }
  - { offset: 0x2BFF21, size: 0x8, addend: 0x0, symName: '-[RLMGeospatialCircle isEqual:]', symObjAddr: 0x155C, symBinAddr: 0x2D2F88, symSize: 0x140 }
  - { offset: 0x2BFF90, size: 0x8, addend: 0x0, symName: '-[RLMGeospatialCircle center]', symObjAddr: 0x169C, symBinAddr: 0x2D30C8, symSize: 0xC }
  - { offset: 0x2BFFC7, size: 0x8, addend: 0x0, symName: '-[RLMGeospatialCircle radians]', symObjAddr: 0x16A8, symBinAddr: 0x2D30D4, symSize: 0x8 }
  - { offset: 0x2BFFFC, size: 0x8, addend: 0x0, symName: '-[RLMGeospatialCircle .cxx_destruct]', symObjAddr: 0x16B0, symBinAddr: 0x2D30DC, symSize: 0xC }
  - { offset: 0x2C02DD, size: 0x8, addend: 0x0, symName: __ZNSt3__114__split_bufferINS_6vectorIN5realm8GeoPointENS_9allocatorIS3_EEEERNS4_IS6_EEED2Ev, symObjAddr: 0x19A4, symBinAddr: 0x2D3364, symSize: 0x60 }
  - { offset: 0x2C072E, size: 0x8, addend: 0x0, symName: __ZNSt3__16vectorIN5realm8GeoPointENS_9allocatorIS2_EEE11__vallocateB8ne180100Em, symObjAddr: 0x18FC, symBinAddr: 0x2D3314, symSize: 0x50 }
  - { offset: 0x2C0AA6, size: 0x8, addend: 0x0, symName: __ZNSt3__135__uninitialized_allocator_copy_implB8ne180100INS_9allocatorINS_6vectorIN5realm8GeoPointENS1_IS4_EEEEEEPS6_S8_S8_EET2_RT_T0_T1_S9_, symObjAddr: 0x1AD8, symBinAddr: 0x2D3448, symSize: 0xBC }
  - { offset: 0x2C0B78, size: 0x8, addend: 0x0, symName: __ZNSt3__128__exception_guard_exceptionsINS_29_AllocatorDestroyRangeReverseINS_9allocatorINS_6vectorIN5realm8GeoPointENS2_IS5_EEEEEEPS7_EEED2B8ne180100Ev, symObjAddr: 0x1B94, symBinAddr: 0x2D3504, symSize: 0x34 }
  - { offset: 0x2C0BB0, size: 0x8, addend: 0x0, symName: __ZNKSt3__129_AllocatorDestroyRangeReverseINS_9allocatorINS_6vectorIN5realm8GeoPointENS1_IS4_EEEEEEPS6_EclB8ne180100Ev, symObjAddr: 0x1BC8, symBinAddr: 0x2D3538, symSize: 0x4C }
  - { offset: 0x2C2C51, size: 0x8, addend: 0x0, symName: '-[RLMLogger level]', symObjAddr: 0x0, symBinAddr: 0x2D3584, symSize: 0x14 }
  - { offset: 0x2C9169, size: 0x8, addend: 0x0, symName: __ZN12_GLOBAL__N_116logLevelForLevelEN5realm4util11LogCategory5LevelE, symObjAddr: 0x14, symBinAddr: 0x2D3598, symSize: 0x40 }
  - { offset: 0x2C91D6, size: 0x8, addend: 0x0, symName: '-[RLMLogger setLevel:]', symObjAddr: 0x54, symBinAddr: 0x2D35D8, symSize: 0x2C }
  - { offset: 0x2C91E1, size: 0x8, addend: 0x0, symName: __ZN12_GLOBAL__N_116levelForLogLevelE11RLMLogLevel, symObjAddr: 0xA4, symBinAddr: 0x2D3628, symSize: 0x40 }
  - { offset: 0x2C924E, size: 0x8, addend: 0x0, symName: '+[RLMLogger initialize]', symObjAddr: 0xE4, symBinAddr: 0x2D3668, symSize: 0xE0 }
  - { offset: 0x2C9530, size: 0x8, addend: 0x0, symName: '-[RLMLogger level]', symObjAddr: 0x0, symBinAddr: 0x2D3584, symSize: 0x14 }
  - { offset: 0x2C956A, size: 0x8, addend: 0x0, symName: '-[RLMLogger level]', symObjAddr: 0x0, symBinAddr: 0x2D3584, symSize: 0x14 }
  - { offset: 0x2C9693, size: 0x8, addend: 0x0, symName: '-[RLMLogger setLevel:]', symObjAddr: 0x54, symBinAddr: 0x2D35D8, symSize: 0x2C }
  - { offset: 0x2C9711, size: 0x8, addend: 0x0, symName: __ZN5realm4util6Logger19set_level_thresholdENS0_11LogCategory5LevelE, symObjAddr: 0x80, symBinAddr: 0x2D3604, symSize: 0x24 }
  - { offset: 0x2C9B29, size: 0x8, addend: 0x0, symName: '+[RLMLogger initialize]', symObjAddr: 0xE4, symBinAddr: 0x2D3668, symSize: 0xE0 }
  - { offset: 0x2C9F50, size: 0x8, addend: 0x0, symName: __ZN5realm4util6LoggerC2Ev, symObjAddr: 0x724, symBinAddr: 0x2D3C58, symSize: 0x64 }
  - { offset: 0x2CA18E, size: 0x8, addend: 0x0, symName: '-[RLMLogger initWithLogger:]', symObjAddr: 0x1C4, symBinAddr: 0x2D3748, symSize: 0x74 }
  - { offset: 0x2CA666, size: 0x8, addend: 0x0, symName: '-[RLMLogger initWithLevel:logFunction:]', symObjAddr: 0x238, symBinAddr: 0x2D37BC, symSize: 0x174 }
  - { offset: 0x2CAC1A, size: 0x8, addend: 0x0, symName: '-[RLMLogger logWithLevel:message:]', symObjAddr: 0x3AC, symBinAddr: 0x2D3930, symSize: 0xF4 }
  - { offset: 0x2CB14A, size: 0x8, addend: 0x0, symName: '-[RLMLogger logLevel:message:]', symObjAddr: 0x4A0, symBinAddr: 0x2D3A24, symSize: 0xBC }
  - { offset: 0x2CB3EB, size: 0x8, addend: 0x0, symName: '+[RLMLogger defaultLogger]', symObjAddr: 0x55C, symBinAddr: 0x2D3AE0, symSize: 0xA4 }
  - { offset: 0x2CB5E7, size: 0x8, addend: 0x0, symName: '+[RLMLogger setDefaultLogger:]', symObjAddr: 0x600, symBinAddr: 0x2D3B84, symSize: 0x84 }
  - { offset: 0x2CB77A, size: 0x8, addend: 0x0, symName: '-[RLMLogger .cxx_destruct]', symObjAddr: 0x684, symBinAddr: 0x2D3C08, symSize: 0x8 }
  - { offset: 0x2CB80D, size: 0x8, addend: 0x0, symName: '-[RLMLogger .cxx_construct]', symObjAddr: 0x68C, symBinAddr: 0x2D3C10, symSize: 0x8 }
  - { offset: 0x2CB845, size: 0x8, addend: 0x0, symName: '-[RLMLogger .cxx_construct]', symObjAddr: 0x68C, symBinAddr: 0x2D3C10, symSize: 0x8 }
  - { offset: 0x2CB864, size: 0x8, addend: 0x0, symName: '-[RLMLogger .cxx_construct]', symObjAddr: 0x68C, symBinAddr: 0x2D3C10, symSize: 0x8 }
  - { offset: 0x2CB89F, size: 0x8, addend: 0x0, symName: __ZNSt3__120__shared_ptr_emplaceIN12_GLOBAL__N_111CocoaLoggerENS_9allocatorIS2_EEED1Ev, symObjAddr: 0x6E4, symBinAddr: 0x2D3C18, symSize: 0x10 }
  - { offset: 0x2CB8C3, size: 0x8, addend: 0x0, symName: __ZNSt3__120__shared_ptr_emplaceIN12_GLOBAL__N_111CocoaLoggerENS_9allocatorIS2_EEED1Ev, symObjAddr: 0x6E4, symBinAddr: 0x2D3C18, symSize: 0x10 }
  - { offset: 0x2CB8FA, size: 0x8, addend: 0x0, symName: __ZNSt3__120__shared_ptr_emplaceIN12_GLOBAL__N_111CocoaLoggerENS_9allocatorIS2_EEED0Ev, symObjAddr: 0x6F4, symBinAddr: 0x2D3C28, symSize: 0x20 }
  - { offset: 0x2CB9CD, size: 0x8, addend: 0x0, symName: __ZNSt3__120__shared_ptr_emplaceIN12_GLOBAL__N_111CocoaLoggerENS_9allocatorIS2_EEE16__on_zero_sharedEv, symObjAddr: 0x714, symBinAddr: 0x2D3C48, symSize: 0xC }
  - { offset: 0x2CB9F7, size: 0x8, addend: 0x0, symName: __ZNSt3__120__shared_ptr_emplaceIN12_GLOBAL__N_111CocoaLoggerENS_9allocatorIS2_EEE16__on_zero_sharedEv, symObjAddr: 0x714, symBinAddr: 0x2D3C48, symSize: 0xC }
  - { offset: 0x2CBA17, size: 0x8, addend: 0x0, symName: __ZNSt3__120__shared_ptr_emplaceIN12_GLOBAL__N_111CocoaLoggerENS_9allocatorIS2_EEE16__on_zero_sharedEv, symObjAddr: 0x714, symBinAddr: 0x2D3C48, symSize: 0xC }
  - { offset: 0x2CBA37, size: 0x8, addend: 0x0, symName: __ZNSt3__120__shared_ptr_emplaceIN12_GLOBAL__N_111CocoaLoggerENS_9allocatorIS2_EEE16__on_zero_sharedEv, symObjAddr: 0x714, symBinAddr: 0x2D3C48, symSize: 0xC }
  - { offset: 0x2CBAC0, size: 0x8, addend: 0x0, symName: __ZNSt3__120__shared_ptr_emplaceIN12_GLOBAL__N_111CocoaLoggerENS_9allocatorIS2_EEE21__on_zero_shared_weakEv, symObjAddr: 0x720, symBinAddr: 0x2D3C54, symSize: 0x4 }
  - { offset: 0x2CBAF5, size: 0x8, addend: 0x0, symName: __ZNSt3__120__shared_ptr_emplaceIN12_GLOBAL__N_111CocoaLoggerENS_9allocatorIS2_EEE21__on_zero_shared_weakEv, symObjAddr: 0x720, symBinAddr: 0x2D3C54, symSize: 0x4 }
  - { offset: 0x2CBB1A, size: 0x8, addend: 0x0, symName: __ZNSt3__120__shared_ptr_emplaceIN12_GLOBAL__N_111CocoaLoggerENS_9allocatorIS2_EEE21__on_zero_shared_weakEv, symObjAddr: 0x720, symBinAddr: 0x2D3C54, symSize: 0x4 }
  - { offset: 0x2CBB3F, size: 0x8, addend: 0x0, symName: __ZNSt3__120__shared_ptr_emplaceIN12_GLOBAL__N_111CocoaLoggerENS_9allocatorIS2_EEE21__on_zero_shared_weakEv, symObjAddr: 0x720, symBinAddr: 0x2D3C54, symSize: 0x4 }
  - { offset: 0x2CBB6F, size: 0x8, addend: 0x0, symName: __ZNSt3__120__shared_ptr_emplaceIN12_GLOBAL__N_111CocoaLoggerENS_9allocatorIS2_EEE21__on_zero_shared_weakEv, symObjAddr: 0x720, symBinAddr: 0x2D3C54, symSize: 0x4 }
  - { offset: 0x2CBB99, size: 0x8, addend: 0x0, symName: __ZNSt3__120__shared_ptr_emplaceIN12_GLOBAL__N_111CocoaLoggerENS_9allocatorIS2_EEE21__on_zero_shared_weakEv, symObjAddr: 0x720, symBinAddr: 0x2D3C54, symSize: 0x4 }
  - { offset: 0x2CBEC4, size: 0x8, addend: 0x0, symName: __ZN12_GLOBAL__N_111CocoaLoggerD1Ev, symObjAddr: 0x788, symBinAddr: 0x2D3CBC, symSize: 0x3C }
  - { offset: 0x2CBFC1, size: 0x8, addend: 0x0, symName: __ZN12_GLOBAL__N_111CocoaLoggerD0Ev, symObjAddr: 0x7C4, symBinAddr: 0x2D3CF8, symSize: 0x3C }
  - { offset: 0x2CC1C9, size: 0x8, addend: 0x0, symName: __ZN12_GLOBAL__N_111CocoaLogger6do_logERKN5realm4util11LogCategoryENS3_5LevelERKNSt3__112basic_stringIcNS7_11char_traitsIcEENS7_9allocatorIcEEEE, symObjAddr: 0x800, symBinAddr: 0x2D3D34, symSize: 0xCC }
  - { offset: 0x2CC370, size: 0x8, addend: 0x0, symName: __ZNSt3__120__shared_ptr_emplaceIN12_GLOBAL__N_112CustomLoggerENS_9allocatorIS2_EEED1Ev, symObjAddr: 0x8D4, symBinAddr: 0x2D3E00, symSize: 0x10 }
  - { offset: 0x2CC394, size: 0x8, addend: 0x0, symName: __ZNSt3__120__shared_ptr_emplaceIN12_GLOBAL__N_112CustomLoggerENS_9allocatorIS2_EEED1Ev, symObjAddr: 0x8D4, symBinAddr: 0x2D3E00, symSize: 0x10 }
  - { offset: 0x2CC3CB, size: 0x8, addend: 0x0, symName: __ZNSt3__120__shared_ptr_emplaceIN12_GLOBAL__N_112CustomLoggerENS_9allocatorIS2_EEED0Ev, symObjAddr: 0x8E4, symBinAddr: 0x2D3E10, symSize: 0x20 }
  - { offset: 0x2CC49E, size: 0x8, addend: 0x0, symName: __ZNSt3__120__shared_ptr_emplaceIN12_GLOBAL__N_112CustomLoggerENS_9allocatorIS2_EEE16__on_zero_sharedEv, symObjAddr: 0x904, symBinAddr: 0x2D3E30, symSize: 0xC }
  - { offset: 0x2CC4C8, size: 0x8, addend: 0x0, symName: __ZNSt3__120__shared_ptr_emplaceIN12_GLOBAL__N_112CustomLoggerENS_9allocatorIS2_EEE16__on_zero_sharedEv, symObjAddr: 0x904, symBinAddr: 0x2D3E30, symSize: 0xC }
  - { offset: 0x2CC4E8, size: 0x8, addend: 0x0, symName: __ZNSt3__120__shared_ptr_emplaceIN12_GLOBAL__N_112CustomLoggerENS_9allocatorIS2_EEE16__on_zero_sharedEv, symObjAddr: 0x904, symBinAddr: 0x2D3E30, symSize: 0xC }
  - { offset: 0x2CC508, size: 0x8, addend: 0x0, symName: __ZNSt3__120__shared_ptr_emplaceIN12_GLOBAL__N_112CustomLoggerENS_9allocatorIS2_EEE16__on_zero_sharedEv, symObjAddr: 0x904, symBinAddr: 0x2D3E30, symSize: 0xC }
  - { offset: 0x2CC591, size: 0x8, addend: 0x0, symName: __ZNSt3__120__shared_ptr_emplaceIN12_GLOBAL__N_112CustomLoggerENS_9allocatorIS2_EEE21__on_zero_shared_weakEv, symObjAddr: 0x910, symBinAddr: 0x2D3E3C, symSize: 0x4 }
  - { offset: 0x2CC5C6, size: 0x8, addend: 0x0, symName: __ZNSt3__120__shared_ptr_emplaceIN12_GLOBAL__N_112CustomLoggerENS_9allocatorIS2_EEE21__on_zero_shared_weakEv, symObjAddr: 0x910, symBinAddr: 0x2D3E3C, symSize: 0x4 }
  - { offset: 0x2CC5EB, size: 0x8, addend: 0x0, symName: __ZNSt3__120__shared_ptr_emplaceIN12_GLOBAL__N_112CustomLoggerENS_9allocatorIS2_EEE21__on_zero_shared_weakEv, symObjAddr: 0x910, symBinAddr: 0x2D3E3C, symSize: 0x4 }
  - { offset: 0x2CC610, size: 0x8, addend: 0x0, symName: __ZNSt3__120__shared_ptr_emplaceIN12_GLOBAL__N_112CustomLoggerENS_9allocatorIS2_EEE21__on_zero_shared_weakEv, symObjAddr: 0x910, symBinAddr: 0x2D3E3C, symSize: 0x4 }
  - { offset: 0x2CC63F, size: 0x8, addend: 0x0, symName: __ZNSt3__120__shared_ptr_emplaceIN12_GLOBAL__N_112CustomLoggerENS_9allocatorIS2_EEE21__on_zero_shared_weakEv, symObjAddr: 0x910, symBinAddr: 0x2D3E3C, symSize: 0x4 }
  - { offset: 0x2CC668, size: 0x8, addend: 0x0, symName: __ZNSt3__120__shared_ptr_emplaceIN12_GLOBAL__N_112CustomLoggerENS_9allocatorIS2_EEE21__on_zero_shared_weakEv, symObjAddr: 0x910, symBinAddr: 0x2D3E3C, symSize: 0x4 }
  - { offset: 0x2CC6B0, size: 0x8, addend: 0x0, symName: __ZN12_GLOBAL__N_112CustomLoggerD1Ev, symObjAddr: 0x914, symBinAddr: 0x2D3E40, symSize: 0x44 }
  - { offset: 0x2CC7AD, size: 0x8, addend: 0x0, symName: __ZN12_GLOBAL__N_112CustomLoggerD0Ev, symObjAddr: 0x958, symBinAddr: 0x2D3E84, symSize: 0x44 }
  - { offset: 0x2CC8B6, size: 0x8, addend: 0x0, symName: __ZN12_GLOBAL__N_112CustomLogger6do_logERKN5realm4util11LogCategoryENS3_5LevelERKNSt3__112basic_stringIcNS7_11char_traitsIcEENS7_9allocatorIcEEEE, symObjAddr: 0x99C, symBinAddr: 0x2D3EC8, symSize: 0xD4 }
  - { offset: 0x2CE8C1, size: 0x8, addend: 0x0, symName: '-[RLMManagedArrayHandoverMetadata parentClassName]', symObjAddr: 0x0, symBinAddr: 0x2D3F9C, symSize: 0x8 }
  - { offset: 0x2D9A12, size: 0x8, addend: 0x0, symName: __ZN5realm5_impl17assign_collectionIRU8__strongKP11objc_object18RLMAccessorContextEEvRT0_RNS_12object_store10CollectionERKNS_11PathElementENS_14CollectionTypeEOT_NS_12CreatePolicyE, symObjAddr: 0x52A4, symBinAddr: 0x2D91F0, symSize: 0x474 }
  - { offset: 0x327B41, size: 0x8, addend: 0x0, symName: '-[RLMManagedArrayHandoverMetadata parentClassName]', symObjAddr: 0x0, symBinAddr: 0x2D3F9C, symSize: 0x8 }
  - { offset: 0x327B78, size: 0x8, addend: 0x0, symName: '-[RLMManagedArrayHandoverMetadata setParentClassName:]', symObjAddr: 0x8, symBinAddr: 0x2D3FA4, symSize: 0xC }
  - { offset: 0x327BB9, size: 0x8, addend: 0x0, symName: '-[RLMManagedArrayHandoverMetadata key]', symObjAddr: 0x14, symBinAddr: 0x2D3FB0, symSize: 0x8 }
  - { offset: 0x327BF0, size: 0x8, addend: 0x0, symName: '-[RLMManagedArrayHandoverMetadata setKey:]', symObjAddr: 0x1C, symBinAddr: 0x2D3FB8, symSize: 0xC }
  - { offset: 0x327C31, size: 0x8, addend: 0x0, symName: '-[RLMManagedArrayHandoverMetadata .cxx_destruct]', symObjAddr: 0x28, symBinAddr: 0x2D3FC4, symSize: 0x30 }
  - { offset: 0x327CB8, size: 0x8, addend: 0x0, symName: '-[RLMManagedArray initWithBackingCollection:parentInfo:property:]', symObjAddr: 0x58, symBinAddr: 0x2D3FF4, symSize: 0x188 }
  - { offset: 0x327F57, size: 0x8, addend: 0x0, symName: '-[RLMManagedArray initWithParent:property:parentInfo:]', symObjAddr: 0x1E0, symBinAddr: 0x2D417C, symSize: 0x124 }
  - { offset: 0x328284, size: 0x8, addend: 0x0, symName: '-[RLMManagedArray initWithParent:property:]', symObjAddr: 0x304, symBinAddr: 0x2D42A0, symSize: 0x3C }
  - { offset: 0x3282DB, size: 0x8, addend: 0x0, symName: __Z30RLMValidateArrayObservationKeyP8NSStringP8RLMArray, symObjAddr: 0x340, symBinAddr: 0x2D42DC, symSize: 0x68 }
  - { offset: 0x3283C2, size: 0x8, addend: 0x0, symName: __Z29RLMEnsureArrayObservationInfoRNSt3__110unique_ptrI18RLMObservationInfoNS_14default_deleteIS1_EEEEP8NSStringP8RLMArrayP11objc_object, symObjAddr: 0x3A8, symBinAddr: 0x2D4344, symSize: 0xF8 }
  - { offset: 0x3284D5, size: 0x8, addend: 0x0, symName: __ZNSt3__110unique_ptrI18RLMObservationInfoNS_14default_deleteIS1_EEE5resetB8ne180100EPS1_, symObjAddr: 0x5718, symBinAddr: 0x2D9664, symSize: 0x2C }
  - { offset: 0x328559, size: 0x8, addend: 0x0, symName: '-[RLMManagedArray realm]', symObjAddr: 0x4A0, symBinAddr: 0x2D443C, symSize: 0x10 }
  - { offset: 0x328590, size: 0x8, addend: 0x0, symName: '-[RLMManagedArray count]', symObjAddr: 0x4B0, symBinAddr: 0x2D444C, symSize: 0x50 }
  - { offset: 0x3286DE, size: 0x8, addend: 0x0, symName: '-[RLMManagedArray isInvalidated]', symObjAddr: 0x500, symBinAddr: 0x2D449C, symSize: 0x54 }
  - { offset: 0x328809, size: 0x8, addend: 0x0, symName: '-[RLMManagedArray objectInfo]', symObjAddr: 0x554, symBinAddr: 0x2D44F0, symSize: 0x10 }
  - { offset: 0x328840, size: 0x8, addend: 0x0, symName: '-[RLMManagedArray isBackedByList:]', symObjAddr: 0x564, symBinAddr: 0x2D4500, symSize: 0x14 }
  - { offset: 0x328887, size: 0x8, addend: 0x0, symName: '-[RLMManagedArray isEqual:]', symObjAddr: 0x578, symBinAddr: 0x2D4514, symSize: 0x78 }
  - { offset: 0x3288CE, size: 0x8, addend: 0x0, symName: '-[RLMManagedArray hash]', symObjAddr: 0x5F0, symBinAddr: 0x2D458C, symSize: 0x2C }
  - { offset: 0x328905, size: 0x8, addend: 0x0, symName: '-[RLMManagedArray countByEnumeratingWithState:objects:count:]', symObjAddr: 0x61C, symBinAddr: 0x2D45B8, symSize: 0x14 }
  - { offset: 0x328968, size: 0x8, addend: 0x0, symName: '-[RLMManagedArray objectAtIndex:]', symObjAddr: 0x630, symBinAddr: 0x2D45CC, symSize: 0xEC }
  - { offset: 0x329AFA, size: 0x8, addend: 0x0, symName: '-[RLMManagedArray addObject:]', symObjAddr: 0x71C, symBinAddr: 0x2D46B8, symSize: 0xC }
  - { offset: 0x329B49, size: 0x8, addend: 0x0, symName: __ZL15RLMInsertObjectP15RLMManagedArrayP11objc_objectm, symObjAddr: 0x728, symBinAddr: 0x2D46C4, symSize: 0x150 }
  - { offset: 0x329CC4, size: 0x8, addend: 0x0, symName: __ZL11changeArrayP15RLMManagedArray16NSKeyValueChangemU13block_pointerFvvE, symObjAddr: 0x1408, symBinAddr: 0x2D53A4, symSize: 0x1D4 }
  - { offset: 0x32A019, size: 0x8, addend: 0x0, symName: '-[RLMManagedArray insertObject:atIndex:]', symObjAddr: 0x878, symBinAddr: 0x2D4814, symSize: 0xC }
  - { offset: 0x32A078, size: 0x8, addend: 0x0, symName: '-[RLMManagedArray insertObjects:atIndexes:]', symObjAddr: 0x884, symBinAddr: 0x2D4820, symSize: 0xF4 }
  - { offset: 0x32A0D8, size: 0x8, addend: 0x0, symName: __ZL11changeArrayP15RLMManagedArray16NSKeyValueChangeP10NSIndexSetU13block_pointerFvvE, symObjAddr: 0x978, symBinAddr: 0x2D4914, symSize: 0x1E0 }
  - { offset: 0x32A796, size: 0x8, addend: 0x0, symName: __ZL24translateCollectionErrorIRU8__strongU13block_pointerFvvEEDaOT_P8NSString, symObjAddr: 0x50C4, symBinAddr: 0x2D9060, symSize: 0x48 }
  - { offset: 0x32A7F0, size: 0x8, addend: 0x0, symName: '___43-[RLMManagedArray insertObjects:atIndexes:]_block_invoke', symObjAddr: 0xB58, symBinAddr: 0x2D4AF4, symSize: 0x1DC }
  - { offset: 0x32AAD7, size: 0x8, addend: 0x0, symName: __ZN5realm4List6insertIRU8__strongKP11objc_object18RLMAccessorContextEEvRT0_mOT_NS_12CreatePolicyE, symObjAddr: 0xD34, symBinAddr: 0x2D4CD0, symSize: 0x67C }
  - { offset: 0x32C4FF, size: 0x8, addend: 0x0, symName: __ZNK5realm12object_store10Collection17validate_embeddedIRU8__strongKP11objc_object18RLMAccessorContextEEvRT0_OT_NS_12CreatePolicyE, symObjAddr: 0x515C, symBinAddr: 0x2D90A8, symSize: 0x148 }
  - { offset: 0x32C8EE, size: 0x8, addend: 0x0, symName: '-[RLMManagedArray removeObjectAtIndex:]', symObjAddr: 0x13B0, symBinAddr: 0x2D534C, symSize: 0x58 }
  - { offset: 0x32CA79, size: 0x8, addend: 0x0, symName: '___39-[RLMManagedArray removeObjectAtIndex:]_block_invoke', symObjAddr: 0x15DC, symBinAddr: 0x2D5578, symSize: 0x14 }
  - { offset: 0x32CAC8, size: 0x8, addend: 0x0, symName: '-[RLMManagedArray removeObjectsAtIndexes:]', symObjAddr: 0x15F0, symBinAddr: 0x2D558C, symSize: 0xA4 }
  - { offset: 0x32CB18, size: 0x8, addend: 0x0, symName: '___42-[RLMManagedArray removeObjectsAtIndexes:]_block_invoke', symObjAddr: 0x1694, symBinAddr: 0x2D5630, symSize: 0x60 }
  - { offset: 0x32CB67, size: 0x8, addend: 0x0, symName: '___42-[RLMManagedArray removeObjectsAtIndexes:]_block_invoke_2', symObjAddr: 0x16F4, symBinAddr: 0x2D5690, symSize: 0x14 }
  - { offset: 0x32CBBC, size: 0x8, addend: 0x0, symName: '-[RLMManagedArray addObjectsFromArray:]', symObjAddr: 0x1708, symBinAddr: 0x2D56A4, symSize: 0xE4 }
  - { offset: 0x32CC0C, size: 0x8, addend: 0x0, symName: __ZL11changeArrayP15RLMManagedArray16NSKeyValueChange8_NSRangeU13block_pointerFvvE, symObjAddr: 0x17EC, symBinAddr: 0x2D5788, symSize: 0x1E4 }
  - { offset: 0x32D9A2, size: 0x8, addend: 0x0, symName: '___39-[RLMManagedArray addObjectsFromArray:]_block_invoke', symObjAddr: 0x19D0, symBinAddr: 0x2D596C, symSize: 0x578 }
  - { offset: 0x32E85D, size: 0x8, addend: 0x0, symName: '-[RLMManagedArray removeAllObjects]', symObjAddr: 0x1F48, symBinAddr: 0x2D5EE4, symSize: 0x74 }
  - { offset: 0x32E89E, size: 0x8, addend: 0x0, symName: '___35-[RLMManagedArray removeAllObjects]_block_invoke', symObjAddr: 0x1FBC, symBinAddr: 0x2D5F58, symSize: 0x14 }
  - { offset: 0x32E8DF, size: 0x8, addend: 0x0, symName: '-[RLMManagedArray replaceAllObjectsWithObjects:]', symObjAddr: 0x1FD0, symBinAddr: 0x2D5F6C, symSize: 0x148 }
  - { offset: 0x32E954, size: 0x8, addend: 0x0, symName: '___48-[RLMManagedArray replaceAllObjectsWithObjects:]_block_invoke', symObjAddr: 0x2118, symBinAddr: 0x2D60B4, symSize: 0x14 }
  - { offset: 0x32EB5A, size: 0x8, addend: 0x0, symName: '___48-[RLMManagedArray replaceAllObjectsWithObjects:]_block_invoke_2', symObjAddr: 0x212C, symBinAddr: 0x2D60C8, symSize: 0x2F0 }
  - { offset: 0x32EF12, size: 0x8, addend: 0x0, symName: '-[RLMManagedArray replaceObjectAtIndex:withObject:]', symObjAddr: 0x241C, symBinAddr: 0x2D63B8, symSize: 0xD4 }
  - { offset: 0x32FDB5, size: 0x8, addend: 0x0, symName: '___51-[RLMManagedArray replaceObjectAtIndex:withObject:]_block_invoke', symObjAddr: 0x24F0, symBinAddr: 0x2D648C, symSize: 0xA54 }
  - { offset: 0x33192C, size: 0x8, addend: 0x0, symName: '-[RLMManagedArray moveObjectAtIndex:toIndex:]', symObjAddr: 0x2F44, symBinAddr: 0x2D6EE0, symSize: 0x7C }
  - { offset: 0x3319AD, size: 0x8, addend: 0x0, symName: '___45-[RLMManagedArray moveObjectAtIndex:toIndex:]_block_invoke', symObjAddr: 0x2FC0, symBinAddr: 0x2D6F5C, symSize: 0x1C }
  - { offset: 0x331B1A, size: 0x8, addend: 0x0, symName: '-[RLMManagedArray exchangeObjectAtIndex:withObjectAtIndex:]', symObjAddr: 0x2FDC, symBinAddr: 0x2D6F78, symSize: 0x1FC }
  - { offset: 0x331EC1, size: 0x8, addend: 0x0, symName: '___59-[RLMManagedArray exchangeObjectAtIndex:withObjectAtIndex:]_block_invoke', symObjAddr: 0x31D8, symBinAddr: 0x2D7174, symSize: 0x1C }
  - { offset: 0x331F22, size: 0x8, addend: 0x0, symName: '-[RLMManagedArray indexOfObject:]', symObjAddr: 0x31F4, symBinAddr: 0x2D7190, symSize: 0x3DC }
  - { offset: 0x332F4C, size: 0x8, addend: 0x0, symName: '-[RLMManagedArray valueForKeyPath:]', symObjAddr: 0x35D0, symBinAddr: 0x2D756C, symSize: 0x158 }
  - { offset: 0x33315A, size: 0x8, addend: 0x0, symName: '-[RLMManagedArray valueForKey:]', symObjAddr: 0x3728, symBinAddr: 0x2D76C4, symSize: 0xE8 }
  - { offset: 0x3332DF, size: 0x8, addend: 0x0, symName: '-[RLMManagedArray setValue:forKey:]', symObjAddr: 0x3810, symBinAddr: 0x2D77AC, symSize: 0x1EC }
  - { offset: 0x333793, size: 0x8, addend: 0x0, symName: '-[RLMManagedArray minOfProperty:]', symObjAddr: 0x39FC, symBinAddr: 0x2D7998, symSize: 0x10C }
  - { offset: 0x333BC1, size: 0x8, addend: 0x0, symName: '-[RLMManagedArray maxOfProperty:]', symObjAddr: 0x3B08, symBinAddr: 0x2D7AA4, symSize: 0x10C }
  - { offset: 0x333E79, size: 0x8, addend: 0x0, symName: '-[RLMManagedArray sumOfProperty:]', symObjAddr: 0x3C14, symBinAddr: 0x2D7BB0, symSize: 0xFC }
  - { offset: 0x3340DD, size: 0x8, addend: 0x0, symName: '-[RLMManagedArray averageOfProperty:]', symObjAddr: 0x3D10, symBinAddr: 0x2D7CAC, symSize: 0x10C }
  - { offset: 0x334396, size: 0x8, addend: 0x0, symName: '-[RLMManagedArray deleteObjectsFromRealm]', symObjAddr: 0x3E1C, symBinAddr: 0x2D7DB8, symSize: 0xE4 }
  - { offset: 0x334563, size: 0x8, addend: 0x0, symName: __ZL15RLMTypeToString15RLMPropertyType, symObjAddr: 0x3F00, symBinAddr: 0x2D7E9C, symSize: 0x24 }
  - { offset: 0x334592, size: 0x8, addend: 0x0, symName: '-[RLMManagedArray sortedResultsUsingDescriptors:]', symObjAddr: 0x3F24, symBinAddr: 0x2D7EC0, symSize: 0x114 }
  - { offset: 0x3348AE, size: 0x8, addend: 0x0, symName: '-[RLMManagedArray distinctResultsUsingKeyPaths:]', symObjAddr: 0x4038, symBinAddr: 0x2D7FD4, symSize: 0x110 }
  - { offset: 0x334A0A, size: 0x8, addend: 0x0, symName: '-[RLMManagedArray objectsWithPredicate:]', symObjAddr: 0x4148, symBinAddr: 0x2D80E4, symSize: 0x1B0 }
  - { offset: 0x334B7D, size: 0x8, addend: 0x0, symName: '-[RLMManagedArray indexOfObjectWithPredicate:]', symObjAddr: 0x42F8, symBinAddr: 0x2D8294, symSize: 0x14C }
  - { offset: 0x334D07, size: 0x8, addend: 0x0, symName: '-[RLMManagedArray objectsAtIndexes:]', symObjAddr: 0x4444, symBinAddr: 0x2D83E0, symSize: 0x1B0 }
  - { offset: 0x334FBD, size: 0x8, addend: 0x0, symName: '-[RLMManagedArray sectionedResultsSortedUsingKeyPath:ascending:keyBlock:]', symObjAddr: 0x45F4, symBinAddr: 0x2D8590, symSize: 0xD4 }
  - { offset: 0x335025, size: 0x8, addend: 0x0, symName: '-[RLMManagedArray sectionedResultsUsingSortDescriptors:keyBlock:]', symObjAddr: 0x46C8, symBinAddr: 0x2D8664, symSize: 0xC4 }
  - { offset: 0x33507D, size: 0x8, addend: 0x0, symName: '-[RLMManagedArray addObserver:forKeyPath:options:context:]', symObjAddr: 0x478C, symBinAddr: 0x2D8728, symSize: 0xCC }
  - { offset: 0x3350FE, size: 0x8, addend: 0x0, symName: '-[RLMManagedArray tableView]', symObjAddr: 0x4858, symBinAddr: 0x2D87F4, symSize: 0x88 }
  - { offset: 0x33522E, size: 0x8, addend: 0x0, symName: '-[RLMManagedArray fastEnumerator]', symObjAddr: 0x48E0, symBinAddr: 0x2D887C, symSize: 0x80 }
  - { offset: 0x335375, size: 0x8, addend: 0x0, symName: '-[RLMManagedArray isFrozen]', symObjAddr: 0x4960, symBinAddr: 0x2D88FC, symSize: 0x10 }
  - { offset: 0x3353AD, size: 0x8, addend: 0x0, symName: '-[RLMManagedArray resolveInRealm:]', symObjAddr: 0x4970, symBinAddr: 0x2D890C, symSize: 0x15C }
  - { offset: 0x335590, size: 0x8, addend: 0x0, symName: '-[RLMManagedArray freeze]', symObjAddr: 0x4ACC, symBinAddr: 0x2D8A68, symSize: 0x80 }
  - { offset: 0x3355C8, size: 0x8, addend: 0x0, symName: '-[RLMManagedArray thaw]', symObjAddr: 0x4B4C, symBinAddr: 0x2D8AE8, symSize: 0x88 }
  - { offset: 0x3359D8, size: 0x8, addend: 0x0, symName: '-[RLMManagedArray addNotificationCallback:keyPaths:]', symObjAddr: 0x4BD4, symBinAddr: 0x2D8B70, symSize: 0x108 }
  - { offset: 0x33610E, size: 0x8, addend: 0x0, symName: '-[RLMManagedArray makeThreadSafeReference]', symObjAddr: 0x4CDC, symBinAddr: 0x2D8C78, symSize: 0x14 }
  - { offset: 0x336146, size: 0x8, addend: 0x0, symName: '-[RLMManagedArray objectiveCMetadata]', symObjAddr: 0x4CF0, symBinAddr: 0x2D8C8C, symSize: 0xC0 }
  - { offset: 0x33618E, size: 0x8, addend: 0x0, symName: '+[RLMManagedArray objectWithThreadSafeReference:metadata:realm:]', symObjAddr: 0x4DB0, symBinAddr: 0x2D8D4C, symSize: 0x1A8 }
  - { offset: 0x336347, size: 0x8, addend: 0x0, symName: '-[RLMManagedArray .cxx_destruct]', symObjAddr: 0x4F58, symBinAddr: 0x2D8EF4, symSize: 0x50 }
  - { offset: 0x33652F, size: 0x8, addend: 0x0, symName: '-[RLMManagedArray .cxx_construct]', symObjAddr: 0x4FA8, symBinAddr: 0x2D8F44, symSize: 0x50 }
  - { offset: 0x33660F, size: 0x8, addend: 0x0, symName: ____ZL15RLMInsertObjectP15RLMManagedArrayP11objc_objectm_block_invoke, symObjAddr: 0x4FF8, symBinAddr: 0x2D8F94, symSize: 0xCC }
  - { offset: 0x339705, size: 0x8, addend: 0x0, symName: '-[RLMDictionaryChange initWithChanges:]', symObjAddr: 0x0, symBinAddr: 0x2D9690, symSize: 0x7C }
  - { offset: 0x387A00, size: 0x8, addend: 0x0, symName: __ZNSt3__142__uninitialized_allocator_move_if_noexceptB8ne180100INS_9allocatorINS_12basic_stringIcNS_11char_traitsIcEENS1_IcEEEEEENS_16reverse_iteratorIPS6_EESA_SA_EET2_RT_T0_T1_SB_, symObjAddr: 0x529C, symBinAddr: 0x2DE824, symSize: 0x9C }
  - { offset: 0x38D3C1, size: 0x8, addend: 0x0, symName: __ZNSt3__16vectorINS_12basic_stringIcNS_11char_traitsIcEENS_9allocatorIcEEEENS4_IS6_EEE26__swap_out_circular_bufferERNS_14__split_bufferIS6_RS7_EE, symObjAddr: 0x51E4, symBinAddr: 0x2DE7B0, symSize: 0x74 }
  - { offset: 0x38E298, size: 0x8, addend: 0x0, symName: '-[RLMDictionaryChange initWithChanges:]', symObjAddr: 0x0, symBinAddr: 0x2D9690, symSize: 0x7C }
  - { offset: 0x38E2DF, size: 0x8, addend: 0x0, symName: '-[RLMDictionaryChange insertions]', symObjAddr: 0x7C, symBinAddr: 0x2D970C, symSize: 0x8 }
  - { offset: 0x38E324, size: 0x8, addend: 0x0, symName: __ZL7toArrayRKNSt3__16vectorIN5realm5MixedENS_9allocatorIS2_EEEE, symObjAddr: 0x84, symBinAddr: 0x2D9714, symSize: 0x108 }
  - { offset: 0x38E687, size: 0x8, addend: 0x0, symName: '-[RLMDictionaryChange deletions]', symObjAddr: 0x18C, symBinAddr: 0x2D981C, symSize: 0x8 }
  - { offset: 0x38E6CC, size: 0x8, addend: 0x0, symName: '-[RLMDictionaryChange modifications]', symObjAddr: 0x194, symBinAddr: 0x2D9824, symSize: 0x8 }
  - { offset: 0x38E711, size: 0x8, addend: 0x0, symName: '-[RLMDictionaryChange description]', symObjAddr: 0x19C, symBinAddr: 0x2D982C, symSize: 0xE8 }
  - { offset: 0x38E90D, size: 0x8, addend: 0x0, symName: '-[RLMDictionaryChange .cxx_destruct]', symObjAddr: 0x284, symBinAddr: 0x2D9914, symSize: 0x64 }
  - { offset: 0x38EDD5, size: 0x8, addend: 0x0, symName: __ZNSt3__16vectorINS_12basic_stringIcNS_11char_traitsIcEENS_9allocatorIcEEEENS4_IS6_EEE16__destroy_vectorclB8ne180100Ev, symObjAddr: 0x5094, symBinAddr: 0x2DE724, symSize: 0x40 }
  - { offset: 0x38EF78, size: 0x8, addend: 0x0, symName: '-[RLMDictionaryChange .cxx_construct]', symObjAddr: 0x2E8, symBinAddr: 0x2D9978, symSize: 0xAC }
  - { offset: 0x38F60E, size: 0x8, addend: 0x0, symName: '-[RLMManagedCollectionHandoverMetadata parentClassName]', symObjAddr: 0x394, symBinAddr: 0x2D9A24, symSize: 0x8 }
  - { offset: 0x38F645, size: 0x8, addend: 0x0, symName: '-[RLMManagedCollectionHandoverMetadata setParentClassName:]', symObjAddr: 0x39C, symBinAddr: 0x2D9A2C, symSize: 0xC }
  - { offset: 0x38F686, size: 0x8, addend: 0x0, symName: '-[RLMManagedCollectionHandoverMetadata key]', symObjAddr: 0x3A8, symBinAddr: 0x2D9A38, symSize: 0x8 }
  - { offset: 0x38F6BD, size: 0x8, addend: 0x0, symName: '-[RLMManagedCollectionHandoverMetadata setKey:]', symObjAddr: 0x3B0, symBinAddr: 0x2D9A40, symSize: 0xC }
  - { offset: 0x38F6FE, size: 0x8, addend: 0x0, symName: '-[RLMManagedCollectionHandoverMetadata .cxx_destruct]', symObjAddr: 0x3BC, symBinAddr: 0x2D9A4C, symSize: 0x30 }
  - { offset: 0x38F7B3, size: 0x8, addend: 0x0, symName: '-[RLMManagedDictionary initWithBackingCollection:parentInfo:property:]', symObjAddr: 0x3EC, symBinAddr: 0x2D9A7C, symSize: 0x1E8 }
  - { offset: 0x38FA73, size: 0x8, addend: 0x0, symName: '-[RLMManagedDictionary initWithParent:property:parentInfo:]', symObjAddr: 0x5D4, symBinAddr: 0x2D9C64, symSize: 0x124 }
  - { offset: 0x38FDA1, size: 0x8, addend: 0x0, symName: '-[RLMManagedDictionary initWithParent:property:]', symObjAddr: 0x6F8, symBinAddr: 0x2D9D88, symSize: 0x3C }
  - { offset: 0x38FDF8, size: 0x8, addend: 0x0, symName: __Z35RLMDictionaryValidateObservationKeyP8NSStringP13RLMDictionary, symObjAddr: 0x734, symBinAddr: 0x2D9DC4, symSize: 0x68 }
  - { offset: 0x38FEDF, size: 0x8, addend: 0x0, symName: __Z34RLMEnsureDictionaryObservationInfoRNSt3__110unique_ptrI18RLMObservationInfoNS_14default_deleteIS1_EEEEP8NSStringP13RLMDictionaryP11objc_object, symObjAddr: 0x79C, symBinAddr: 0x2D9E2C, symSize: 0xF8 }
  - { offset: 0x38FFE5, size: 0x8, addend: 0x0, symName: '-[RLMManagedDictionary realm]', symObjAddr: 0x894, symBinAddr: 0x2D9F24, symSize: 0x10 }
  - { offset: 0x39001C, size: 0x8, addend: 0x0, symName: '-[RLMManagedDictionary count]', symObjAddr: 0x8A4, symBinAddr: 0x2D9F34, symSize: 0x50 }
  - { offset: 0x39016A, size: 0x8, addend: 0x0, symName: '-[RLMManagedDictionary allKeys]', symObjAddr: 0x8F4, symBinAddr: 0x2D9F84, symSize: 0xA4 }
  - { offset: 0x39029F, size: 0x8, addend: 0x0, symName: __ZL14resultsToArrayR12RLMClassInfoN5realm7ResultsE, symObjAddr: 0x5438, symBinAddr: 0x2DE9C0, symSize: 0x120 }
  - { offset: 0x3904F8, size: 0x8, addend: 0x0, symName: '-[RLMManagedDictionary allValues]', symObjAddr: 0x998, symBinAddr: 0x2DA028, symSize: 0xA4 }
  - { offset: 0x390628, size: 0x8, addend: 0x0, symName: '-[RLMManagedDictionary isInvalidated]', symObjAddr: 0xA3C, symBinAddr: 0x2DA0CC, symSize: 0x54 }
  - { offset: 0x390753, size: 0x8, addend: 0x0, symName: '-[RLMManagedDictionary objectInfo]', symObjAddr: 0xA90, symBinAddr: 0x2DA120, symSize: 0x10 }
  - { offset: 0x39078A, size: 0x8, addend: 0x0, symName: '-[RLMManagedDictionary isBackedByDictionary:]', symObjAddr: 0xAA0, symBinAddr: 0x2DA130, symSize: 0x14 }
  - { offset: 0x3907D1, size: 0x8, addend: 0x0, symName: '-[RLMManagedDictionary isEqual:]', symObjAddr: 0xAB4, symBinAddr: 0x2DA144, symSize: 0x78 }
  - { offset: 0x390818, size: 0x8, addend: 0x0, symName: '-[RLMManagedDictionary countByEnumeratingWithState:objects:count:]', symObjAddr: 0xB2C, symBinAddr: 0x2DA1BC, symSize: 0x14 }
  - { offset: 0x39087B, size: 0x8, addend: 0x0, symName: '-[RLMManagedDictionary objectForKey:]', symObjAddr: 0xB40, symBinAddr: 0x2DA1D0, symSize: 0x2B0 }
  - { offset: 0x391F01, size: 0x8, addend: 0x0, symName: '-[RLMManagedDictionary setObject:forKey:]', symObjAddr: 0xDF0, symBinAddr: 0x2DA480, symSize: 0xEC }
  - { offset: 0x391F62, size: 0x8, addend: 0x0, symName: __ZL16changeDictionaryP20RLMManagedDictionaryU13block_pointerFvvE, symObjAddr: 0xEDC, symBinAddr: 0x2DA56C, symSize: 0x1B0 }
  - { offset: 0x39251D, size: 0x8, addend: 0x0, symName: '___41-[RLMManagedDictionary setObject:forKey:]_block_invoke', symObjAddr: 0x108C, symBinAddr: 0x2DA71C, symSize: 0x14C }
  - { offset: 0x392860, size: 0x8, addend: 0x0, symName: __ZN5realm12object_store10Dictionary6insertIU8__strongP11objc_object18RLMAccessorContextEEvRT0_NS_10StringDataEOT_NS_12CreatePolicyE, symObjAddr: 0x11D8, symBinAddr: 0x2DA868, symSize: 0x12A8 }
  - { offset: 0x397B89, size: 0x8, addend: 0x0, symName: '-[RLMManagedDictionary removeAllObjects]', symObjAddr: 0x2480, symBinAddr: 0x2DBB10, symSize: 0x54 }
  - { offset: 0x397BCA, size: 0x8, addend: 0x0, symName: '___40-[RLMManagedDictionary removeAllObjects]_block_invoke', symObjAddr: 0x24D4, symBinAddr: 0x2DBB64, symSize: 0x14 }
  - { offset: 0x397C0B, size: 0x8, addend: 0x0, symName: '-[RLMManagedDictionary removeObjectsForKeys:]', symObjAddr: 0x24E8, symBinAddr: 0x2DBB78, symSize: 0x110 }
  - { offset: 0x397F15, size: 0x8, addend: 0x0, symName: '___45-[RLMManagedDictionary removeObjectsForKeys:]_block_invoke', symObjAddr: 0x25F8, symBinAddr: 0x2DBC88, symSize: 0x150 }
  - { offset: 0x397FA7, size: 0x8, addend: 0x0, symName: '___copy_helper_block_ea8_32c59_ZTSKZ45-[RLMManagedDictionary removeObjectsForKeys:]E4$_18', symObjAddr: 0x2748, symBinAddr: 0x2DBDD8, symSize: 0x14 }
  - { offset: 0x397FCC, size: 0x8, addend: 0x0, symName: ___destroy_helper_block_ea8_32, symObjAddr: 0x275C, symBinAddr: 0x2DBDEC, symSize: 0x4 }
  - { offset: 0x397FE7, size: 0x8, addend: 0x0, symName: '-[RLMManagedDictionary removeObjectForKey:]', symObjAddr: 0x2760, symBinAddr: 0x2DBDF0, symSize: 0x9C }
  - { offset: 0x398038, size: 0x8, addend: 0x0, symName: '___43-[RLMManagedDictionary removeObjectForKey:]_block_invoke', symObjAddr: 0x27FC, symBinAddr: 0x2DBE8C, symSize: 0xD0 }
  - { offset: 0x3990C7, size: 0x8, addend: 0x0, symName: '-[RLMManagedDictionary enumerateKeysAndObjectsUsingBlock:]', symObjAddr: 0x28CC, symBinAddr: 0x2DBF5C, symSize: 0xA84 }
  - { offset: 0x39A804, size: 0x8, addend: 0x0, symName: __ZNK5realm12object_store10Dictionary3getINS_5MixedEEET_NS_10StringDataE, symObjAddr: 0x5558, symBinAddr: 0x2DEAE0, symSize: 0x70 }
  - { offset: 0x39A90F, size: 0x8, addend: 0x0, symName: '-[RLMManagedDictionary mergeDictionary:clear:]', symObjAddr: 0x3350, symBinAddr: 0x2DC9E0, symSize: 0x148 }
  - { offset: 0x39A97A, size: 0x8, addend: 0x0, symName: '___46-[RLMManagedDictionary mergeDictionary:clear:]_block_invoke', symObjAddr: 0x3498, symBinAddr: 0x2DCB28, symSize: 0x10C }
  - { offset: 0x39ACB6, size: 0x8, addend: 0x0, symName: '___46-[RLMManagedDictionary mergeDictionary:clear:]_block_invoke_2', symObjAddr: 0x35A4, symBinAddr: 0x2DCC34, symSize: 0x124 }
  - { offset: 0x39AD99, size: 0x8, addend: 0x0, symName: '___copy_helper_block_ea8_32c65_ZTSKZZ46-[RLMManagedDictionary mergeDictionary:clear:]EUb_E4$_19', symObjAddr: 0x36C8, symBinAddr: 0x2DCD58, symSize: 0xC }
  - { offset: 0x39ADBE, size: 0x8, addend: 0x0, symName: '-[RLMManagedDictionary setDictionary:]', symObjAddr: 0x36D4, symBinAddr: 0x2DCD64, symSize: 0x58 }
  - { offset: 0x39AE0F, size: 0x8, addend: 0x0, symName: __ZL14RLMCoerceToNilP11objc_object, symObjAddr: 0x372C, symBinAddr: 0x2DCDBC, symSize: 0xBC }
  - { offset: 0x39AEA5, size: 0x8, addend: 0x0, symName: '-[RLMManagedDictionary addEntriesFromDictionary:]', symObjAddr: 0x37E8, symBinAddr: 0x2DCE78, symSize: 0x8 }
  - { offset: 0x39AEE6, size: 0x8, addend: 0x0, symName: '-[RLMManagedDictionary valueForKeyPath:]', symObjAddr: 0x37F0, symBinAddr: 0x2DCE80, symSize: 0x158 }
  - { offset: 0x39B0F4, size: 0x8, addend: 0x0, symName: '-[RLMManagedDictionary valueForKey:]', symObjAddr: 0x3948, symBinAddr: 0x2DCFD8, symSize: 0xAC }
  - { offset: 0x39B13C, size: 0x8, addend: 0x0, symName: '-[RLMManagedDictionary setValue:forKey:]', symObjAddr: 0x39F4, symBinAddr: 0x2DD084, symSize: 0x4 }
  - { offset: 0x39B18C, size: 0x8, addend: 0x0, symName: '-[RLMManagedDictionary minOfProperty:]', symObjAddr: 0x39F8, symBinAddr: 0x2DD088, symSize: 0x144 }
  - { offset: 0x39B468, size: 0x8, addend: 0x0, symName: '-[RLMManagedDictionary maxOfProperty:]', symObjAddr: 0x3B3C, symBinAddr: 0x2DD1CC, symSize: 0x144 }
  - { offset: 0x39B718, size: 0x8, addend: 0x0, symName: '-[RLMManagedDictionary sumOfProperty:]', symObjAddr: 0x3C80, symBinAddr: 0x2DD310, symSize: 0x15C }
  - { offset: 0x39B9C9, size: 0x8, addend: 0x0, symName: '-[RLMManagedDictionary averageOfProperty:]', symObjAddr: 0x3DDC, symBinAddr: 0x2DD46C, symSize: 0x144 }
  - { offset: 0x39BC7A, size: 0x8, addend: 0x0, symName: '-[RLMManagedDictionary deleteObjectsFromRealm]', symObjAddr: 0x3F20, symBinAddr: 0x2DD5B0, symSize: 0x208 }
  - { offset: 0x39C061, size: 0x8, addend: 0x0, symName: __ZL15RLMTypeToString15RLMPropertyType, symObjAddr: 0x4128, symBinAddr: 0x2DD7B8, symSize: 0x24 }
  - { offset: 0x39C090, size: 0x8, addend: 0x0, symName: '-[RLMManagedDictionary sortedResultsUsingDescriptors:]', symObjAddr: 0x414C, symBinAddr: 0x2DD7DC, symSize: 0x13C }
  - { offset: 0x39C3A5, size: 0x8, addend: 0x0, symName: '-[RLMManagedDictionary sortedResultsUsingKeyPath:ascending:]', symObjAddr: 0x4288, symBinAddr: 0x2DD918, symSize: 0x11C }
  - { offset: 0x39C3FD, size: 0x8, addend: 0x0, symName: '-[RLMManagedDictionary distinctResultsUsingKeyPaths:]', symObjAddr: 0x43A4, symBinAddr: 0x2DDA34, symSize: 0x110 }
  - { offset: 0x39C559, size: 0x8, addend: 0x0, symName: '-[RLMManagedDictionary objectsWithPredicate:]', symObjAddr: 0x44B4, symBinAddr: 0x2DDB44, symSize: 0x1B8 }
  - { offset: 0x39C6CC, size: 0x8, addend: 0x0, symName: '-[RLMManagedDictionary addObserver:forKeyPath:options:context:]', symObjAddr: 0x466C, symBinAddr: 0x2DDCFC, symSize: 0xCC }
  - { offset: 0x39C74D, size: 0x8, addend: 0x0, symName: '-[RLMManagedDictionary tableView]', symObjAddr: 0x4738, symBinAddr: 0x2DDDC8, symSize: 0xB4 }
  - { offset: 0x39C875, size: 0x8, addend: 0x0, symName: '-[RLMManagedDictionary fastEnumerator]', symObjAddr: 0x47EC, symBinAddr: 0x2DDE7C, symSize: 0x88 }
  - { offset: 0x39C9AA, size: 0x8, addend: 0x0, symName: '-[RLMManagedDictionary isFrozen]', symObjAddr: 0x4874, symBinAddr: 0x2DDF04, symSize: 0x10 }
  - { offset: 0x39C9E2, size: 0x8, addend: 0x0, symName: '-[RLMManagedDictionary resolveInRealm:]', symObjAddr: 0x4884, symBinAddr: 0x2DDF14, symSize: 0x164 }
  - { offset: 0x39CBC5, size: 0x8, addend: 0x0, symName: '-[RLMManagedDictionary freeze]', symObjAddr: 0x49E8, symBinAddr: 0x2DE078, symSize: 0x80 }
  - { offset: 0x39CBFD, size: 0x8, addend: 0x0, symName: '-[RLMManagedDictionary thaw]', symObjAddr: 0x4A68, symBinAddr: 0x2DE0F8, symSize: 0x88 }
  - { offset: 0x39D4C2, size: 0x8, addend: 0x0, symName: '-[RLMManagedDictionary addNotificationCallback:keyPaths:]', symObjAddr: 0x4AF0, symBinAddr: 0x2DE180, symSize: 0x224 }
  - { offset: 0x39DF78, size: 0x8, addend: 0x0, symName: __ZN12_GLOBAL__N_125DictionaryCallbackWrapperD1Ev, symObjAddr: 0x4D14, symBinAddr: 0x2DE3A4, symSize: 0x38 }
  - { offset: 0x39E034, size: 0x8, addend: 0x0, symName: '-[RLMManagedDictionary makeThreadSafeReference]', symObjAddr: 0x4D4C, symBinAddr: 0x2DE3DC, symSize: 0x14 }
  - { offset: 0x39E06C, size: 0x8, addend: 0x0, symName: '-[RLMManagedDictionary objectiveCMetadata]', symObjAddr: 0x4D60, symBinAddr: 0x2DE3F0, symSize: 0xC8 }
  - { offset: 0x39E0F6, size: 0x8, addend: 0x0, symName: '+[RLMManagedDictionary objectWithThreadSafeReference:metadata:realm:]', symObjAddr: 0x4E28, symBinAddr: 0x2DE4B8, symSize: 0x1B8 }
  - { offset: 0x39E302, size: 0x8, addend: 0x0, symName: '-[RLMManagedDictionary .cxx_destruct]', symObjAddr: 0x4FE0, symBinAddr: 0x2DE670, symSize: 0x64 }
  - { offset: 0x39E4DD, size: 0x8, addend: 0x0, symName: '-[RLMManagedDictionary .cxx_construct]', symObjAddr: 0x5044, symBinAddr: 0x2DE6D4, symSize: 0x50 }
  - { offset: 0x39E61F, size: 0x8, addend: 0x0, symName: __ZNSt3__16vectorINS_12basic_stringIcNS_11char_traitsIcEENS_9allocatorIcEEEENS4_IS6_EEE7__clearB8ne180100Ev, symObjAddr: 0x50D4, symBinAddr: 0x2DE764, symSize: 0x4C }
  - { offset: 0x39E9DB, size: 0x8, addend: 0x0, symName: __ZNSt3__114__split_bufferINS_12basic_stringIcNS_11char_traitsIcEENS_9allocatorIcEEEERNS4_IS6_EEED2Ev, symObjAddr: 0x53B0, symBinAddr: 0x2DE938, symSize: 0x34 }
  - { offset: 0x39EC4E, size: 0x8, addend: 0x0, symName: __ZNSt3__128__exception_guard_exceptionsINS_29_AllocatorDestroyRangeReverseINS_9allocatorINS_12basic_stringIcNS_11char_traitsIcEENS2_IcEEEEEENS_16reverse_iteratorIPS7_EEEEED2B8ne180100Ev, symObjAddr: 0x5338, symBinAddr: 0x2DE8C0, symSize: 0x34 }
  - { offset: 0x39EC86, size: 0x8, addend: 0x0, symName: __ZNKSt3__129_AllocatorDestroyRangeReverseINS_9allocatorINS_12basic_stringIcNS_11char_traitsIcEENS1_IcEEEEEENS_16reverse_iteratorIPS6_EEEclB8ne180100Ev, symObjAddr: 0x536C, symBinAddr: 0x2DE8F4, symSize: 0x44 }
  - { offset: 0x39EEA7, size: 0x8, addend: 0x0, symName: __ZNSt3__114__split_bufferINS_12basic_stringIcNS_11char_traitsIcEENS_9allocatorIcEEEERNS4_IS6_EEE17__destruct_at_endB8ne180100EPS6_, symObjAddr: 0x53E4, symBinAddr: 0x2DE96C, symSize: 0x54 }
  - { offset: 0x39F102, size: 0x8, addend: 0x0, symName: __ZN5realm4util14UniqueFunctionIFvNS_19DictionaryChangeSetEEE12SpecificImplIN12_GLOBAL__N_125DictionaryCallbackWrapperEED1Ev, symObjAddr: 0x565C, symBinAddr: 0x2DEB50, symSize: 0x40 }
  - { offset: 0x39F1CC, size: 0x8, addend: 0x0, symName: __ZN5realm4util14UniqueFunctionIFvNS_19DictionaryChangeSetEEE12SpecificImplIN12_GLOBAL__N_125DictionaryCallbackWrapperEED0Ev, symObjAddr: 0x569C, symBinAddr: 0x2DEB90, symSize: 0x40 }
  - { offset: 0x39F349, size: 0x8, addend: 0x0, symName: __ZN5realm4util14UniqueFunctionIFvNS_19DictionaryChangeSetEEE12SpecificImplIN12_GLOBAL__N_125DictionaryCallbackWrapperEE4callEOS2_, symObjAddr: 0x56DC, symBinAddr: 0x2DEBD0, symSize: 0x10C }
  - { offset: 0x3A4A56, size: 0x8, addend: 0x0, symName: '-[RLMManagedSetHandoverMetadata parentClassName]', symObjAddr: 0x0, symBinAddr: 0x2DECDC, symSize: 0x8 }
  - { offset: 0x3FA398, size: 0x8, addend: 0x0, symName: '-[RLMManagedSetHandoverMetadata parentClassName]', symObjAddr: 0x0, symBinAddr: 0x2DECDC, symSize: 0x8 }
  - { offset: 0x3FA3CF, size: 0x8, addend: 0x0, symName: '-[RLMManagedSetHandoverMetadata setParentClassName:]', symObjAddr: 0x8, symBinAddr: 0x2DECE4, symSize: 0xC }
  - { offset: 0x3FA410, size: 0x8, addend: 0x0, symName: '-[RLMManagedSetHandoverMetadata key]', symObjAddr: 0x14, symBinAddr: 0x2DECF0, symSize: 0x8 }
  - { offset: 0x3FA447, size: 0x8, addend: 0x0, symName: '-[RLMManagedSetHandoverMetadata setKey:]', symObjAddr: 0x1C, symBinAddr: 0x2DECF8, symSize: 0xC }
  - { offset: 0x3FA488, size: 0x8, addend: 0x0, symName: '-[RLMManagedSetHandoverMetadata .cxx_destruct]', symObjAddr: 0x28, symBinAddr: 0x2DED04, symSize: 0x30 }
  - { offset: 0x3FA50F, size: 0x8, addend: 0x0, symName: '-[RLMManagedSet initWithBackingCollection:parentInfo:property:]', symObjAddr: 0x58, symBinAddr: 0x2DED34, symSize: 0x188 }
  - { offset: 0x3FA7AE, size: 0x8, addend: 0x0, symName: '-[RLMManagedSet initWithParent:property:]', symObjAddr: 0x1E0, symBinAddr: 0x2DEEBC, symSize: 0x120 }
  - { offset: 0x3FAAE1, size: 0x8, addend: 0x0, symName: '-[RLMManagedSet initWithParent:property:parentInfo:]', symObjAddr: 0x300, symBinAddr: 0x2DEFDC, symSize: 0x124 }
  - { offset: 0x3FAE0E, size: 0x8, addend: 0x0, symName: __Z28RLMValidateSetObservationKeyP8NSStringP6RLMSet, symObjAddr: 0x424, symBinAddr: 0x2DF100, symSize: 0x68 }
  - { offset: 0x3FAEF5, size: 0x8, addend: 0x0, symName: __Z27RLMEnsureSetObservationInfoRNSt3__110unique_ptrI18RLMObservationInfoNS_14default_deleteIS1_EEEEP8NSStringP6RLMSetP11objc_object, symObjAddr: 0x48C, symBinAddr: 0x2DF168, symSize: 0xF8 }
  - { offset: 0x3FAFFB, size: 0x8, addend: 0x0, symName: '-[RLMManagedSet realm]', symObjAddr: 0x584, symBinAddr: 0x2DF260, symSize: 0x10 }
  - { offset: 0x3FB032, size: 0x8, addend: 0x0, symName: '-[RLMManagedSet count]', symObjAddr: 0x594, symBinAddr: 0x2DF270, symSize: 0x50 }
  - { offset: 0x3FB17B, size: 0x8, addend: 0x0, symName: '-[RLMManagedSet allObjects]', symObjAddr: 0x5E4, symBinAddr: 0x2DF2C0, symSize: 0x160 }
  - { offset: 0x3FB1D5, size: 0x8, addend: 0x0, symName: '-[RLMManagedSet isInvalidated]', symObjAddr: 0x744, symBinAddr: 0x2DF420, symSize: 0x54 }
  - { offset: 0x3FB2FC, size: 0x8, addend: 0x0, symName: '-[RLMManagedSet objectInfo]', symObjAddr: 0x798, symBinAddr: 0x2DF474, symSize: 0x10 }
  - { offset: 0x3FB333, size: 0x8, addend: 0x0, symName: '-[RLMManagedSet isBackedBySet:]', symObjAddr: 0x7A8, symBinAddr: 0x2DF484, symSize: 0x14 }
  - { offset: 0x3FB37A, size: 0x8, addend: 0x0, symName: '-[RLMManagedSet isEqual:]', symObjAddr: 0x7BC, symBinAddr: 0x2DF498, symSize: 0x78 }
  - { offset: 0x3FB3C1, size: 0x8, addend: 0x0, symName: '-[RLMManagedSet hash]', symObjAddr: 0x834, symBinAddr: 0x2DF510, symSize: 0x2C }
  - { offset: 0x3FB3F8, size: 0x8, addend: 0x0, symName: '-[RLMManagedSet countByEnumeratingWithState:objects:count:]', symObjAddr: 0x860, symBinAddr: 0x2DF53C, symSize: 0x14 }
  - { offset: 0x3FB481, size: 0x8, addend: 0x0, symName: '-[RLMManagedSet addObject:]', symObjAddr: 0x874, symBinAddr: 0x2DF550, symSize: 0x118 }
  - { offset: 0x3FB507, size: 0x8, addend: 0x0, symName: __ZL9changeSetP13RLMManagedSetU13block_pointerFvvE, symObjAddr: 0xA28, symBinAddr: 0x2DF704, symSize: 0x1A8 }
  - { offset: 0x3FB828, size: 0x8, addend: 0x0, symName: '-[RLMManagedSet addObjects:]', symObjAddr: 0x98C, symBinAddr: 0x2DF668, symSize: 0x9C }
  - { offset: 0x3FBCBB, size: 0x8, addend: 0x0, symName: '___28-[RLMManagedSet addObjects:]_block_invoke', symObjAddr: 0xBD0, symBinAddr: 0x2DF8AC, symSize: 0x1B8 }
  - { offset: 0x3FBFA9, size: 0x8, addend: 0x0, symName: __ZNK5realm12object_store3Set8dispatchIZNS1_6insertIRU8__strongKP11objc_object18RLMAccessorContextEENSt3__14pairImbEERT0_OT_NS_12CreatePolicyEEUlSE_E_EEDaSF_, symObjAddr: 0x44A0, symBinAddr: 0x2E317C, symSize: 0x504 }
  - { offset: 0x3FC676, size: 0x8, addend: 0x0, symName: '-[RLMManagedSet removeObject:]', symObjAddr: 0xD88, symBinAddr: 0x2DFA64, symSize: 0x118 }
  - { offset: 0x3FC6E0, size: 0x8, addend: 0x0, symName: '-[RLMManagedSet removeAllObjects]', symObjAddr: 0xEA0, symBinAddr: 0x2DFB7C, symSize: 0x54 }
  - { offset: 0x3FC720, size: 0x8, addend: 0x0, symName: '___33-[RLMManagedSet removeAllObjects]_block_invoke', symObjAddr: 0xEF4, symBinAddr: 0x2DFBD0, symSize: 0x14 }
  - { offset: 0x3FC75F, size: 0x8, addend: 0x0, symName: '-[RLMManagedSet replaceAllObjectsWithObjects:]', symObjAddr: 0xF08, symBinAddr: 0x2DFBE4, symSize: 0x9C }
  - { offset: 0x3FCBD7, size: 0x8, addend: 0x0, symName: '___46-[RLMManagedSet replaceAllObjectsWithObjects:]_block_invoke', symObjAddr: 0xFA4, symBinAddr: 0x2DFC80, symSize: 0x250 }
  - { offset: 0x3FCF10, size: 0x8, addend: 0x0, symName: __ZNK5realm12object_store3Set8dispatchIZNS1_6insertIRU8__strongP11objc_object18RLMAccessorContextEENSt3__14pairImbEERT0_OT_NS_12CreatePolicyEEUlSE_E_EEDaSF_, symObjAddr: 0x3F9C, symBinAddr: 0x2E2C78, symSize: 0x504 }
  - { offset: 0x3FD5DF, size: 0x8, addend: 0x0, symName: '-[RLMManagedSet managedObjectFrom:]', symObjAddr: 0x11F4, symBinAddr: 0x2DFED0, symSize: 0x1F0 }
  - { offset: 0x3FD695, size: 0x8, addend: 0x0, symName: __ZL15RLMTypeToString15RLMPropertyType, symObjAddr: 0x13E4, symBinAddr: 0x2E00C0, symSize: 0x24 }
  - { offset: 0x3FD6C4, size: 0x8, addend: 0x0, symName: '-[RLMManagedSet isSubsetOfSet:]', symObjAddr: 0x1408, symBinAddr: 0x2E00E4, symSize: 0x64 }
  - { offset: 0x3FD71C, size: 0x8, addend: 0x0, symName: '-[RLMManagedSet intersectsSet:]', symObjAddr: 0x146C, symBinAddr: 0x2E0148, symSize: 0x64 }
  - { offset: 0x3FE1F9, size: 0x8, addend: 0x0, symName: '-[RLMManagedSet containsObject:]', symObjAddr: 0x14D0, symBinAddr: 0x2E01AC, symSize: 0x38C }
  - { offset: 0x3FEB68, size: 0x8, addend: 0x0, symName: '-[RLMManagedSet isEqualToSet:]', symObjAddr: 0x185C, symBinAddr: 0x2E0538, symSize: 0x5C }
  - { offset: 0x3FEBC0, size: 0x8, addend: 0x0, symName: '-[RLMManagedSet setSet:]', symObjAddr: 0x18B8, symBinAddr: 0x2E0594, symSize: 0xFC }
  - { offset: 0x3FEC2E, size: 0x8, addend: 0x0, symName: __ZL24ensureInWriteTransactionP8NSStringP13RLMManagedSetS2_, symObjAddr: 0x19B4, symBinAddr: 0x2E0690, symSize: 0x130 }
  - { offset: 0x3FEDA2, size: 0x8, addend: 0x0, symName: '___24-[RLMManagedSet setSet:]_block_invoke', symObjAddr: 0x1AE4, symBinAddr: 0x2E07C0, symSize: 0x250 }
  - { offset: 0x3FF0DC, size: 0x8, addend: 0x0, symName: '-[RLMManagedSet intersectSet:]', symObjAddr: 0x1D34, symBinAddr: 0x2E0A10, symSize: 0xFC }
  - { offset: 0x3FF14A, size: 0x8, addend: 0x0, symName: '___30-[RLMManagedSet intersectSet:]_block_invoke', symObjAddr: 0x1E30, symBinAddr: 0x2E0B0C, symSize: 0x18 }
  - { offset: 0x3FF19B, size: 0x8, addend: 0x0, symName: '-[RLMManagedSet unionSet:]', symObjAddr: 0x1E48, symBinAddr: 0x2E0B24, symSize: 0xFC }
  - { offset: 0x3FF209, size: 0x8, addend: 0x0, symName: '___26-[RLMManagedSet unionSet:]_block_invoke', symObjAddr: 0x1F44, symBinAddr: 0x2E0C20, symSize: 0x18 }
  - { offset: 0x3FF25A, size: 0x8, addend: 0x0, symName: '-[RLMManagedSet minusSet:]', symObjAddr: 0x1F5C, symBinAddr: 0x2E0C38, symSize: 0xFC }
  - { offset: 0x3FF2C8, size: 0x8, addend: 0x0, symName: '___26-[RLMManagedSet minusSet:]_block_invoke', symObjAddr: 0x2058, symBinAddr: 0x2E0D34, symSize: 0x18 }
  - { offset: 0x3FF319, size: 0x8, addend: 0x0, symName: '-[RLMManagedSet objectAtIndex:]', symObjAddr: 0x2070, symBinAddr: 0x2E0D4C, symSize: 0xC4 }
  - { offset: 0x3FF67D, size: 0x8, addend: 0x0, symName: '-[RLMManagedSet objectsAtIndexes:]', symObjAddr: 0x2134, symBinAddr: 0x2E0E10, symSize: 0x198 }
  - { offset: 0x3FF913, size: 0x8, addend: 0x0, symName: '-[RLMManagedSet firstObject]', symObjAddr: 0x22CC, symBinAddr: 0x2E0FA8, symSize: 0xE0 }
  - { offset: 0x3FFC54, size: 0x8, addend: 0x0, symName: '-[RLMManagedSet lastObject]', symObjAddr: 0x23AC, symBinAddr: 0x2E1088, symSize: 0xE0 }
  - { offset: 0x3FFFAD, size: 0x8, addend: 0x0, symName: '-[RLMManagedSet valueForKeyPath:]', symObjAddr: 0x248C, symBinAddr: 0x2E1168, symSize: 0x158 }
  - { offset: 0x4001AA, size: 0x8, addend: 0x0, symName: '-[RLMManagedSet valueForKey:]', symObjAddr: 0x25E4, symBinAddr: 0x2E12C0, symSize: 0x12C }
  - { offset: 0x400322, size: 0x8, addend: 0x0, symName: '-[RLMManagedSet setValue:forKey:]', symObjAddr: 0x2710, symBinAddr: 0x2E13EC, symSize: 0x1C0 }
  - { offset: 0x4007E8, size: 0x8, addend: 0x0, symName: '-[RLMManagedSet minOfProperty:]', symObjAddr: 0x28D0, symBinAddr: 0x2E15AC, symSize: 0x108 }
  - { offset: 0x400C11, size: 0x8, addend: 0x0, symName: '-[RLMManagedSet maxOfProperty:]', symObjAddr: 0x29D8, symBinAddr: 0x2E16B4, symSize: 0x108 }
  - { offset: 0x400EC5, size: 0x8, addend: 0x0, symName: '-[RLMManagedSet sumOfProperty:]', symObjAddr: 0x2AE0, symBinAddr: 0x2E17BC, symSize: 0xF8 }
  - { offset: 0x401125, size: 0x8, addend: 0x0, symName: '-[RLMManagedSet averageOfProperty:]', symObjAddr: 0x2BD8, symBinAddr: 0x2E18B4, symSize: 0x108 }
  - { offset: 0x4013DA, size: 0x8, addend: 0x0, symName: '-[RLMManagedSet deleteObjectsFromRealm]', symObjAddr: 0x2CE0, symBinAddr: 0x2E19BC, symSize: 0xE0 }
  - { offset: 0x401594, size: 0x8, addend: 0x0, symName: '-[RLMManagedSet sortedResultsUsingDescriptors:]', symObjAddr: 0x2DC0, symBinAddr: 0x2E1A9C, symSize: 0x114 }
  - { offset: 0x4018AB, size: 0x8, addend: 0x0, symName: '-[RLMManagedSet distinctResultsUsingKeyPaths:]', symObjAddr: 0x2ED4, symBinAddr: 0x2E1BB0, symSize: 0x110 }
  - { offset: 0x401A03, size: 0x8, addend: 0x0, symName: '-[RLMManagedSet objectsWithPredicate:]', symObjAddr: 0x2FE4, symBinAddr: 0x2E1CC0, symSize: 0x1AC }
  - { offset: 0x401B72, size: 0x8, addend: 0x0, symName: '-[RLMManagedSet sectionedResultsSortedUsingKeyPath:ascending:keyBlock:]', symObjAddr: 0x3190, symBinAddr: 0x2E1E6C, symSize: 0xD4 }
  - { offset: 0x401BDA, size: 0x8, addend: 0x0, symName: '-[RLMManagedSet sectionedResultsUsingSortDescriptors:keyBlock:]', symObjAddr: 0x3264, symBinAddr: 0x2E1F40, symSize: 0xC4 }
  - { offset: 0x401C32, size: 0x8, addend: 0x0, symName: '-[RLMManagedSet addObserver:forKeyPath:options:context:]', symObjAddr: 0x3328, symBinAddr: 0x2E2004, symSize: 0xCC }
  - { offset: 0x401CB3, size: 0x8, addend: 0x0, symName: '-[RLMManagedSet fastEnumerator]', symObjAddr: 0x33F4, symBinAddr: 0x2E20D0, symSize: 0x80 }
  - { offset: 0x401DE4, size: 0x8, addend: 0x0, symName: '-[RLMManagedSet tableView]', symObjAddr: 0x3474, symBinAddr: 0x2E2150, symSize: 0x88 }
  - { offset: 0x401F10, size: 0x8, addend: 0x0, symName: '-[RLMManagedSet isFrozen]', symObjAddr: 0x34FC, symBinAddr: 0x2E21D8, symSize: 0x10 }
  - { offset: 0x401F48, size: 0x8, addend: 0x0, symName: '-[RLMManagedSet resolveInRealm:]', symObjAddr: 0x350C, symBinAddr: 0x2E21E8, symSize: 0x15C }
  - { offset: 0x402127, size: 0x8, addend: 0x0, symName: '-[RLMManagedSet freeze]', symObjAddr: 0x3668, symBinAddr: 0x2E2344, symSize: 0x80 }
  - { offset: 0x40215F, size: 0x8, addend: 0x0, symName: '-[RLMManagedSet thaw]', symObjAddr: 0x36E8, symBinAddr: 0x2E23C4, symSize: 0x88 }
  - { offset: 0x40256F, size: 0x8, addend: 0x0, symName: '-[RLMManagedSet addNotificationCallback:keyPaths:]', symObjAddr: 0x3770, symBinAddr: 0x2E244C, symSize: 0x108 }
  - { offset: 0x402C48, size: 0x8, addend: 0x0, symName: '-[RLMManagedSet makeThreadSafeReference]', symObjAddr: 0x3878, symBinAddr: 0x2E2554, symSize: 0x14 }
  - { offset: 0x402C80, size: 0x8, addend: 0x0, symName: '-[RLMManagedSet objectiveCMetadata]', symObjAddr: 0x388C, symBinAddr: 0x2E2568, symSize: 0xC0 }
  - { offset: 0x402CC8, size: 0x8, addend: 0x0, symName: '+[RLMManagedSet objectWithThreadSafeReference:metadata:realm:]', symObjAddr: 0x394C, symBinAddr: 0x2E2628, symSize: 0x1A8 }
  - { offset: 0x402E81, size: 0x8, addend: 0x0, symName: '-[RLMManagedSet .cxx_destruct]', symObjAddr: 0x3AF4, symBinAddr: 0x2E27D0, symSize: 0x50 }
  - { offset: 0x40305C, size: 0x8, addend: 0x0, symName: '-[RLMManagedSet .cxx_construct]', symObjAddr: 0x3B44, symBinAddr: 0x2E2820, symSize: 0x50 }
  - { offset: 0x40313C, size: 0x8, addend: 0x0, symName: ____ZL15RLMInsertObjectP13RLMManagedSetP11objc_object_block_invoke, symObjAddr: 0x3B94, symBinAddr: 0x2E2870, symSize: 0xBC }
  - { offset: 0x403A66, size: 0x8, addend: 0x0, symName: ____ZL15RLMRemoveObjectP13RLMManagedSetP11objc_object_block_invoke, symObjAddr: 0x3C50, symBinAddr: 0x2E292C, symSize: 0x34C }
  - { offset: 0x409679, size: 0x8, addend: 0x0, symName: '-[RLMMigration initWithRealm:oldRealm:schema:]', symObjAddr: 0x0, symBinAddr: 0x2E3680, symSize: 0xC8 }
  - { offset: 0x45393D, size: 0x8, addend: 0x0, symName: '-[RLMMigration initWithRealm:oldRealm:schema:]', symObjAddr: 0x0, symBinAddr: 0x2E3680, symSize: 0xC8 }
  - { offset: 0x4539A4, size: 0x8, addend: 0x0, symName: '-[RLMMigration oldSchema]', symObjAddr: 0xC8, symBinAddr: 0x2E3748, symSize: 0x8 }
  - { offset: 0x4539DB, size: 0x8, addend: 0x0, symName: '-[RLMMigration newSchema]', symObjAddr: 0xD0, symBinAddr: 0x2E3750, symSize: 0x20 }
  - { offset: 0x453B26, size: 0x8, addend: 0x0, symName: '-[RLMMigration enumerateObjects:block:]', symObjAddr: 0xF0, symBinAddr: 0x2E3770, symSize: 0x538 }
  - { offset: 0x453DA6, size: 0x8, addend: 0x0, symName: '-[RLMMigration execute:objectClass:]', symObjAddr: 0x628, symBinAddr: 0x2E3CA8, symSize: 0x2FC }
  - { offset: 0x453E71, size: 0x8, addend: 0x0, symName: '-[RLMMigration createObject:withValue:]', symObjAddr: 0x924, symBinAddr: 0x2E3FA4, symSize: 0x20 }
  - { offset: 0x453EC8, size: 0x8, addend: 0x0, symName: '-[RLMMigration createObject:withObject:]', symObjAddr: 0x944, symBinAddr: 0x2E3FC4, symSize: 0x1C }
  - { offset: 0x453F1F, size: 0x8, addend: 0x0, symName: '-[RLMMigration deleteObject:]', symObjAddr: 0x960, symBinAddr: 0x2E3FE0, symSize: 0x8 }
  - { offset: 0x453FDF, size: 0x8, addend: 0x0, symName: '-[RLMMigration deleteDataForClassName:]', symObjAddr: 0x968, symBinAddr: 0x2E3FE8, symSize: 0x13C }
  - { offset: 0x4540EA, size: 0x8, addend: 0x0, symName: '-[RLMMigration renamePropertyForClass:oldName:newName:]', symObjAddr: 0xAA4, symBinAddr: 0x2E4124, symSize: 0x15C }
  - { offset: 0x4542DC, size: 0x8, addend: 0x0, symName: '-[RLMMigration .cxx_destruct]', symObjAddr: 0xC00, symBinAddr: 0x2E4280, symSize: 0x30 }
  - { offset: 0x45618C, size: 0x8, addend: 0x0, symName: '-[RLMObject init]', symObjAddr: 0x0, symBinAddr: 0x2E42B0, symSize: 0x34 }
  - { offset: 0x461561, size: 0x8, addend: 0x0, symName: '-[RLMObject init]', symObjAddr: 0x0, symBinAddr: 0x2E42B0, symSize: 0x34 }
  - { offset: 0x461598, size: 0x8, addend: 0x0, symName: '-[RLMObject initWithValue:]', symObjAddr: 0x34, symBinAddr: 0x2E42E4, symSize: 0xC8 }
  - { offset: 0x461609, size: 0x8, addend: 0x0, symName: '+[RLMObject createInDefaultRealmWithValue:]', symObjAddr: 0xFC, symBinAddr: 0x2E43AC, symSize: 0xC8 }
  - { offset: 0x461650, size: 0x8, addend: 0x0, symName: '+[RLMObject createInRealm:withValue:]', symObjAddr: 0x1C4, symBinAddr: 0x2E4474, symSize: 0xB4 }
  - { offset: 0x4616A7, size: 0x8, addend: 0x0, symName: '+[RLMObject createOrUpdateInDefaultRealmWithValue:]', symObjAddr: 0x278, symBinAddr: 0x2E4528, symSize: 0x9C }
  - { offset: 0x4616EE, size: 0x8, addend: 0x0, symName: '+[RLMObject createOrUpdateModifiedInDefaultRealmWithValue:]', symObjAddr: 0x314, symBinAddr: 0x2E45C4, symSize: 0x9C }
  - { offset: 0x461735, size: 0x8, addend: 0x0, symName: '+[RLMObject createOrUpdateInRealm:withValue:]', symObjAddr: 0x3B0, symBinAddr: 0x2E4660, symSize: 0xBC }
  - { offset: 0x4617A7, size: 0x8, addend: 0x0, symName: '+[RLMObject createOrUpdateModifiedInRealm:withValue:]', symObjAddr: 0x46C, symBinAddr: 0x2E471C, symSize: 0xBC }
  - { offset: 0x46180B, size: 0x8, addend: 0x0, symName: '-[RLMObject objectForKeyedSubscript:]', symObjAddr: 0x528, symBinAddr: 0x2E47D8, symSize: 0x20 }
  - { offset: 0x461852, size: 0x8, addend: 0x0, symName: '-[RLMObject setObject:forKeyedSubscript:]', symObjAddr: 0x548, symBinAddr: 0x2E47F8, symSize: 0x8 }
  - { offset: 0x4618A1, size: 0x8, addend: 0x0, symName: '+[RLMObject allObjects]', symObjAddr: 0x550, symBinAddr: 0x2E4800, symSize: 0x9C }
  - { offset: 0x461911, size: 0x8, addend: 0x0, symName: '+[RLMObject allObjectsInRealm:]', symObjAddr: 0x5EC, symBinAddr: 0x2E489C, symSize: 0x60 }
  - { offset: 0x461965, size: 0x8, addend: 0x0, symName: '+[RLMObject objectsWhere:]', symObjAddr: 0x64C, symBinAddr: 0x2E48FC, symSize: 0x30 }
  - { offset: 0x4619CD, size: 0x8, addend: 0x0, symName: '+[RLMObject objectsWhere:args:]', symObjAddr: 0x67C, symBinAddr: 0x2E492C, symSize: 0x6C }
  - { offset: 0x461A24, size: 0x8, addend: 0x0, symName: '+[RLMObject objectsInRealm:where:]', symObjAddr: 0x6E8, symBinAddr: 0x2E4998, symSize: 0x30 }
  - { offset: 0x461A9C, size: 0x8, addend: 0x0, symName: '+[RLMObject objectsInRealm:where:args:]', symObjAddr: 0x718, symBinAddr: 0x2E49C8, symSize: 0xAC }
  - { offset: 0x461B03, size: 0x8, addend: 0x0, symName: '+[RLMObject objectsWithPredicate:]', symObjAddr: 0x7C4, symBinAddr: 0x2E4A74, symSize: 0xC4 }
  - { offset: 0x461B57, size: 0x8, addend: 0x0, symName: '+[RLMObject objectsInRealm:withPredicate:]', symObjAddr: 0x888, symBinAddr: 0x2E4B38, symSize: 0xB0 }
  - { offset: 0x461BBB, size: 0x8, addend: 0x0, symName: '+[RLMObject objectForPrimaryKey:]', symObjAddr: 0x938, symBinAddr: 0x2E4BE8, symSize: 0xC4 }
  - { offset: 0x461C2B, size: 0x8, addend: 0x0, symName: '+[RLMObject objectInRealm:forPrimaryKey:]', symObjAddr: 0x9FC, symBinAddr: 0x2E4CAC, symSize: 0xB0 }
  - { offset: 0x461C8F, size: 0x8, addend: 0x0, symName: '-[RLMObject isEqualToObject:]', symObjAddr: 0xAAC, symBinAddr: 0x2E4D5C, symSize: 0x7C }
  - { offset: 0x461CFA, size: 0x8, addend: 0x0, symName: '-[RLMObject freeze]', symObjAddr: 0xB28, symBinAddr: 0x2E4DD8, symSize: 0x4 }
  - { offset: 0x461D32, size: 0x8, addend: 0x0, symName: '-[RLMObject freeze]', symObjAddr: 0xB28, symBinAddr: 0x2E4DD8, symSize: 0x4 }
  - { offset: 0x461D4F, size: 0x8, addend: 0x0, symName: '-[RLMObject thaw]', symObjAddr: 0xB2C, symBinAddr: 0x2E4DDC, symSize: 0x4 }
  - { offset: 0x461D87, size: 0x8, addend: 0x0, symName: '-[RLMObject thaw]', symObjAddr: 0xB2C, symBinAddr: 0x2E4DDC, symSize: 0x4 }
  - { offset: 0x461DA4, size: 0x8, addend: 0x0, symName: '-[RLMObject isFrozen]', symObjAddr: 0xB30, symBinAddr: 0x2E4DE0, symSize: 0x8 }
  - { offset: 0x461DDB, size: 0x8, addend: 0x0, symName: '-[RLMObject addNotificationBlock:]', symObjAddr: 0xB38, symBinAddr: 0x2E4DE8, symSize: 0x28 }
  - { offset: 0x461E22, size: 0x8, addend: 0x0, symName: '-[RLMObject addNotificationBlock:queue:]', symObjAddr: 0xB60, symBinAddr: 0x2E4E10, symSize: 0x24 }
  - { offset: 0x461E79, size: 0x8, addend: 0x0, symName: '-[RLMObject addNotificationBlock:keyPaths:]', symObjAddr: 0xB84, symBinAddr: 0x2E4E34, symSize: 0x28 }
  - { offset: 0x461ED0, size: 0x8, addend: 0x0, symName: '-[RLMObject addNotificationBlock:keyPaths:queue:]', symObjAddr: 0xBAC, symBinAddr: 0x2E4E5C, symSize: 0x28 }
  - { offset: 0x461F37, size: 0x8, addend: 0x0, symName: '+[RLMObject className]', symObjAddr: 0xBD4, symBinAddr: 0x2E4E84, symSize: 0x3C }
  - { offset: 0x461F6E, size: 0x8, addend: 0x0, symName: '+[RLMObject indexedProperties]', symObjAddr: 0xC10, symBinAddr: 0x2E4EC0, symSize: 0x10 }
  - { offset: 0x461FA1, size: 0x8, addend: 0x0, symName: '+[RLMObject linkingObjectsProperties]', symObjAddr: 0xC20, symBinAddr: 0x2E4ED0, symSize: 0x10 }
  - { offset: 0x461FD4, size: 0x8, addend: 0x0, symName: '+[RLMObject defaultPropertyValues]', symObjAddr: 0xC30, symBinAddr: 0x2E4EE0, symSize: 0x8 }
  - { offset: 0x462007, size: 0x8, addend: 0x0, symName: '+[RLMObject primaryKey]', symObjAddr: 0xC38, symBinAddr: 0x2E4EE8, symSize: 0x8 }
  - { offset: 0x46203A, size: 0x8, addend: 0x0, symName: '+[RLMObject ignoredProperties]', symObjAddr: 0xC40, symBinAddr: 0x2E4EF0, symSize: 0x8 }
  - { offset: 0x46206D, size: 0x8, addend: 0x0, symName: '+[RLMObject requiredProperties]', symObjAddr: 0xC48, symBinAddr: 0x2E4EF8, symSize: 0x10 }
  - { offset: 0x4620A0, size: 0x8, addend: 0x0, symName: '+[RLMObject _realmIgnoreClass]', symObjAddr: 0xC58, symBinAddr: 0x2E4F08, symSize: 0x8 }
  - { offset: 0x4620D3, size: 0x8, addend: 0x0, symName: '+[RLMDynamicObject _realmIgnoreClass]', symObjAddr: 0xC60, symBinAddr: 0x2E4F10, symSize: 0x8 }
  - { offset: 0x462106, size: 0x8, addend: 0x0, symName: '+[RLMDynamicObject shouldIncludeInDefaultSchema]', symObjAddr: 0xC68, symBinAddr: 0x2E4F18, symSize: 0x8 }
  - { offset: 0x462139, size: 0x8, addend: 0x0, symName: '-[RLMDynamicObject valueForUndefinedKey:]', symObjAddr: 0xC70, symBinAddr: 0x2E4F20, symSize: 0x20 }
  - { offset: 0x4621A4, size: 0x8, addend: 0x0, symName: '-[RLMDynamicObject setValue:forUndefinedKey:]', symObjAddr: 0xC90, symBinAddr: 0x2E4F40, symSize: 0x8 }
  - { offset: 0x462219, size: 0x8, addend: 0x0, symName: '+[RLMDynamicObject sharedSchema]', symObjAddr: 0xC98, symBinAddr: 0x2E4F48, symSize: 0x8 }
  - { offset: 0x462276, size: 0x8, addend: 0x0, symName: _RLMIsObjectOrSubclass, symObjAddr: 0xCA0, symBinAddr: 0x2E4F50, symSize: 0x60 }
  - { offset: 0x4622E7, size: 0x8, addend: 0x0, symName: _RLMIsObjectSubclass, symObjAddr: 0xD00, symBinAddr: 0x2E4FB0, symSize: 0x68 }
  - { offset: 0x4640CF, size: 0x8, addend: 0x0, symName: '-[RLMObjectBase init]', symObjAddr: 0x0, symBinAddr: 0x2E5018, symSize: 0x230 }
  - { offset: 0x4640E9, size: 0x8, addend: 0x0, symName: _RLMDescriptionMaxDepth, symObjAddr: 0x4E60, symBinAddr: 0x41F660, symSize: 0x0 }
  - { offset: 0x4640FF, size: 0x8, addend: 0x0, symName: '-[RLMObjectBase descriptionWithMaxDepth:]', symObjAddr: 0x154C, symBinAddr: 0x2E6564, symSize: 0x448 }
  - { offset: 0x4B3C4A, size: 0x8, addend: 0x0, symName: '-[RLMObjectBase init]', symObjAddr: 0x0, symBinAddr: 0x2E5018, symSize: 0x230 }
  - { offset: 0x4B3D7D, size: 0x8, addend: 0x0, symName: '-[RLMObjectBase dealloc]', symObjAddr: 0x230, symBinAddr: 0x2E5248, symSize: 0x54 }
  - { offset: 0x4B3DF6, size: 0x8, addend: 0x0, symName: _RLMInitializeWithValue, symObjAddr: 0x284, symBinAddr: 0x2E529C, symSize: 0x550 }
  - { offset: 0x4B3F53, size: 0x8, addend: 0x0, symName: __ZL14RLMCoerceToNilP11objc_object, symObjAddr: 0xC7C, symBinAddr: 0x2E5C94, symSize: 0xBC }
  - { offset: 0x4B3FBC, size: 0x8, addend: 0x0, symName: __ZL26validatedObjectForPropertyP11objc_objectP15RLMObjectSchemaP11RLMPropertyP9RLMSchema, symObjAddr: 0x7D4, symBinAddr: 0x2E57EC, symSize: 0x4A8 }
  - { offset: 0x4B40F6, size: 0x8, addend: 0x0, symName: _RLMValidatedValueForProperty, symObjAddr: 0xD38, symBinAddr: 0x2E5D50, symSize: 0x14C }
  - { offset: 0x4B41A7, size: 0x8, addend: 0x0, symName: __ZL18coerceToObjectTypeP11objc_objectP10objc_classP9RLMSchema, symObjAddr: 0x3BD8, symBinAddr: 0x2E8BF0, symSize: 0x104 }
  - { offset: 0x4B4240, size: 0x8, addend: 0x0, symName: __Z24RLMCreateManagedAccessorP10objc_classP12RLMClassInfo, symObjAddr: 0xE84, symBinAddr: 0x2E5E9C, symSize: 0x44 }
  - { offset: 0x4B428F, size: 0x8, addend: 0x0, symName: '-[RLMObjectBase valueForKey:]', symObjAddr: 0xEC8, symBinAddr: 0x2E5EE0, symSize: 0x98 }
  - { offset: 0x4B42D6, size: 0x8, addend: 0x0, symName: '-[RLMObjectBase valueForUndefinedKey:]', symObjAddr: 0xF60, symBinAddr: 0x2E5F78, symSize: 0x104 }
  - { offset: 0x4B4351, size: 0x8, addend: 0x0, symName: '-[RLMObjectBase setValue:forUndefinedKey:]', symObjAddr: 0x1064, symBinAddr: 0x2E607C, symSize: 0x1DC }
  - { offset: 0x4B43FC, size: 0x8, addend: 0x0, symName: '+[RLMObjectBase className]', symObjAddr: 0x1240, symBinAddr: 0x2E6258, symSize: 0x78 }
  - { offset: 0x4B4463, size: 0x8, addend: 0x0, symName: '+[RLMObjectBase sharedSchema]', symObjAddr: 0x12B8, symBinAddr: 0x2E62D0, symSize: 0x2C }
  - { offset: 0x4B449A, size: 0x8, addend: 0x0, symName: '+[RLMObjectBase initializeLinkedObjectSchemas]', symObjAddr: 0x12E4, symBinAddr: 0x2E62FC, symSize: 0x21C }
  - { offset: 0x4B44E4, size: 0x8, addend: 0x0, symName: '+[RLMObjectBase _getProperties]', symObjAddr: 0x1500, symBinAddr: 0x2E6518, symSize: 0x8 }
  - { offset: 0x4B4517, size: 0x8, addend: 0x0, symName: '-[RLMObjectBase description]', symObjAddr: 0x1508, symBinAddr: 0x2E6520, symSize: 0x44 }
  - { offset: 0x4B454E, size: 0x8, addend: 0x0, symName: '-[RLMObjectBase realm]', symObjAddr: 0x1994, symBinAddr: 0x2E69AC, symSize: 0x8 }
  - { offset: 0x4B4586, size: 0x8, addend: 0x0, symName: '-[RLMObjectBase objectSchema]', symObjAddr: 0x199C, symBinAddr: 0x2E69B4, symSize: 0x8 }
  - { offset: 0x4B45BE, size: 0x8, addend: 0x0, symName: '-[RLMObjectBase isInvalidated]', symObjAddr: 0x19A4, symBinAddr: 0x2E69BC, symSize: 0x2C }
  - { offset: 0x4B461E, size: 0x8, addend: 0x0, symName: '-[RLMObjectBase isEqual:]', symObjAddr: 0x19D0, symBinAddr: 0x2E69E8, symSize: 0x110 }
  - { offset: 0x4B469D, size: 0x8, addend: 0x0, symName: _RLMObjectBaseAreEqual, symObjAddr: 0x1AE0, symBinAddr: 0x2E6AF8, symSize: 0x148 }
  - { offset: 0x4B481F, size: 0x8, addend: 0x0, symName: '-[RLMObjectBase hash]', symObjAddr: 0x1C28, symBinAddr: 0x2E6C40, symSize: 0x118 }
  - { offset: 0x4B488F, size: 0x8, addend: 0x0, symName: '+[RLMObjectBase shouldIncludeInDefaultSchema]', symObjAddr: 0x1D40, symBinAddr: 0x2E6D58, symSize: 0x4 }
  - { offset: 0x4B48C8, size: 0x8, addend: 0x0, symName: '+[RLMObjectBase shouldIncludeInDefaultSchema]', symObjAddr: 0x1D40, symBinAddr: 0x2E6D58, symSize: 0x4 }
  - { offset: 0x4B48E5, size: 0x8, addend: 0x0, symName: '+[RLMObjectBase primaryKey]', symObjAddr: 0x1D44, symBinAddr: 0x2E6D5C, symSize: 0x8 }
  - { offset: 0x4B4919, size: 0x8, addend: 0x0, symName: '+[RLMObjectBase _realmObjectName]', symObjAddr: 0x1D4C, symBinAddr: 0x2E6D64, symSize: 0x8 }
  - { offset: 0x4B494D, size: 0x8, addend: 0x0, symName: '+[RLMObjectBase _realmColumnNames]', symObjAddr: 0x1D54, symBinAddr: 0x2E6D6C, symSize: 0x8 }
  - { offset: 0x4B4981, size: 0x8, addend: 0x0, symName: '+[RLMObjectBase _realmIgnoreClass]', symObjAddr: 0x1D5C, symBinAddr: 0x2E6D74, symSize: 0x8 }
  - { offset: 0x4B49B5, size: 0x8, addend: 0x0, symName: '+[RLMObjectBase isEmbedded]', symObjAddr: 0x1D64, symBinAddr: 0x2E6D7C, symSize: 0x8 }
  - { offset: 0x4B49E9, size: 0x8, addend: 0x0, symName: '+[RLMObjectBase isAsymmetric]', symObjAddr: 0x1D6C, symBinAddr: 0x2E6D84, symSize: 0x8 }
  - { offset: 0x4B4A1D, size: 0x8, addend: 0x0, symName: '+[RLMObjectBase propertiesMapping]', symObjAddr: 0x1D74, symBinAddr: 0x2E6D8C, symSize: 0x10 }
  - { offset: 0x4B4A51, size: 0x8, addend: 0x0, symName: '-[RLMObjectBase mutableArrayValueForKey:]', symObjAddr: 0x1D84, symBinAddr: 0x2E6D9C, symSize: 0xDC }
  - { offset: 0x4B4AA9, size: 0x8, addend: 0x0, symName: '-[RLMObjectBase mutableSetValueForKey:]', symObjAddr: 0x1E60, symBinAddr: 0x2E6E78, symSize: 0xDC }
  - { offset: 0x4B4B2C, size: 0x8, addend: 0x0, symName: '-[RLMObjectBase addObserver:forKeyPath:options:context:]', symObjAddr: 0x1F3C, symBinAddr: 0x2E6F54, symSize: 0x108 }
  - { offset: 0x4B4CAD, size: 0x8, addend: 0x0, symName: '-[RLMObjectBase removeObserver:forKeyPath:]', symObjAddr: 0x2044, symBinAddr: 0x2E705C, symSize: 0xAC }
  - { offset: 0x4B4D20, size: 0x8, addend: 0x0, symName: '+[RLMObjectBase automaticallyNotifiesObserversForKey:]', symObjAddr: 0x20F0, symBinAddr: 0x2E7108, symSize: 0x110 }
  - { offset: 0x4B4DBB, size: 0x8, addend: 0x0, symName: '+[RLMObjectBase observe:keyPaths:block:completion:]', symObjAddr: 0x2200, symBinAddr: 0x2E7218, symSize: 0x4 }
  - { offset: 0x4B4F13, size: 0x8, addend: 0x0, symName: '-[RLMObjectBase makeThreadSafeReference]', symObjAddr: 0x2204, symBinAddr: 0x2E721C, symSize: 0x88 }
  - { offset: 0x4B500F, size: 0x8, addend: 0x0, symName: '-[RLMObjectBase objectiveCMetadata]', symObjAddr: 0x228C, symBinAddr: 0x2E72A4, symSize: 0x8 }
  - { offset: 0x4B50E2, size: 0x8, addend: 0x0, symName: '+[RLMObjectBase objectWithThreadSafeReference:metadata:realm:]', symObjAddr: 0x2294, symBinAddr: 0x2E72AC, symSize: 0xF4 }
  - { offset: 0x4B5240, size: 0x8, addend: 0x0, symName: '-[RLMObjectBase lastAccessedNames]', symObjAddr: 0x2388, symBinAddr: 0x2E73A0, symSize: 0x8 }
  - { offset: 0x4B5277, size: 0x8, addend: 0x0, symName: '-[RLMObjectBase setLastAccessedNames:]', symObjAddr: 0x2390, symBinAddr: 0x2E73A8, symSize: 0xC }
  - { offset: 0x4B52B8, size: 0x8, addend: 0x0, symName: '-[RLMObjectBase .cxx_destruct]', symObjAddr: 0x239C, symBinAddr: 0x2E73B4, symSize: 0x30 }
  - { offset: 0x4B52EB, size: 0x8, addend: 0x0, symName: '-[RLMObjectBase .cxx_construct]', symObjAddr: 0x23CC, symBinAddr: 0x2E73E4, symSize: 0x20 }
  - { offset: 0x4B5323, size: 0x8, addend: 0x0, symName: '-[RLMObjectBase .cxx_construct]', symObjAddr: 0x23CC, symBinAddr: 0x2E73E4, symSize: 0x20 }
  - { offset: 0x4B5342, size: 0x8, addend: 0x0, symName: '-[RLMObjectBase .cxx_construct]', symObjAddr: 0x23CC, symBinAddr: 0x2E73E4, symSize: 0x20 }
  - { offset: 0x4B5361, size: 0x8, addend: 0x0, symName: '-[RLMObjectBase .cxx_construct]', symObjAddr: 0x23CC, symBinAddr: 0x2E73E4, symSize: 0x20 }
  - { offset: 0x4B5380, size: 0x8, addend: 0x0, symName: '-[RLMObjectBase .cxx_construct]', symObjAddr: 0x23CC, symBinAddr: 0x2E73E4, symSize: 0x20 }
  - { offset: 0x4B539F, size: 0x8, addend: 0x0, symName: '-[RLMObjectBase .cxx_construct]', symObjAddr: 0x23CC, symBinAddr: 0x2E73E4, symSize: 0x20 }
  - { offset: 0x4B5440, size: 0x8, addend: 0x0, symName: _RLMObjectBaseRealm, symObjAddr: 0x23EC, symBinAddr: 0x2E7404, symSize: 0xC }
  - { offset: 0x4B546C, size: 0x8, addend: 0x0, symName: _RLMObjectBaseObjectSchema, symObjAddr: 0x23F8, symBinAddr: 0x2E7410, symSize: 0xC }
  - { offset: 0x4B5498, size: 0x8, addend: 0x0, symName: _RLMObjectBaseObjectForKeyedSubscript, symObjAddr: 0x2404, symBinAddr: 0x2E741C, symSize: 0xAC }
  - { offset: 0x4B54F8, size: 0x8, addend: 0x0, symName: _RLMObjectBaseSetObjectForKeyedSubscript, symObjAddr: 0x24B0, symBinAddr: 0x2E74C8, symSize: 0xCC }
  - { offset: 0x4B5584, size: 0x8, addend: 0x0, symName: _RLMObjectFreeze, symObjAddr: 0x257C, symBinAddr: 0x2E7594, symSize: 0x120 }
  - { offset: 0x4B55EC, size: 0x8, addend: 0x0, symName: __ZL13resolveObjectP13RLMObjectBaseP8RLMRealm, symObjAddr: 0x269C, symBinAddr: 0x2E76B4, symSize: 0x140 }
  - { offset: 0x4B56F8, size: 0x8, addend: 0x0, symName: _RLMObjectThaw, symObjAddr: 0x27DC, symBinAddr: 0x2E77F4, symSize: 0xFC }
  - { offset: 0x4B5754, size: 0x8, addend: 0x0, symName: '-[RLMPropertyChange description]', symObjAddr: 0x28D8, symBinAddr: 0x2E78F0, symSize: 0x44 }
  - { offset: 0x4B578C, size: 0x8, addend: 0x0, symName: '-[RLMPropertyChange name]', symObjAddr: 0x291C, symBinAddr: 0x2E7934, symSize: 0x8 }
  - { offset: 0x4B57C4, size: 0x8, addend: 0x0, symName: '-[RLMPropertyChange setName:]', symObjAddr: 0x2924, symBinAddr: 0x2E793C, symSize: 0xC }
  - { offset: 0x4B5806, size: 0x8, addend: 0x0, symName: '-[RLMPropertyChange previousValue]', symObjAddr: 0x2930, symBinAddr: 0x2E7948, symSize: 0x8 }
  - { offset: 0x4B583E, size: 0x8, addend: 0x0, symName: '-[RLMPropertyChange setPreviousValue:]', symObjAddr: 0x2938, symBinAddr: 0x2E7950, symSize: 0xC }
  - { offset: 0x4B5880, size: 0x8, addend: 0x0, symName: '-[RLMPropertyChange value]', symObjAddr: 0x2944, symBinAddr: 0x2E795C, symSize: 0x8 }
  - { offset: 0x4B58B8, size: 0x8, addend: 0x0, symName: '-[RLMPropertyChange setValue:]', symObjAddr: 0x294C, symBinAddr: 0x2E7964, symSize: 0xC }
  - { offset: 0x4B58FA, size: 0x8, addend: 0x0, symName: '-[RLMPropertyChange .cxx_destruct]', symObjAddr: 0x2958, symBinAddr: 0x2E7970, symSize: 0x3C }
  - { offset: 0x4B59EA, size: 0x8, addend: 0x0, symName: '-[RLMObjectNotificationToken realm]', symObjAddr: 0x2994, symBinAddr: 0x2E79AC, symSize: 0x58 }
  - { offset: 0x4B5B0E, size: 0x8, addend: 0x0, symName: '-[RLMObjectNotificationToken suppressNextNotification]', symObjAddr: 0x29EC, symBinAddr: 0x2E7A04, symSize: 0x78 }
  - { offset: 0x4B5DE5, size: 0x8, addend: 0x0, symName: '-[RLMObjectNotificationToken invalidate]', symObjAddr: 0x2A64, symBinAddr: 0x2E7A7C, symSize: 0x178 }
  - { offset: 0x4B649A, size: 0x8, addend: 0x0, symName: __ZN5realm24CollectionChangeCallbackC1IN12_GLOBAL__N_127ObjectChangeCallbackWrapperEEET_, symObjAddr: 0x2BDC, symBinAddr: 0x2E7BF4, symSize: 0x118 }
  - { offset: 0x4B6865, size: 0x8, addend: 0x0, symName: '-[RLMObjectNotificationToken observe:keyPaths:block:]', symObjAddr: 0x2CF4, symBinAddr: 0x2E7D0C, symSize: 0x310 }
  - { offset: 0x4B738A, size: 0x8, addend: 0x0, symName: '-[RLMObjectNotificationToken registrationComplete:]', symObjAddr: 0x3004, symBinAddr: 0x2E801C, symSize: 0xAC }
  - { offset: 0x4B7509, size: 0x8, addend: 0x0, symName: _RLMObjectBaseAddNotificationBlock, symObjAddr: 0x30B0, symBinAddr: 0x2E80C8, symSize: 0x280 }
  - { offset: 0x4B766C, size: 0x8, addend: 0x0, symName: ___RLMObjectBaseAddNotificationBlock_block_invoke, symObjAddr: 0x3330, symBinAddr: 0x2E8348, symSize: 0x398 }
  - { offset: 0x4B7E5C, size: 0x8, addend: 0x0, symName: ___copy_helper_block_ea8_32s40s48s56s64s72b, symObjAddr: 0x36C8, symBinAddr: 0x2E86E0, symSize: 0x54 }
  - { offset: 0x4B7E85, size: 0x8, addend: 0x0, symName: '-[RLMObjectNotificationToken .cxx_destruct]', symObjAddr: 0x371C, symBinAddr: 0x2E8734, symSize: 0x48 }
  - { offset: 0x4B7EED, size: 0x8, addend: 0x0, symName: '-[RLMObjectNotificationToken .cxx_construct]', symObjAddr: 0x3764, symBinAddr: 0x2E877C, symSize: 0x48 }
  - { offset: 0x4B8016, size: 0x8, addend: 0x0, symName: __Z29RLMObjectAddNotificationBlockP13RLMObjectBaseU13block_pointerFvbP7NSArrayIP17RLMPropertyChangeEP7NSErrorEPS1_IP8NSStringEPU28objcproto17OS_dispatch_queue8NSObject, symObjAddr: 0x37AC, symBinAddr: 0x2E87C4, symSize: 0xC4 }
  - { offset: 0x4B8083, size: 0x8, addend: 0x0, symName: ____Z29RLMObjectAddNotificationBlockP13RLMObjectBaseU13block_pointerFvbP7NSArrayIP17RLMPropertyChangeEP7NSErrorEPS1_IP8NSStringEPU28objcproto17OS_dispatch_queue8NSObject_block_invoke, symObjAddr: 0x3870, symBinAddr: 0x2E8888, symSize: 0x2D4 }
  - { offset: 0x4B819C, size: 0x8, addend: 0x0, symName: ___copy_helper_block_ea8_32b, symObjAddr: 0x3B44, symBinAddr: 0x2E8B5C, symSize: 0x10 }
  - { offset: 0x4B81C5, size: 0x8, addend: 0x0, symName: _RLMObjectBaseGetCombineId, symObjAddr: 0x3B54, symBinAddr: 0x2E8B6C, symSize: 0x64 }
  - { offset: 0x4B8238, size: 0x8, addend: 0x0, symName: '+[RealmSwiftObject accessInstanceVariablesDirectly]', symObjAddr: 0x3BB8, symBinAddr: 0x2E8BD0, symSize: 0x8 }
  - { offset: 0x4B826C, size: 0x8, addend: 0x0, symName: '+[RealmSwiftEmbeddedObject accessInstanceVariablesDirectly]', symObjAddr: 0x3BC0, symBinAddr: 0x2E8BD8, symSize: 0x8 }
  - { offset: 0x4B82A0, size: 0x8, addend: 0x0, symName: '+[RealmSwiftAsymmetricObject accessInstanceVariablesDirectly]', symObjAddr: 0x3BC8, symBinAddr: 0x2E8BE0, symSize: 0x8 }
  - { offset: 0x4B82D4, size: 0x8, addend: 0x0, symName: '+[RealmSwiftAsymmetricObject isAsymmetric]', symObjAddr: 0x3BD0, symBinAddr: 0x2E8BE8, symSize: 0x8 }
  - { offset: 0x4B833B, size: 0x8, addend: 0x0, symName: '____ZZ53-[RLMObjectNotificationToken observe:keyPaths:block:]ENK3$_0cvU13block_pointerFvvEEv_block_invoke', symObjAddr: 0x3CDC, symBinAddr: 0x2E8CF4, symSize: 0x98 }
  - { offset: 0x4B84A1, size: 0x8, addend: 0x0, symName: '___copy_helper_block_ea8_32c66_ZTSKZ53-[RLMObjectNotificationToken observe:keyPaths:block:]E3$_0', symObjAddr: 0x3D74, symBinAddr: 0x2E8D8C, symSize: 0x28 }
  - { offset: 0x4B851E, size: 0x8, addend: 0x0, symName: '___destroy_helper_block_ea8_32c66_ZTSKZ53-[RLMObjectNotificationToken observe:keyPaths:block:]E3$_0', symObjAddr: 0x3D9C, symBinAddr: 0x2E8DB4, symSize: 0x8 }
  - { offset: 0x4B8540, size: 0x8, addend: 0x0, symName: '___destroy_helper_block_ea8_32c66_ZTSKZ53-[RLMObjectNotificationToken observe:keyPaths:block:]E3$_0', symObjAddr: 0x3D9C, symBinAddr: 0x2E8DB4, symSize: 0x8 }
  - { offset: 0x4B855E, size: 0x8, addend: 0x0, symName: '___destroy_helper_block_ea8_32c66_ZTSKZ53-[RLMObjectNotificationToken observe:keyPaths:block:]E3$_0', symObjAddr: 0x3D9C, symBinAddr: 0x2E8DB4, symSize: 0x8 }
  - { offset: 0x4B8599, size: 0x8, addend: 0x0, symName: __ZNSt3__120__shared_ptr_emplaceIN5realm24CollectionChangeCallback5Impl2IN12_GLOBAL__N_127ObjectChangeCallbackWrapperEEENS_9allocatorIS6_EEED1Ev, symObjAddr: 0x3DA4, symBinAddr: 0x2E8DBC, symSize: 0x10 }
  - { offset: 0x4B85BD, size: 0x8, addend: 0x0, symName: __ZNSt3__120__shared_ptr_emplaceIN5realm24CollectionChangeCallback5Impl2IN12_GLOBAL__N_127ObjectChangeCallbackWrapperEEENS_9allocatorIS6_EEED1Ev, symObjAddr: 0x3DA4, symBinAddr: 0x2E8DBC, symSize: 0x10 }
  - { offset: 0x4B85F4, size: 0x8, addend: 0x0, symName: __ZNSt3__120__shared_ptr_emplaceIN5realm24CollectionChangeCallback5Impl2IN12_GLOBAL__N_127ObjectChangeCallbackWrapperEEENS_9allocatorIS6_EEED0Ev, symObjAddr: 0x3DB4, symBinAddr: 0x2E8DCC, symSize: 0x20 }
  - { offset: 0x4B86C7, size: 0x8, addend: 0x0, symName: __ZNSt3__120__shared_ptr_emplaceIN5realm24CollectionChangeCallback5Impl2IN12_GLOBAL__N_127ObjectChangeCallbackWrapperEEENS_9allocatorIS6_EEE16__on_zero_sharedEv, symObjAddr: 0x3DD4, symBinAddr: 0x2E8DEC, symSize: 0xC }
  - { offset: 0x4B86F1, size: 0x8, addend: 0x0, symName: __ZNSt3__120__shared_ptr_emplaceIN5realm24CollectionChangeCallback5Impl2IN12_GLOBAL__N_127ObjectChangeCallbackWrapperEEENS_9allocatorIS6_EEE16__on_zero_sharedEv, symObjAddr: 0x3DD4, symBinAddr: 0x2E8DEC, symSize: 0xC }
  - { offset: 0x4B8711, size: 0x8, addend: 0x0, symName: __ZNSt3__120__shared_ptr_emplaceIN5realm24CollectionChangeCallback5Impl2IN12_GLOBAL__N_127ObjectChangeCallbackWrapperEEENS_9allocatorIS6_EEE16__on_zero_sharedEv, symObjAddr: 0x3DD4, symBinAddr: 0x2E8DEC, symSize: 0xC }
  - { offset: 0x4B8731, size: 0x8, addend: 0x0, symName: __ZNSt3__120__shared_ptr_emplaceIN5realm24CollectionChangeCallback5Impl2IN12_GLOBAL__N_127ObjectChangeCallbackWrapperEEENS_9allocatorIS6_EEE16__on_zero_sharedEv, symObjAddr: 0x3DD4, symBinAddr: 0x2E8DEC, symSize: 0xC }
  - { offset: 0x4B87BA, size: 0x8, addend: 0x0, symName: __ZNSt3__120__shared_ptr_emplaceIN5realm24CollectionChangeCallback5Impl2IN12_GLOBAL__N_127ObjectChangeCallbackWrapperEEENS_9allocatorIS6_EEE21__on_zero_shared_weakEv, symObjAddr: 0x3DE0, symBinAddr: 0x2E8DF8, symSize: 0x4 }
  - { offset: 0x4B87EF, size: 0x8, addend: 0x0, symName: __ZNSt3__120__shared_ptr_emplaceIN5realm24CollectionChangeCallback5Impl2IN12_GLOBAL__N_127ObjectChangeCallbackWrapperEEENS_9allocatorIS6_EEE21__on_zero_shared_weakEv, symObjAddr: 0x3DE0, symBinAddr: 0x2E8DF8, symSize: 0x4 }
  - { offset: 0x4B8814, size: 0x8, addend: 0x0, symName: __ZNSt3__120__shared_ptr_emplaceIN5realm24CollectionChangeCallback5Impl2IN12_GLOBAL__N_127ObjectChangeCallbackWrapperEEENS_9allocatorIS6_EEE21__on_zero_shared_weakEv, symObjAddr: 0x3DE0, symBinAddr: 0x2E8DF8, symSize: 0x4 }
  - { offset: 0x4B8839, size: 0x8, addend: 0x0, symName: __ZNSt3__120__shared_ptr_emplaceIN5realm24CollectionChangeCallback5Impl2IN12_GLOBAL__N_127ObjectChangeCallbackWrapperEEENS_9allocatorIS6_EEE21__on_zero_shared_weakEv, symObjAddr: 0x3DE0, symBinAddr: 0x2E8DF8, symSize: 0x4 }
  - { offset: 0x4B8869, size: 0x8, addend: 0x0, symName: __ZNSt3__120__shared_ptr_emplaceIN5realm24CollectionChangeCallback5Impl2IN12_GLOBAL__N_127ObjectChangeCallbackWrapperEEENS_9allocatorIS6_EEE21__on_zero_shared_weakEv, symObjAddr: 0x3DE0, symBinAddr: 0x2E8DF8, symSize: 0x4 }
  - { offset: 0x4B8893, size: 0x8, addend: 0x0, symName: __ZNSt3__120__shared_ptr_emplaceIN5realm24CollectionChangeCallback5Impl2IN12_GLOBAL__N_127ObjectChangeCallbackWrapperEEENS_9allocatorIS6_EEE21__on_zero_shared_weakEv, symObjAddr: 0x3DE0, symBinAddr: 0x2E8DF8, symSize: 0x4 }
  - { offset: 0x4B88DB, size: 0x8, addend: 0x0, symName: __ZN5realm24CollectionChangeCallback5Impl2IN12_GLOBAL__N_127ObjectChangeCallbackWrapperEED1Ev, symObjAddr: 0x3DE4, symBinAddr: 0x2E8DFC, symSize: 0x48 }
  - { offset: 0x4B8979, size: 0x8, addend: 0x0, symName: __ZN5realm24CollectionChangeCallback5Impl2IN12_GLOBAL__N_127ObjectChangeCallbackWrapperEED0Ev, symObjAddr: 0x3E2C, symBinAddr: 0x2E8E44, symSize: 0x48 }
  - { offset: 0x4B8A46, size: 0x8, addend: 0x0, symName: __ZN5realm24CollectionChangeCallback5Impl2IN12_GLOBAL__N_127ObjectChangeCallbackWrapperEE6beforeERKNS_19CollectionChangeSetE, symObjAddr: 0x3E74, symBinAddr: 0x2E8E8C, symSize: 0x5C }
  - { offset: 0x4B8AB4, size: 0x8, addend: 0x0, symName: __ZN12_GLOBAL__N_127ObjectChangeCallbackWrapper10readValuesERKN5realm19CollectionChangeSetE, symObjAddr: 0x3FB8, symBinAddr: 0x2E8FD0, symSize: 0x4A4 }
  - { offset: 0x4B8CF0, size: 0x8, addend: 0x0, symName: __ZN5realm24CollectionChangeCallback5Impl2IN12_GLOBAL__N_127ObjectChangeCallbackWrapperEE5afterERKNS_19CollectionChangeSetE, symObjAddr: 0x3ED0, symBinAddr: 0x2E8EE8, symSize: 0xE8 }
  - { offset: 0x4B8EC3, size: 0x8, addend: 0x0, symName: __ZNKSt3__112__hash_tableINS_17__hash_value_typeIxN5realm8IndexSetEEENS_22__unordered_map_hasherIxS4_NS_4hashIxEENS_8equal_toIxEELb1EEENS_21__unordered_map_equalIxS4_S9_S7_Lb1EEENS_9allocatorIS4_EEE4findIxEENS_21__hash_const_iteratorIPNS_11__hash_nodeIS4_PvEEEERKT_, symObjAddr: 0x445C, symBinAddr: 0x2E9474, symSize: 0xA8 }
  - { offset: 0x4BB20B, size: 0x8, addend: 0x0, symName: '-[RLMObjectId init]', symObjAddr: 0x0, symBinAddr: 0x2E951C, symSize: 0xB8 }
  - { offset: 0x4BEAD0, size: 0x8, addend: 0x0, symName: '-[RLMObjectId init]', symObjAddr: 0x0, symBinAddr: 0x2E951C, symSize: 0xB8 }
  - { offset: 0x4BEBB0, size: 0x8, addend: 0x0, symName: '-[RLMObjectId initWithString:error:]', symObjAddr: 0xB8, symBinAddr: 0x2E95D4, symSize: 0x214 }
  - { offset: 0x4BEE50, size: 0x8, addend: 0x0, symName: '-[RLMObjectId initWithTimestamp:machineIdentifier:processIdentifier:]', symObjAddr: 0x2CC, symBinAddr: 0x2E97E8, symSize: 0x1D4 }
  - { offset: 0x4BF09B, size: 0x8, addend: 0x0, symName: '-[RLMObjectId copyWithZone:]', symObjAddr: 0x4D4, symBinAddr: 0x2E99BC, symSize: 0x4 }
  - { offset: 0x4BF0FF, size: 0x8, addend: 0x0, symName: '+[RLMObjectId objectId]', symObjAddr: 0x4D8, symBinAddr: 0x2E99C0, symSize: 0x54 }
  - { offset: 0x4BF1BD, size: 0x8, addend: 0x0, symName: '-[RLMObjectId isEqual:]', symObjAddr: 0x52C, symBinAddr: 0x2E9A14, symSize: 0x98 }
  - { offset: 0x4BF3BB, size: 0x8, addend: 0x0, symName: '-[RLMObjectId isGreaterThan:]', symObjAddr: 0x5C4, symBinAddr: 0x2E9AAC, symSize: 0x98 }
  - { offset: 0x4BF529, size: 0x8, addend: 0x0, symName: '-[RLMObjectId isGreaterThanOrEqualTo:]', symObjAddr: 0x678, symBinAddr: 0x2E9B44, symSize: 0x98 }
  - { offset: 0x4BF697, size: 0x8, addend: 0x0, symName: '-[RLMObjectId isLessThan:]', symObjAddr: 0x710, symBinAddr: 0x2E9BDC, symSize: 0x98 }
  - { offset: 0x4BF805, size: 0x8, addend: 0x0, symName: '-[RLMObjectId isLessThanOrEqualTo:]', symObjAddr: 0x7A8, symBinAddr: 0x2E9C74, symSize: 0x98 }
  - { offset: 0x4BF951, size: 0x8, addend: 0x0, symName: '-[RLMObjectId hash]', symObjAddr: 0x840, symBinAddr: 0x2E9D0C, symSize: 0x8 }
  - { offset: 0x4BF988, size: 0x8, addend: 0x0, symName: '-[RLMObjectId description]', symObjAddr: 0x848, symBinAddr: 0x2E9D14, symSize: 0x4 }
  - { offset: 0x4BFAD0, size: 0x8, addend: 0x0, symName: '-[RLMObjectId stringValue]', symObjAddr: 0x84C, symBinAddr: 0x2E9D18, symSize: 0x8C }
  - { offset: 0x4BFE3F, size: 0x8, addend: 0x0, symName: '-[RLMObjectId timestamp]', symObjAddr: 0x8D8, symBinAddr: 0x2E9DA4, symSize: 0x68 }
  - { offset: 0x4BFEEE, size: 0x8, addend: 0x0, symName: '-[RLMObjectId .cxx_construct]', symObjAddr: 0x940, symBinAddr: 0x2E9E0C, symSize: 0xC }
  - { offset: 0x4BFF26, size: 0x8, addend: 0x0, symName: '-[RLMObjectId .cxx_construct]', symObjAddr: 0x940, symBinAddr: 0x2E9E0C, symSize: 0xC }
  - { offset: 0x4BFF45, size: 0x8, addend: 0x0, symName: '-[RLMObjectId .cxx_construct]', symObjAddr: 0x940, symBinAddr: 0x2E9E0C, symSize: 0xC }
  - { offset: 0x4C1CCE, size: 0x8, addend: 0x0, symName: '-[RLMObjectSchema initWithClassName:objectClass:properties:]', symObjAddr: 0x0, symBinAddr: 0x2E9E18, symSize: 0xFC }
  - { offset: 0x4C790E, size: 0x8, addend: 0x0, symName: '-[RLMObjectSchema initWithClassName:objectClass:properties:]', symObjAddr: 0x0, symBinAddr: 0x2E9E18, symSize: 0xFC }
  - { offset: 0x4C7975, size: 0x8, addend: 0x0, symName: '-[RLMObjectSchema objectForKeyedSubscript:]', symObjAddr: 0xFC, symBinAddr: 0x2E9F14, symSize: 0x8 }
  - { offset: 0x4C79BA, size: 0x8, addend: 0x0, symName: '-[RLMObjectSchema setProperties:]', symObjAddr: 0x104, symBinAddr: 0x2E9F1C, symSize: 0x2C }
  - { offset: 0x4C79FD, size: 0x8, addend: 0x0, symName: '-[RLMObjectSchema setComputedProperties:]', symObjAddr: 0x130, symBinAddr: 0x2E9F48, symSize: 0x2C }
  - { offset: 0x4C7A40, size: 0x8, addend: 0x0, symName: '-[RLMObjectSchema _propertiesDidChange]', symObjAddr: 0x15C, symBinAddr: 0x2E9F74, symSize: 0x4A0 }
  - { offset: 0x4C7B3B, size: 0x8, addend: 0x0, symName: '-[RLMObjectSchema setPrimaryKeyProperty:]', symObjAddr: 0x5FC, symBinAddr: 0x2EA414, symSize: 0x7C }
  - { offset: 0x4C7BB7, size: 0x8, addend: 0x0, symName: '+[RLMObjectSchema schemaForObjectClass:]', symObjAddr: 0x678, symBinAddr: 0x2EA490, symSize: 0xAF8 }
  - { offset: 0x4C7E13, size: 0x8, addend: 0x0, symName: __ZL15RLMTypeToString15RLMPropertyType, symObjAddr: 0x1234, symBinAddr: 0x2EB04C, symSize: 0x24 }
  - { offset: 0x4C7E42, size: 0x8, addend: 0x0, symName: '___40+[RLMObjectSchema schemaForObjectClass:]_block_invoke', symObjAddr: 0x1170, symBinAddr: 0x2EAF88, symSize: 0x50 }
  - { offset: 0x4C7EA3, size: 0x8, addend: 0x0, symName: '___40+[RLMObjectSchema schemaForObjectClass:]_block_invoke_2', symObjAddr: 0x11C0, symBinAddr: 0x2EAFD8, symSize: 0x50 }
  - { offset: 0x4C7F04, size: 0x8, addend: 0x0, symName: '___40+[RLMObjectSchema schemaForObjectClass:]_block_invoke_3', symObjAddr: 0x1210, symBinAddr: 0x2EB028, symSize: 0x24 }
  - { offset: 0x4C8079, size: 0x8, addend: 0x0, symName: '+[RLMObjectSchema propertiesForClass:isSwift:]', symObjAddr: 0x1258, symBinAddr: 0x2EB070, symSize: 0x718 }
  - { offset: 0x4C831C, size: 0x8, addend: 0x0, symName: '-[RLMObjectSchema copyWithZone:]', symObjAddr: 0x1970, symBinAddr: 0x2EB788, symSize: 0xF4 }
  - { offset: 0x4C8374, size: 0x8, addend: 0x0, symName: '-[RLMObjectSchema isEqualToObjectSchema:]', symObjAddr: 0x1A64, symBinAddr: 0x2EB87C, symSize: 0x110 }
  - { offset: 0x4C83BC, size: 0x8, addend: 0x0, symName: '-[RLMObjectSchema description]', symObjAddr: 0x1B74, symBinAddr: 0x2EB98C, symSize: 0x388 }
  - { offset: 0x4C8432, size: 0x8, addend: 0x0, symName: '-[RLMObjectSchema objectName]', symObjAddr: 0x1EFC, symBinAddr: 0x2EBD14, symSize: 0x4C }
  - { offset: 0x4C852A, size: 0x8, addend: 0x0, symName: '-[RLMObjectSchema objectStoreName]', symObjAddr: 0x1F48, symBinAddr: 0x2EBD60, symSize: 0x7C }
  - { offset: 0x4C865A, size: 0x8, addend: 0x0, symName: __ZNSt3__112basic_stringIcNS_11char_traitsIcEENS_9allocatorIcEEE17__assign_externalEPKc, symObjAddr: 0x2AC8, symBinAddr: 0x2EC7C4, symSize: 0x34 }
  - { offset: 0x4C893B, size: 0x8, addend: 0x0, symName: '-[RLMObjectSchema objectStoreCopy:]', symObjAddr: 0x1FC4, symBinAddr: 0x2EBDDC, symSize: 0x4D0 }
  - { offset: 0x4C99B0, size: 0x8, addend: 0x0, symName: __ZNSt3__16vectorIN5realm8PropertyENS_9allocatorIS2_EEE21__push_back_slow_pathIS2_EEPS2_OT_, symObjAddr: 0x2BF4, symBinAddr: 0x2EC7F8, symSize: 0x204 }
  - { offset: 0x4CA503, size: 0x8, addend: 0x0, symName: '+[RLMObjectSchema objectSchemaForObjectStoreSchema:]', symObjAddr: 0x24F4, symBinAddr: 0x2EC2AC, symSize: 0x3D8 }
  - { offset: 0x4CA996, size: 0x8, addend: 0x0, symName: '-[RLMObjectSchema properties]', symObjAddr: 0x28CC, symBinAddr: 0x2EC684, symSize: 0x8 }
  - { offset: 0x4CA9CD, size: 0x8, addend: 0x0, symName: '-[RLMObjectSchema className]', symObjAddr: 0x28D4, symBinAddr: 0x2EC68C, symSize: 0x8 }
  - { offset: 0x4CAA04, size: 0x8, addend: 0x0, symName: '-[RLMObjectSchema setClassName:]', symObjAddr: 0x28DC, symBinAddr: 0x2EC694, symSize: 0xC }
  - { offset: 0x4CAA45, size: 0x8, addend: 0x0, symName: '-[RLMObjectSchema primaryKeyProperty]', symObjAddr: 0x28E8, symBinAddr: 0x2EC6A0, symSize: 0x8 }
  - { offset: 0x4CAA7C, size: 0x8, addend: 0x0, symName: '-[RLMObjectSchema isEmbedded]', symObjAddr: 0x28F0, symBinAddr: 0x2EC6A8, symSize: 0x8 }
  - { offset: 0x4CAAB3, size: 0x8, addend: 0x0, symName: '-[RLMObjectSchema setIsEmbedded:]', symObjAddr: 0x28F8, symBinAddr: 0x2EC6B0, symSize: 0x8 }
  - { offset: 0x4CAAEE, size: 0x8, addend: 0x0, symName: '-[RLMObjectSchema isAsymmetric]', symObjAddr: 0x2900, symBinAddr: 0x2EC6B8, symSize: 0x8 }
  - { offset: 0x4CAB25, size: 0x8, addend: 0x0, symName: '-[RLMObjectSchema setIsAsymmetric:]', symObjAddr: 0x2908, symBinAddr: 0x2EC6C0, symSize: 0x8 }
  - { offset: 0x4CAB60, size: 0x8, addend: 0x0, symName: '-[RLMObjectSchema allPropertiesByName]', symObjAddr: 0x2910, symBinAddr: 0x2EC6C8, symSize: 0x8 }
  - { offset: 0x4CAB97, size: 0x8, addend: 0x0, symName: '-[RLMObjectSchema setAllPropertiesByName:]', symObjAddr: 0x2918, symBinAddr: 0x2EC6D0, symSize: 0xC }
  - { offset: 0x4CABD8, size: 0x8, addend: 0x0, symName: '-[RLMObjectSchema isSwiftClass]', symObjAddr: 0x2924, symBinAddr: 0x2EC6DC, symSize: 0x8 }
  - { offset: 0x4CAC0F, size: 0x8, addend: 0x0, symName: '-[RLMObjectSchema setIsSwiftClass:]', symObjAddr: 0x292C, symBinAddr: 0x2EC6E4, symSize: 0x8 }
  - { offset: 0x4CAC4A, size: 0x8, addend: 0x0, symName: '-[RLMObjectSchema objectClass]', symObjAddr: 0x2934, symBinAddr: 0x2EC6EC, symSize: 0x8 }
  - { offset: 0x4CAC81, size: 0x8, addend: 0x0, symName: '-[RLMObjectSchema setObjectClass:]', symObjAddr: 0x293C, symBinAddr: 0x2EC6F4, symSize: 0x8 }
  - { offset: 0x4CACBE, size: 0x8, addend: 0x0, symName: '-[RLMObjectSchema accessorClass]', symObjAddr: 0x2944, symBinAddr: 0x2EC6FC, symSize: 0x8 }
  - { offset: 0x4CACF5, size: 0x8, addend: 0x0, symName: '-[RLMObjectSchema setAccessorClass:]', symObjAddr: 0x294C, symBinAddr: 0x2EC704, symSize: 0x8 }
  - { offset: 0x4CAD32, size: 0x8, addend: 0x0, symName: '-[RLMObjectSchema unmanagedClass]', symObjAddr: 0x2954, symBinAddr: 0x2EC70C, symSize: 0x8 }
  - { offset: 0x4CAD69, size: 0x8, addend: 0x0, symName: '-[RLMObjectSchema setUnmanagedClass:]', symObjAddr: 0x295C, symBinAddr: 0x2EC714, symSize: 0x8 }
  - { offset: 0x4CADA6, size: 0x8, addend: 0x0, symName: '-[RLMObjectSchema hasCustomEventSerialization]', symObjAddr: 0x2964, symBinAddr: 0x2EC71C, symSize: 0x8 }
  - { offset: 0x4CADDD, size: 0x8, addend: 0x0, symName: '-[RLMObjectSchema setHasCustomEventSerialization:]', symObjAddr: 0x296C, symBinAddr: 0x2EC724, symSize: 0x8 }
  - { offset: 0x4CAE18, size: 0x8, addend: 0x0, symName: '-[RLMObjectSchema computedProperties]', symObjAddr: 0x2974, symBinAddr: 0x2EC72C, symSize: 0x8 }
  - { offset: 0x4CAE4F, size: 0x8, addend: 0x0, symName: '-[RLMObjectSchema swiftGenericProperties]', symObjAddr: 0x297C, symBinAddr: 0x2EC734, symSize: 0x8 }
  - { offset: 0x4CAE86, size: 0x8, addend: 0x0, symName: '-[RLMObjectSchema .cxx_destruct]', symObjAddr: 0x2984, symBinAddr: 0x2EC73C, symSize: 0x7C }
  - { offset: 0x4CB0BB, size: 0x8, addend: 0x0, symName: '-[RLMObjectSchema .cxx_construct]', symObjAddr: 0x2A00, symBinAddr: 0x2EC7B8, symSize: 0xC }
  - { offset: 0x4CB0F3, size: 0x8, addend: 0x0, symName: '-[RLMObjectSchema .cxx_construct]', symObjAddr: 0x2A00, symBinAddr: 0x2EC7B8, symSize: 0xC }
  - { offset: 0x4CB112, size: 0x8, addend: 0x0, symName: '-[RLMObjectSchema .cxx_construct]', symObjAddr: 0x2A00, symBinAddr: 0x2EC7B8, symSize: 0xC }
  - { offset: 0x4CB132, size: 0x8, addend: 0x0, symName: '-[RLMObjectSchema .cxx_construct]', symObjAddr: 0x2A00, symBinAddr: 0x2EC7B8, symSize: 0xC }
  - { offset: 0x4CB152, size: 0x8, addend: 0x0, symName: '-[RLMObjectSchema .cxx_construct]', symObjAddr: 0x2A00, symBinAddr: 0x2EC7B8, symSize: 0xC }
  - { offset: 0x4CB171, size: 0x8, addend: 0x0, symName: '-[RLMObjectSchema .cxx_construct]', symObjAddr: 0x2A00, symBinAddr: 0x2EC7B8, symSize: 0xC }
  - { offset: 0x4CD7F3, size: 0x8, addend: 0x0, symName: _RLMVerifyInWriteTransaction, symObjAddr: 0x0, symBinAddr: 0x2EC9FC, symSize: 0x78 }
  - { offset: 0x4D0675, size: 0x8, addend: 0x0, symName: __ZN5realm4util6formatIJRKNSt3__112basic_stringIcNS2_11char_traitsIcEENS2_9allocatorIcEEEESA_EEES8_PKcDpOT_, symObjAddr: 0x1820, symBinAddr: 0x2EE194, symSize: 0xA4 }
  - { offset: 0x51BE0C, size: 0x8, addend: 0x0, symName: _RLMVerifyInWriteTransaction, symObjAddr: 0x0, symBinAddr: 0x2EC9FC, symSize: 0x78 }
  - { offset: 0x51BFA1, size: 0x8, addend: 0x0, symName: _RLMInitializeSwiftAccessor, symObjAddr: 0x78, symBinAddr: 0x2ECA74, symSize: 0x21C }
  - { offset: 0x51C066, size: 0x8, addend: 0x0, symName: _RLMVerifyHasPrimaryKey, symObjAddr: 0x294, symBinAddr: 0x2ECC90, symSize: 0xFC }
  - { offset: 0x51C0E9, size: 0x8, addend: 0x0, symName: _RLMAddObjectToRealm, symObjAddr: 0x390, symBinAddr: 0x2ECD8C, symSize: 0x110 }
  - { offset: 0x51C397, size: 0x8, addend: 0x0, symName: _RLMCreateObjectInRealmWithValue, symObjAddr: 0x4A0, symBinAddr: 0x2ECE9C, symSize: 0x1B4 }
  - { offset: 0x51C699, size: 0x8, addend: 0x0, symName: _RLMCreateAsymmetricObjectInRealm, symObjAddr: 0x654, symBinAddr: 0x2ED050, symSize: 0x10C }
  - { offset: 0x51CB76, size: 0x8, addend: 0x0, symName: __Z20RLMObjectFromObjLinkP8RLMRealmON5realm7ObjLinkEb, symObjAddr: 0x760, symBinAddr: 0x2ED15C, symSize: 0x2B4 }
  - { offset: 0x51D053, size: 0x8, addend: 0x0, symName: __Z23RLMCreateObjectAccessorR12RLMClassInfox, symObjAddr: 0xA14, symBinAddr: 0x2ED410, symSize: 0x50 }
  - { offset: 0x51D09F, size: 0x8, addend: 0x0, symName: __Z23RLMCreateObjectAccessorR12RLMClassInfoRKN5realm3ObjE, symObjAddr: 0x1728, symBinAddr: 0x2EE124, symSize: 0x70 }
  - { offset: 0x51D0FB, size: 0x8, addend: 0x0, symName: _RLMDeleteObjectFromRealm, symObjAddr: 0xA64, symBinAddr: 0x2ED460, symSize: 0xB0 }
  - { offset: 0x51D210, size: 0x8, addend: 0x0, symName: _RLMDeleteAllObjectsFromRealm, symObjAddr: 0xB14, symBinAddr: 0x2ED510, symSize: 0x58 }
  - { offset: 0x51D815, size: 0x8, addend: 0x0, symName: _RLMGetObjects, symObjAddr: 0xB6C, symBinAddr: 0x2ED568, symSize: 0x3C4 }
  - { offset: 0x51F4EA, size: 0x8, addend: 0x0, symName: _RLMGetObject, symObjAddr: 0xF30, symBinAddr: 0x2ED92C, symSize: 0x7F8 }
  - { offset: 0x525413, size: 0x8, addend: 0x0, symName: __ZN18RLMObservationInfoC2ER12RLMClassInfoN5realm6ObjKeyEP11objc_object, symObjAddr: 0x0, symBinAddr: 0x2EE238, symSize: 0xC4 }
  - { offset: 0x56B8DC, size: 0x8, addend: 0x0, symName: __ZNSt3__111__introsortINS_17_ClassicAlgPolicyERNS_6__lessIvvEEPN5realm14BindingContext13ObserverStateELb0EEEvT1_S9_T0_NS_15iterator_traitsIS9_E15difference_typeEb, symObjAddr: 0x1D90, symBinAddr: 0x2EFFA0, symSize: 0xBF8 }
  - { offset: 0x56E809, size: 0x8, addend: 0x0, symName: __ZNSt3__127__insertion_sort_incompleteB8ne180100INS_17_ClassicAlgPolicyERNS_6__lessIvvEEPN5realm14BindingContext13ObserverStateEEEbT1_S9_T0_, symObjAddr: 0x2B40, symBinAddr: 0x2F0D50, symSize: 0x250 }
  - { offset: 0x56EE82, size: 0x8, addend: 0x0, symName: __ZNSt3__111__introsortINS_17_ClassicAlgPolicyERZN21RLMObservationTracker19cascadeNotificationIN5realm5Group19CascadeNotificationEEEvRKT_EUlS7_T0_E_PPNS_6vectorIP18RLMObservationInfoNS_9allocatorISF_EEEELb0EEEvT1_SL_SA_NS_15iterator_traitsISL_E15difference_typeEb, symObjAddr: 0x3A98, symBinAddr: 0x2F1C0C, symSize: 0xB8C }
  - { offset: 0x5717E9, size: 0x8, addend: 0x0, symName: __ZNSt3__127__insertion_sort_incompleteB8ne180100INS_17_ClassicAlgPolicyERZN21RLMObservationTracker19cascadeNotificationIN5realm5Group19CascadeNotificationEEEvRKT_EUlS7_T0_E_PPNS_6vectorIP18RLMObservationInfoNS_9allocatorISF_EEEEEEbT1_SL_SA_, symObjAddr: 0x4808, symBinAddr: 0x2F297C, symSize: 0x238 }
  - { offset: 0x572782, size: 0x8, addend: 0x0, symName: __ZNSt3__119__allocate_at_leastB8ne180100INS_9allocatorIP18RLMObservationInfoEEEENS_19__allocation_resultINS_16allocator_traitsIT_E7pointerEEERS7_m, symObjAddr: 0x1A94, symBinAddr: 0x2EFCCC, symSize: 0x34 }
  - { offset: 0x57312D, size: 0x8, addend: 0x0, symName: __ZNSt3__119__allocate_at_leastB8ne180100INS_9allocatorIN5realm14BindingContext13ObserverStateEEEEENS_19__allocation_resultINS_16allocator_traitsIT_E7pointerEEERS8_m, symObjAddr: 0x1C88, symBinAddr: 0x2EFE98, symSize: 0x34 }
  - { offset: 0x5743FB, size: 0x8, addend: 0x0, symName: __ZNSt3__17__sort3B8ne180100INS_17_ClassicAlgPolicyERNS_6__lessIvvEEPN5realm14BindingContext13ObserverStateEEEjT1_S9_S9_T0_, symObjAddr: 0x2A24, symBinAddr: 0x2F0C34, symSize: 0x11C }
  - { offset: 0x574787, size: 0x8, addend: 0x0, symName: __ZNSt3__17__sort4B8ne180100INS_17_ClassicAlgPolicyERNS_6__lessIvvEEPN5realm14BindingContext13ObserverStateEEEvT1_S9_S9_S9_T0_, symObjAddr: 0x2E68, symBinAddr: 0x2F1078, symSize: 0xF4 }
  - { offset: 0x574A96, size: 0x8, addend: 0x0, symName: __ZNSt3__17__sort5B8ne180100INS_17_ClassicAlgPolicyERNS_6__lessIvvEEPN5realm14BindingContext13ObserverStateEEEvT1_S9_S9_S9_S9_T0_, symObjAddr: 0x2F5C, symBinAddr: 0x2F116C, symSize: 0x140 }
  - { offset: 0x57616B, size: 0x8, addend: 0x0, symName: __ZNSt3__17__sort3B8ne180100INS_17_ClassicAlgPolicyERZN21RLMObservationTracker19cascadeNotificationIN5realm5Group19CascadeNotificationEEEvRKT_EUlS7_T0_E_PPNS_6vectorIP18RLMObservationInfoNS_9allocatorISF_EEEEEEjT1_SL_SL_SA_, symObjAddr: 0x4624, symBinAddr: 0x2F2798, symSize: 0x1E4 }
  - { offset: 0x576B1C, size: 0x8, addend: 0x0, symName: __ZNSt3__17__sort4B8ne180100INS_17_ClassicAlgPolicyERZN21RLMObservationTracker19cascadeNotificationIN5realm5Group19CascadeNotificationEEEvRKT_EUlS7_T0_E_PPNS_6vectorIP18RLMObservationInfoNS_9allocatorISF_EEEEEEvT1_SL_SL_SL_SA_, symObjAddr: 0x4A40, symBinAddr: 0x2F2BB4, symSize: 0x14C }
  - { offset: 0x57712A, size: 0x8, addend: 0x0, symName: __ZNSt3__17__sort5B8ne180100INS_17_ClassicAlgPolicyERZN21RLMObservationTracker19cascadeNotificationIN5realm5Group19CascadeNotificationEEEvRKT_EUlS7_T0_E_PPNS_6vectorIP18RLMObservationInfoNS_9allocatorISF_EEEEEEvT1_SL_SL_SL_SL_SA_, symObjAddr: 0x4B8C, symBinAddr: 0x2F2D00, symSize: 0x1B0 }
  - { offset: 0x57C3E5, size: 0x8, addend: 0x0, symName: __ZN18RLMObservationInfo11valueForKeyEP8NSString, symObjAddr: 0x970, symBinAddr: 0x2EEBA8, symSize: 0x428 }
  - { offset: 0x57C40B, size: 0x8, addend: 0x0, symName: __MergedGlobals, symObjAddr: 0x283690, symBinAddr: 0x4A9678, symSize: 0x0 }
  - { offset: 0x57CD84, size: 0x8, addend: 0x0, symName: __ZNSt3__16vectorIN5realm14BindingContext13ObserverStateENS_9allocatorIS3_EEE26__swap_out_circular_bufferERNS_14__split_bufferIS3_RS5_EE, symObjAddr: 0x1BC0, symBinAddr: 0x2EFDE4, symSize: 0xB4 }
  - { offset: 0x57D29A, size: 0x8, addend: 0x0, symName: __ZN18RLMObservationInfoC2ER12RLMClassInfoN5realm6ObjKeyEP11objc_object, symObjAddr: 0x0, symBinAddr: 0x2EE238, symSize: 0xC4 }
  - { offset: 0x57D3C4, size: 0x8, addend: 0x0, symName: __ZN18RLMObservationInfo6setRowERKN5realm5TableENS0_6ObjKeyE, symObjAddr: 0xC4, symBinAddr: 0x2EE2FC, symSize: 0x154 }
  - { offset: 0x57D906, size: 0x8, addend: 0x0, symName: __ZN18RLMObservationInfoC1ER12RLMClassInfoN5realm6ObjKeyEP11objc_object, symObjAddr: 0x218, symBinAddr: 0x2EE450, symSize: 0x4 }
  - { offset: 0x57DD2E, size: 0x8, addend: 0x0, symName: __ZNKSt3__16vectorIP18RLMObservationInfoNS_9allocatorIS2_EEE20__throw_length_errorB8ne180100Ev, symObjAddr: 0x1A80, symBinAddr: 0x2EFCB8, symSize: 0x14 }
  - { offset: 0x57DD51, size: 0x8, addend: 0x0, symName: __ZN18RLMObservationInfoC1ER12RLMClassInfoN5realm6ObjKeyEP11objc_object, symObjAddr: 0x218, symBinAddr: 0x2EE450, symSize: 0x4 }
  - { offset: 0x57DDA9, size: 0x8, addend: 0x0, symName: __ZN18RLMObservationInfoC1ER12RLMClassInfoN5realm6ObjKeyEP11objc_object, symObjAddr: 0x218, symBinAddr: 0x2EE450, symSize: 0x4 }
  - { offset: 0x57DDB4, size: 0x8, addend: 0x0, symName: __ZN18RLMObservationInfoC2EP11objc_object, symObjAddr: 0x21C, symBinAddr: 0x2EE454, symSize: 0x34 }
  - { offset: 0x57DEC5, size: 0x8, addend: 0x0, symName: __ZN18RLMObservationInfoC1EP11objc_object, symObjAddr: 0x250, symBinAddr: 0x2EE488, symSize: 0x34 }
  - { offset: 0x57DF01, size: 0x8, addend: 0x0, symName: __ZN18RLMObservationInfoC1EP11objc_object, symObjAddr: 0x250, symBinAddr: 0x2EE488, symSize: 0x34 }
  - { offset: 0x57E07A, size: 0x8, addend: 0x0, symName: __ZN18RLMObservationInfoD2Ev, symObjAddr: 0x284, symBinAddr: 0x2EE4BC, symSize: 0xC8 }
  - { offset: 0x57E211, size: 0x8, addend: 0x0, symName: __ZN18RLMObservationInfoD1Ev, symObjAddr: 0x34C, symBinAddr: 0x2EE584, symSize: 0x4 }
  - { offset: 0x57E23F, size: 0x8, addend: 0x0, symName: __ZN18RLMObservationInfoD1Ev, symObjAddr: 0x34C, symBinAddr: 0x2EE584, symSize: 0x4 }
  - { offset: 0x57E24A, size: 0x8, addend: 0x0, symName: __ZNK18RLMObservationInfo10columnNameEN5realm6ColKeyE, symObjAddr: 0x350, symBinAddr: 0x2EE588, symSize: 0x4C }
  - { offset: 0x57E283, size: 0x8, addend: 0x0, symName: __ZNK18RLMObservationInfo10willChangeEP8NSString16NSKeyValueChangeP10NSIndexSet, symObjAddr: 0x39C, symBinAddr: 0x2EE5D4, symSize: 0x204 }
  - { offset: 0x57E5CF, size: 0x8, addend: 0x0, symName: __ZNK18RLMObservationInfo9didChangeEP8NSString16NSKeyValueChangeP10NSIndexSet, symObjAddr: 0x5A0, symBinAddr: 0x2EE7D8, symSize: 0x204 }
  - { offset: 0x57E916, size: 0x8, addend: 0x0, symName: __ZN18RLMObservationInfo22prepareForInvalidationEv, symObjAddr: 0x7A4, symBinAddr: 0x2EE9DC, symSize: 0x18 }
  - { offset: 0x57E937, size: 0x8, addend: 0x0, symName: __ZN18RLMObservationInfo22prepareForInvalidationEv, symObjAddr: 0x7A4, symBinAddr: 0x2EE9DC, symSize: 0x18 }
  - { offset: 0x57E94F, size: 0x8, addend: 0x0, symName: __ZN18RLMObservationInfo14recordObserverERN5realm3ObjEP12RLMClassInfoP15RLMObjectSchemaP8NSString, symObjAddr: 0x7BC, symBinAddr: 0x2EE9F4, symSize: 0x1B4 }
  - { offset: 0x57EC92, size: 0x8, addend: 0x0, symName: '__ZZN18RLMObservationInfo11valueForKeyEP8NSStringENK3$_0clEv', symObjAddr: 0xE64, symBinAddr: 0x2EF09C, symSize: 0xA4 }
  - { offset: 0x57ED3F, size: 0x8, addend: 0x0, symName: __ZL14RLMCoerceToNilP11objc_object, symObjAddr: 0xDA8, symBinAddr: 0x2EEFE0, symSize: 0xBC }
  - { offset: 0x57EDC0, size: 0x8, addend: 0x0, symName: __ZN18RLMObservationInfo14removeObserverEv, symObjAddr: 0xD98, symBinAddr: 0x2EEFD0, symSize: 0x10 }
  - { offset: 0x57EEB4, size: 0x8, addend: 0x0, symName: __Z21RLMGetObservationInfoP18RLMObservationInfoN5realm6ObjKeyER12RLMClassInfo, symObjAddr: 0xF08, symBinAddr: 0x2EF140, symSize: 0x34 }
  - { offset: 0x57F1A1, size: 0x8, addend: 0x0, symName: __Z13RLMClearTableR12RLMClassInfo, symObjAddr: 0xF3C, symBinAddr: 0x2EF174, symSize: 0x19C }
  - { offset: 0x57F644, size: 0x8, addend: 0x0, symName: __ZN21RLMObservationTrackerC2EP8RLMRealmb, symObjAddr: 0x10E0, symBinAddr: 0x2EF318, symSize: 0xC0 }
  - { offset: 0x57FA45, size: 0x8, addend: 0x0, symName: __ZN21RLMObservationTrackerD2Ev, symObjAddr: 0x131C, symBinAddr: 0x2EF554, symSize: 0x70 }
  - { offset: 0x57FDAB, size: 0x8, addend: 0x0, symName: __ZN21RLMObservationTrackerC1EP8RLMRealmb, symObjAddr: 0x10D8, symBinAddr: 0x2EF310, symSize: 0x4 }
  - { offset: 0x57FDE4, size: 0x8, addend: 0x0, symName: __ZN21RLMObservationTrackerC1EP8RLMRealmb, symObjAddr: 0x10D8, symBinAddr: 0x2EF310, symSize: 0x4 }
  - { offset: 0x57FDEF, size: 0x8, addend: 0x0, symName: __ZN21RLMObservationTrackerD1Ev, symObjAddr: 0x10DC, symBinAddr: 0x2EF314, symSize: 0x4 }
  - { offset: 0x57FE13, size: 0x8, addend: 0x0, symName: __ZN21RLMObservationTrackerD1Ev, symObjAddr: 0x10DC, symBinAddr: 0x2EF314, symSize: 0x4 }
  - { offset: 0x58005D, size: 0x8, addend: 0x0, symName: __ZN21RLMObservationTracker14trackDeletionsEv, symObjAddr: 0x11A0, symBinAddr: 0x2EF3D8, symSize: 0x17C }
  - { offset: 0x5807DD, size: 0x8, addend: 0x0, symName: __ZNSt3__16vectorIN21RLMObservationTracker6ChangeENS_9allocatorIS2_EEE16__destroy_vectorclB8ne180100Ev, symObjAddr: 0x1AC8, symBinAddr: 0x2EFD00, symSize: 0x74 }
  - { offset: 0x580EFC, size: 0x8, addend: 0x0, symName: __ZN21RLMObservationTracker9didChangeEv, symObjAddr: 0x138C, symBinAddr: 0x2EF5C4, symSize: 0xF0 }
  - { offset: 0x5814EC, size: 0x8, addend: 0x0, symName: __ZN21RLMObservationTracker10willChangeEP18RLMObservationInfoP8NSString16NSKeyValueChangeP10NSIndexSet, symObjAddr: 0x147C, symBinAddr: 0x2EF6B4, symSize: 0xBC }
  - { offset: 0x581949, size: 0x8, addend: 0x0, symName: __Z18RLMGetObservedRowsRK13RLMSchemaInfo, symObjAddr: 0x1538, symBinAddr: 0x2EF770, symSize: 0x128 }
  - { offset: 0x58204C, size: 0x8, addend: 0x0, symName: __ZNSt3__16vectorIN5realm14BindingContext13ObserverStateENS_9allocatorIS3_EEE9push_backB8ne180100EOS3_, symObjAddr: 0x1660, symBinAddr: 0x2EF898, symSize: 0x120 }
  - { offset: 0x5825B6, size: 0x8, addend: 0x0, symName: __ZNSt3__112__hash_tableINS_17__hash_value_typeIxN5realm14BindingContext10ColumnInfoEEENS_22__unordered_map_hasherIxS5_NS_4hashIxEENS_8equal_toIxEELb1EEENS_21__unordered_map_equalIxS5_SA_S8_Lb1EEENS_9allocatorIS5_EEED2Ev, symObjAddr: 0x1D0C, symBinAddr: 0x2EFF1C, symSize: 0x38 }
  - { offset: 0x58273C, size: 0x8, addend: 0x0, symName: __ZNSt3__16vectorIN5realm14BindingContext13ObserverStateENS_9allocatorIS3_EEE16__destroy_vectorclB8ne180100Ev, symObjAddr: 0x309C, symBinAddr: 0x2F12AC, symSize: 0x74 }
  - { offset: 0x582D12, size: 0x8, addend: 0x0, symName: __ZNSt3__112__hash_tableINS_17__hash_value_typeIxN5realm14BindingContext10ColumnInfoEEENS_22__unordered_map_hasherIxS5_NS_4hashIxEENS_8equal_toIxEELb1EEENS_21__unordered_map_equalIxS5_SA_S8_Lb1EEENS_9allocatorIS5_EEEC2EOSG_, symObjAddr: 0x1B50, symBinAddr: 0x2EFD74, symSize: 0x70 }
  - { offset: 0x582D50, size: 0x8, addend: 0x0, symName: __ZNSt3__112__hash_tableINS_17__hash_value_typeIxN5realm14BindingContext10ColumnInfoEEENS_22__unordered_map_hasherIxS5_NS_4hashIxEENS_8equal_toIxEELb1EEENS_21__unordered_map_equalIxS5_SA_S8_Lb1EEENS_9allocatorIS5_EEEC2EOSG_, symObjAddr: 0x1B50, symBinAddr: 0x2EFD74, symSize: 0x70 }
  - { offset: 0x582D76, size: 0x8, addend: 0x0, symName: __ZNSt3__112__hash_tableINS_17__hash_value_typeIxN5realm14BindingContext10ColumnInfoEEENS_22__unordered_map_hasherIxS5_NS_4hashIxEENS_8equal_toIxEELb1EEENS_21__unordered_map_equalIxS5_SA_S8_Lb1EEENS_9allocatorIS5_EEEC2EOSG_, symObjAddr: 0x1B50, symBinAddr: 0x2EFD74, symSize: 0x70 }
  - { offset: 0x582D9C, size: 0x8, addend: 0x0, symName: __ZNSt3__112__hash_tableINS_17__hash_value_typeIxN5realm14BindingContext10ColumnInfoEEENS_22__unordered_map_hasherIxS5_NS_4hashIxEENS_8equal_toIxEELb1EEENS_21__unordered_map_equalIxS5_SA_S8_Lb1EEENS_9allocatorIS5_EEEC2EOSG_, symObjAddr: 0x1B50, symBinAddr: 0x2EFD74, symSize: 0x70 }
  - { offset: 0x582F2F, size: 0x8, addend: 0x0, symName: __ZNSt3__114__split_bufferIN5realm14BindingContext13ObserverStateERNS_9allocatorIS3_EEED2Ev, symObjAddr: 0x1CBC, symBinAddr: 0x2EFECC, symSize: 0x50 }
  - { offset: 0x58318B, size: 0x8, addend: 0x0, symName: __Z13RLMWillChangeRKNSt3__16vectorIN5realm14BindingContext13ObserverStateENS_9allocatorIS3_EEEERKNS0_IPvNS4_IS9_EEEE, symObjAddr: 0x1780, symBinAddr: 0x2EF9B8, symSize: 0x198 }
  - { offset: 0x583583, size: 0x8, addend: 0x0, symName: __ZL7convertRKN5realm8IndexSetEP17NSMutableIndexSet, symObjAddr: 0x5A38, symBinAddr: 0x2F3030, symSize: 0xE8 }
  - { offset: 0x5837CC, size: 0x8, addend: 0x0, symName: __Z12RLMDidChangeRKNSt3__16vectorIN5realm14BindingContext13ObserverStateENS_9allocatorIS3_EEEERKNS0_IPvNS4_IS9_EEEE, symObjAddr: 0x1918, symBinAddr: 0x2EFB50, symSize: 0x168 }
  - { offset: 0x583FF7, size: 0x8, addend: 0x0, symName: __ZNSt3__112__hash_tableINS_17__hash_value_typeIxN5realm14BindingContext10ColumnInfoEEENS_22__unordered_map_hasherIxS5_NS_4hashIxEENS_8equal_toIxEELb1EEENS_21__unordered_map_equalIxS5_SA_S8_Lb1EEENS_9allocatorIS5_EEE17__deallocate_nodeEPNS_16__hash_node_baseIPNS_11__hash_nodeIS5_PvEEEE, symObjAddr: 0x1D44, symBinAddr: 0x2EFF54, symSize: 0x4C }
  - { offset: 0x584688, size: 0x8, addend: 0x0, symName: __ZNSt3__112__hash_tableINS_17__hash_value_typeIxN5realm14BindingContext10ColumnInfoEEENS_22__unordered_map_hasherIxS5_NS_4hashIxEENS_8equal_toIxEELb1EEENS_21__unordered_map_equalIxS5_SA_S8_Lb1EEENS_9allocatorIS5_EEE13__move_assignERSG_NS_17integral_constantIbLb1EEE, symObjAddr: 0x2D90, symBinAddr: 0x2F0FA0, symSize: 0xD8 }
  - { offset: 0x584969, size: 0x8, addend: 0x0, symName: __ZNSt3__18_IterOpsINS_17_ClassicAlgPolicyEE9iter_swapB8ne180100IRPN5realm14BindingContext13ObserverStateES8_EEvOT_OT0_, symObjAddr: 0x2988, symBinAddr: 0x2F0B98, symSize: 0x9C }
  - { offset: 0x584D5E, size: 0x8, addend: 0x0, symName: '__ZN5realm4util14UniqueFunctionIFvRKNS_5Group19CascadeNotificationEEE12SpecificImplIZN21RLMObservationTracker14trackDeletionsEvE3$_0ED1Ev', symObjAddr: 0x3110, symBinAddr: 0x2F1320, symSize: 0x4 }
  - { offset: 0x584D89, size: 0x8, addend: 0x0, symName: '__ZN5realm4util14UniqueFunctionIFvRKNS_5Group19CascadeNotificationEEE12SpecificImplIZN21RLMObservationTracker14trackDeletionsEvE3$_0ED0Ev', symObjAddr: 0x3114, symBinAddr: 0x2F1324, symSize: 0x4 }
  - { offset: 0x585A9A, size: 0x8, addend: 0x0, symName: '__ZN5realm4util14UniqueFunctionIFvRKNS_5Group19CascadeNotificationEEE12SpecificImplIZN21RLMObservationTracker14trackDeletionsEvE3$_0E4callES5_', symObjAddr: 0x3118, symBinAddr: 0x2F1328, symSize: 0x798 }
  - { offset: 0x58795F, size: 0x8, addend: 0x0, symName: __ZNSt3__16vectorIN21RLMObservationTracker6ChangeENS_9allocatorIS2_EEE9push_backB8ne180100EOS2_, symObjAddr: 0x38B0, symBinAddr: 0x2F1AC0, symSize: 0x14C }
  - { offset: 0x5882A2, size: 0x8, addend: 0x0, symName: __ZNSt3__114__split_bufferIN21RLMObservationTracker6ChangeERNS_9allocatorIS2_EEED2Ev, symObjAddr: 0x4D50, symBinAddr: 0x2F2EB0, symSize: 0x50 }
  - { offset: 0x5885A2, size: 0x8, addend: 0x0, symName: __ZNSt3__16vectorIN5realm11PathElementENS_9allocatorIS2_EEE16__destroy_vectorclB8ne180100Ev, symObjAddr: 0x58B8, symBinAddr: 0x2F2F00, symSize: 0x40 }
  - { offset: 0x58870E, size: 0x8, addend: 0x0, symName: __ZNSt3__16vectorIN5realm11PathElementENS_9allocatorIS2_EEE22__base_destruct_at_endB8ne180100EPS2_, symObjAddr: 0x58F8, symBinAddr: 0x2F2F40, symSize: 0x60 }
  - { offset: 0x588BC2, size: 0x8, addend: 0x0, symName: __ZZN5realm4util11FunctionRefIFNS_15IteratorControlEPNS_13BPlusTreeNodeEmEEC1IRZNKS_9BPlusTreeINS_6ObjKeyEE8find_allIZNKS_6LnkLst8find_allIZN21RLMObservationTracker19cascadeNotificationINS_5Group19CascadeNotificationEEEvRKT_EUlmE_EEvS9_OSI_EUlmE_EEvS9_SM_EUlS4_mE_EESM_ENUlPvS4_mE_8__invokeESQ_S4_m, symObjAddr: 0x59A8, symBinAddr: 0x2F2FA0, symSize: 0x90 }
  - { offset: 0x58AE65, size: 0x8, addend: 0x0, symName: __Z18transformPredicateP11NSPredicateNSt3__18functionIFP12NSExpressionS4_EEE, symObjAddr: 0x0, symBinAddr: 0x2F3118, symSize: 0x1AC }
  - { offset: 0x58C53F, size: 0x8, addend: 0x0, symName: __Z18transformPredicateP11NSPredicateNSt3__18functionIFP12NSExpressionS4_EEE, symObjAddr: 0x0, symBinAddr: 0x2F3118, symSize: 0x1AC }
  - { offset: 0x58C9E6, size: 0x8, addend: 0x0, symName: __ZNSt3__110__function12__value_funcIFP12NSExpressionS3_EEC2B8ne180100ERKS5_, symObjAddr: 0xDE4, symBinAddr: 0x2F3EB0, symSize: 0x64 }
  - { offset: 0x58CA2B, size: 0x8, addend: 0x0, symName: __ZNK12_GLOBAL__N_130PredicateExpressionTransformer5visitEP11NSPredicate, symObjAddr: 0x1AC, symBinAddr: 0x2F32C4, symSize: 0x36C }
  - { offset: 0x58CAF7, size: 0x8, addend: 0x0, symName: __ZNK12_GLOBAL__N_130PredicateExpressionTransformer5visitEP12NSExpression, symObjAddr: 0x518, symBinAddr: 0x2F3630, symSize: 0x880 }
  - { offset: 0x58EC04, size: 0x8, addend: 0x0, symName: __Z25RLMPropertyTypeIsComputed15RLMPropertyType, symObjAddr: 0x0, symBinAddr: 0x2F3F14, symSize: 0xC }
  - { offset: 0x58EC31, size: 0x8, addend: 0x0, symName: '-[RLMProperty setTypeFromRawType:]', symObjAddr: 0x5BC, symBinAddr: 0x2F44D0, symSize: 0x63C }
  - { offset: 0x58EC5B, size: 0x8, addend: 0x0, symName: '__ZZ34-[RLMProperty setTypeFromRawType:]E11arrayPrefix', symObjAddr: 0x28B9, symBinAddr: 0x41F907, symSize: 0x0 }
  - { offset: 0x58EC7D, size: 0x8, addend: 0x0, symName: '__ZZ34-[RLMProperty setTypeFromRawType:]E9setPrefix', symObjAddr: 0x28C5, symBinAddr: 0x41F913, symSize: 0x0 }
  - { offset: 0x58EC9F, size: 0x8, addend: 0x0, symName: '__ZZ34-[RLMProperty setTypeFromRawType:]E16dictionaryPrefix', symObjAddr: 0x28CF, symBinAddr: 0x41F91D, symSize: 0x0 }
  - { offset: 0x58ECC1, size: 0x8, addend: 0x0, symName: '__ZZ34-[RLMProperty setTypeFromRawType:]E12numberPrefix', symObjAddr: 0x28E0, symBinAddr: 0x41F92E, symSize: 0x0 }
  - { offset: 0x58ECE3, size: 0x8, addend: 0x0, symName: '__ZZ34-[RLMProperty setTypeFromRawType:]E20linkingObjectsPrefix', symObjAddr: 0x28EC, symBinAddr: 0x41F93A, symSize: 0x0 }
  - { offset: 0x592A01, size: 0x8, addend: 0x0, symName: __Z25RLMPropertyTypeIsComputed15RLMPropertyType, symObjAddr: 0x0, symBinAddr: 0x2F3F14, symSize: 0xC }
  - { offset: 0x592A89, size: 0x8, addend: 0x0, symName: _RLMValidateSwiftPropertyName, symObjAddr: 0xC, symBinAddr: 0x2F3F20, symSize: 0x120 }
  - { offset: 0x592DF1, size: 0x8, addend: 0x0, symName: '+[RLMProperty propertyForObjectStoreProperty:]', symObjAddr: 0x12C, symBinAddr: 0x2F4040, symSize: 0x234 }
  - { offset: 0x5931A5, size: 0x8, addend: 0x0, symName: '-[RLMProperty initWithName:type:objectClassName:linkOriginPropertyName:indexed:optional:]', symObjAddr: 0x360, symBinAddr: 0x2F4274, symSize: 0x130 }
  - { offset: 0x593234, size: 0x8, addend: 0x0, symName: '-[RLMProperty updateAccessors]', symObjAddr: 0x490, symBinAddr: 0x2F43A4, symSize: 0x12C }
  - { offset: 0x593320, size: 0x8, addend: 0x0, symName: __ZL22typeFromProtocolStringPKc, symObjAddr: 0xBF8, symBinAddr: 0x2F4B0C, symSize: 0x1A8 }
  - { offset: 0x593402, size: 0x8, addend: 0x0, symName: '-[RLMProperty parseObjcProperty:readOnly:computed:rawType:]', symObjAddr: 0xDA0, symBinAddr: 0x2F4CB4, symSize: 0x140 }
  - { offset: 0x593528, size: 0x8, addend: 0x0, symName: '-[RLMProperty initSwiftPropertyWithName:indexed:linkPropertyDescriptor:property:instance:]', symObjAddr: 0xEE0, symBinAddr: 0x2F4DF4, symSize: 0x784 }
  - { offset: 0x593779, size: 0x8, addend: 0x0, symName: '-[RLMProperty initWithName:indexed:linkPropertyDescriptor:property:]', symObjAddr: 0x1664, symBinAddr: 0x2F5578, symSize: 0x2DC }
  - { offset: 0x593863, size: 0x8, addend: 0x0, symName: __ZL15RLMTypeToString15RLMPropertyType, symObjAddr: 0x1940, symBinAddr: 0x2F5854, symSize: 0x24 }
  - { offset: 0x593882, size: 0x8, addend: 0x0, symName: '-[RLMProperty copyWithZone:]', symObjAddr: 0x1964, symBinAddr: 0x2F5878, symSize: 0xDC }
  - { offset: 0x5938DA, size: 0x8, addend: 0x0, symName: '-[RLMProperty copyWithNewName:]', symObjAddr: 0x1A40, symBinAddr: 0x2F5954, symSize: 0x74 }
  - { offset: 0x593932, size: 0x8, addend: 0x0, symName: '-[RLMProperty isEqual:]', symObjAddr: 0x1AB4, symBinAddr: 0x2F59C8, symSize: 0x7C }
  - { offset: 0x59397A, size: 0x8, addend: 0x0, symName: '-[RLMProperty isEqualToProperty:]', symObjAddr: 0x1B30, symBinAddr: 0x2F5A44, symSize: 0xD8 }
  - { offset: 0x5939C2, size: 0x8, addend: 0x0, symName: '-[RLMProperty collection]', symObjAddr: 0x1C08, symBinAddr: 0x2F5B1C, symSize: 0x44 }
  - { offset: 0x593A18, size: 0x8, addend: 0x0, symName: '-[RLMProperty description]', symObjAddr: 0x1C4C, symBinAddr: 0x2F5B60, symSize: 0x248 }
  - { offset: 0x593A7F, size: 0x8, addend: 0x0, symName: '-[RLMProperty columnName]', symObjAddr: 0x1E94, symBinAddr: 0x2F5DA8, symSize: 0x1C }
  - { offset: 0x593C6A, size: 0x8, addend: 0x0, symName: '-[RLMProperty objectStoreCopy:]', symObjAddr: 0x1EB0, symBinAddr: 0x2F5DC4, symSize: 0x244 }
  - { offset: 0x594090, size: 0x8, addend: 0x0, symName: '-[RLMProperty typeName]', symObjAddr: 0x20F4, symBinAddr: 0x2F6008, symSize: 0x124 }
  - { offset: 0x594118, size: 0x8, addend: 0x0, symName: '-[RLMProperty name]', symObjAddr: 0x2218, symBinAddr: 0x2F612C, symSize: 0x8 }
  - { offset: 0x59414F, size: 0x8, addend: 0x0, symName: '-[RLMProperty setName:]', symObjAddr: 0x2220, symBinAddr: 0x2F6134, symSize: 0xC }
  - { offset: 0x594190, size: 0x8, addend: 0x0, symName: '-[RLMProperty type]', symObjAddr: 0x222C, symBinAddr: 0x2F6140, symSize: 0x8 }
  - { offset: 0x5941C7, size: 0x8, addend: 0x0, symName: '-[RLMProperty setType:]', symObjAddr: 0x2234, symBinAddr: 0x2F6148, symSize: 0x8 }
  - { offset: 0x594204, size: 0x8, addend: 0x0, symName: '-[RLMProperty indexed]', symObjAddr: 0x223C, symBinAddr: 0x2F6150, symSize: 0x8 }
  - { offset: 0x59423B, size: 0x8, addend: 0x0, symName: '-[RLMProperty setIndexed:]', symObjAddr: 0x2244, symBinAddr: 0x2F6158, symSize: 0x8 }
  - { offset: 0x594276, size: 0x8, addend: 0x0, symName: '-[RLMProperty objectClassName]', symObjAddr: 0x224C, symBinAddr: 0x2F6160, symSize: 0x8 }
  - { offset: 0x5942AD, size: 0x8, addend: 0x0, symName: '-[RLMProperty setObjectClassName:]', symObjAddr: 0x2254, symBinAddr: 0x2F6168, symSize: 0x8 }
  - { offset: 0x5942EC, size: 0x8, addend: 0x0, symName: '-[RLMProperty linkOriginPropertyName]', symObjAddr: 0x225C, symBinAddr: 0x2F6170, symSize: 0x8 }
  - { offset: 0x594323, size: 0x8, addend: 0x0, symName: '-[RLMProperty setLinkOriginPropertyName:]', symObjAddr: 0x2264, symBinAddr: 0x2F6178, symSize: 0x8 }
  - { offset: 0x594362, size: 0x8, addend: 0x0, symName: '-[RLMProperty optional]', symObjAddr: 0x226C, symBinAddr: 0x2F6180, symSize: 0x8 }
  - { offset: 0x594399, size: 0x8, addend: 0x0, symName: '-[RLMProperty setOptional:]', symObjAddr: 0x2274, symBinAddr: 0x2F6188, symSize: 0x8 }
  - { offset: 0x5943D4, size: 0x8, addend: 0x0, symName: '-[RLMProperty array]', symObjAddr: 0x227C, symBinAddr: 0x2F6190, symSize: 0x8 }
  - { offset: 0x59440B, size: 0x8, addend: 0x0, symName: '-[RLMProperty setArray:]', symObjAddr: 0x2284, symBinAddr: 0x2F6198, symSize: 0x8 }
  - { offset: 0x594446, size: 0x8, addend: 0x0, symName: '-[RLMProperty set]', symObjAddr: 0x228C, symBinAddr: 0x2F61A0, symSize: 0x8 }
  - { offset: 0x59447D, size: 0x8, addend: 0x0, symName: '-[RLMProperty setSet:]', symObjAddr: 0x2294, symBinAddr: 0x2F61A8, symSize: 0x8 }
  - { offset: 0x5944B8, size: 0x8, addend: 0x0, symName: '-[RLMProperty dictionary]', symObjAddr: 0x229C, symBinAddr: 0x2F61B0, symSize: 0x8 }
  - { offset: 0x5944EF, size: 0x8, addend: 0x0, symName: '-[RLMProperty setDictionary:]', symObjAddr: 0x22A4, symBinAddr: 0x2F61B8, symSize: 0x8 }
  - { offset: 0x59452A, size: 0x8, addend: 0x0, symName: '-[RLMProperty setColumnName:]', symObjAddr: 0x22AC, symBinAddr: 0x2F61C0, symSize: 0xC }
  - { offset: 0x59456B, size: 0x8, addend: 0x0, symName: '-[RLMProperty index]', symObjAddr: 0x22B8, symBinAddr: 0x2F61CC, symSize: 0x8 }
  - { offset: 0x5945A2, size: 0x8, addend: 0x0, symName: '-[RLMProperty setIndex:]', symObjAddr: 0x22C0, symBinAddr: 0x2F61D4, symSize: 0x8 }
  - { offset: 0x5945DF, size: 0x8, addend: 0x0, symName: '-[RLMProperty isPrimary]', symObjAddr: 0x22C8, symBinAddr: 0x2F61DC, symSize: 0x8 }
  - { offset: 0x594616, size: 0x8, addend: 0x0, symName: '-[RLMProperty setIsPrimary:]', symObjAddr: 0x22D0, symBinAddr: 0x2F61E4, symSize: 0x8 }
  - { offset: 0x594651, size: 0x8, addend: 0x0, symName: '-[RLMProperty isLegacy]', symObjAddr: 0x22D8, symBinAddr: 0x2F61EC, symSize: 0x8 }
  - { offset: 0x594688, size: 0x8, addend: 0x0, symName: '-[RLMProperty setIsLegacy:]', symObjAddr: 0x22E0, symBinAddr: 0x2F61F4, symSize: 0x8 }
  - { offset: 0x5946C3, size: 0x8, addend: 0x0, symName: '-[RLMProperty swiftIvar]', symObjAddr: 0x22E8, symBinAddr: 0x2F61FC, symSize: 0x8 }
  - { offset: 0x5946FA, size: 0x8, addend: 0x0, symName: '-[RLMProperty setSwiftIvar:]', symObjAddr: 0x22F0, symBinAddr: 0x2F6204, symSize: 0x8 }
  - { offset: 0x594737, size: 0x8, addend: 0x0, symName: '-[RLMProperty swiftAccessor]', symObjAddr: 0x22F8, symBinAddr: 0x2F620C, symSize: 0x8 }
  - { offset: 0x59476E, size: 0x8, addend: 0x0, symName: '-[RLMProperty setSwiftAccessor:]', symObjAddr: 0x2300, symBinAddr: 0x2F6214, symSize: 0x8 }
  - { offset: 0x5947AB, size: 0x8, addend: 0x0, symName: '-[RLMProperty dictionaryKeyType]', symObjAddr: 0x2308, symBinAddr: 0x2F621C, symSize: 0x8 }
  - { offset: 0x5947E2, size: 0x8, addend: 0x0, symName: '-[RLMProperty setDictionaryKeyType:]', symObjAddr: 0x2310, symBinAddr: 0x2F6224, symSize: 0x8 }
  - { offset: 0x59481F, size: 0x8, addend: 0x0, symName: '-[RLMProperty customMappingIsOptional]', symObjAddr: 0x2318, symBinAddr: 0x2F622C, symSize: 0x8 }
  - { offset: 0x594856, size: 0x8, addend: 0x0, symName: '-[RLMProperty setCustomMappingIsOptional:]', symObjAddr: 0x2320, symBinAddr: 0x2F6234, symSize: 0x8 }
  - { offset: 0x594891, size: 0x8, addend: 0x0, symName: '-[RLMProperty getterName]', symObjAddr: 0x2328, symBinAddr: 0x2F623C, symSize: 0x8 }
  - { offset: 0x5948C8, size: 0x8, addend: 0x0, symName: '-[RLMProperty setGetterName:]', symObjAddr: 0x2330, symBinAddr: 0x2F6244, symSize: 0x8 }
  - { offset: 0x594907, size: 0x8, addend: 0x0, symName: '-[RLMProperty setterName]', symObjAddr: 0x2338, symBinAddr: 0x2F624C, symSize: 0x8 }
  - { offset: 0x59493E, size: 0x8, addend: 0x0, symName: '-[RLMProperty setSetterName:]', symObjAddr: 0x2340, symBinAddr: 0x2F6254, symSize: 0x8 }
  - { offset: 0x59497D, size: 0x8, addend: 0x0, symName: '-[RLMProperty getterSel]', symObjAddr: 0x2348, symBinAddr: 0x2F625C, symSize: 0x8 }
  - { offset: 0x5949B4, size: 0x8, addend: 0x0, symName: '-[RLMProperty setGetterSel:]', symObjAddr: 0x2350, symBinAddr: 0x2F6264, symSize: 0x8 }
  - { offset: 0x5949F1, size: 0x8, addend: 0x0, symName: '-[RLMProperty setterSel]', symObjAddr: 0x2358, symBinAddr: 0x2F626C, symSize: 0x8 }
  - { offset: 0x594A28, size: 0x8, addend: 0x0, symName: '-[RLMProperty setSetterSel:]', symObjAddr: 0x2360, symBinAddr: 0x2F6274, symSize: 0x8 }
  - { offset: 0x594A65, size: 0x8, addend: 0x0, symName: '-[RLMProperty .cxx_destruct]', symObjAddr: 0x2368, symBinAddr: 0x2F627C, symSize: 0x60 }
  - { offset: 0x594A98, size: 0x8, addend: 0x0, symName: '+[RLMPropertyDescriptor descriptorWithClass:propertyName:]', symObjAddr: 0x23C8, symBinAddr: 0x2F62DC, symSize: 0x74 }
  - { offset: 0x594AFC, size: 0x8, addend: 0x0, symName: '-[RLMPropertyDescriptor objectClass]', symObjAddr: 0x243C, symBinAddr: 0x2F6350, symSize: 0x8 }
  - { offset: 0x594B33, size: 0x8, addend: 0x0, symName: '-[RLMPropertyDescriptor propertyName]', symObjAddr: 0x2444, symBinAddr: 0x2F6358, symSize: 0x8 }
  - { offset: 0x594B6A, size: 0x8, addend: 0x0, symName: '-[RLMPropertyDescriptor .cxx_destruct]', symObjAddr: 0x244C, symBinAddr: 0x2F6360, symSize: 0x30 }
  - { offset: 0x596BF5, size: 0x8, addend: 0x0, symName: __Z19RLMPredicateToQueryP11NSPredicateP15RLMObjectSchemaP9RLMSchemaRN5realm5GroupE, symObjAddr: 0x0, symBinAddr: 0x2F6390, symSize: 0x154 }
  - { offset: 0x59DFDB, size: 0x8, addend: 0x0, symName: __ZN12_GLOBAL__N_19get_tableERN5realm5GroupEP15RLMObjectSchema, symObjAddr: 0x154, symBinAddr: 0x2F64E4, symSize: 0x84 }
  - { offset: 0x59E124, size: 0x8, addend: 0x0, symName: __ZN12_GLOBAL__N_115RLMPreconditionEbP8NSStringS1_z, symObjAddr: 0x10A4, symBinAddr: 0x2F7434, symSize: 0xD8 }
  - { offset: 0x59E18F, size: 0x8, addend: 0x0, symName: __ZN12_GLOBAL__N_120key_path_from_stringEP9RLMSchemaP15RLMObjectSchemaP8NSString, symObjAddr: 0x16D8, symBinAddr: 0x2F79C0, symSize: 0x900 }
  - { offset: 0x59EB49, size: 0x8, addend: 0x0, symName: __ZN12_GLOBAL__N_114throwExceptionEP8NSStringS1_z, symObjAddr: 0x117C, symBinAddr: 0x3C68A0, symSize: 0xA8 }
  - { offset: 0x59EBC4, size: 0x8, addend: 0x0, symName: __ZN12_GLOBAL__N_126invert_comparison_operatorE23NSPredicateOperatorType, symObjAddr: 0x57A8, symBinAddr: 0x2FBA80, symSize: 0xB0 }
  - { offset: 0x59EEA5, size: 0x8, addend: 0x0, symName: __ZN12_GLOBAL__N_18isNSNullEP11objc_object, symObjAddr: 0x98C0C, symBinAddr: 0x37CD54, symSize: 0x6C }
  - { offset: 0x59EED4, size: 0x8, addend: 0x0, symName: __ZN12_GLOBAL__N_124isObjectValidForPropertyEP11objc_objectP11RLMProperty, symObjAddr: 0x98C78, symBinAddr: 0x37CDC0, symSize: 0x218 }
  - { offset: 0x59EFA5, size: 0x8, addend: 0x0, symName: __ZN12_GLOBAL__N_139value_from_constant_expression_or_valueEP11objc_object, symObjAddr: 0xBA1CC, symBinAddr: 0x39E314, symSize: 0xD0 }
  - { offset: 0x59F00B, size: 0x8, addend: 0x0, symName: __ZN12_GLOBAL__N_137make_diacritic_insensitive_constraintINS_5EqualILm136EEEEEN5realm5QueryEbNSt3__110unique_ptrINS3_7SubexprENS5_14default_deleteIS7_EEEESA_, symObjAddr: 0x7ABF8, symBinAddr: 0x35F1DC, symSize: 0x1C4 }
  - { offset: 0x59F9FF, size: 0x8, addend: 0x0, symName: __ZN12_GLOBAL__N_137make_diacritic_insensitive_constraintE23NSPredicateOperatorTypebNSt3__110unique_ptrIN5realm7SubexprENS1_14default_deleteIS4_EEEES7_, symObjAddr: 0x7A678, symBinAddr: 0x35EC5C, symSize: 0x3BC }
  - { offset: 0x5A102B, size: 0x8, addend: 0x0, symName: __ZN12_GLOBAL__N_137make_diacritic_insensitive_constraintINS_8NotEqualILm136EEEEEN5realm5QueryEbNSt3__110unique_ptrINS3_7SubexprENS5_14default_deleteIS7_EEEESA_, symObjAddr: 0x7AA34, symBinAddr: 0x35F018, symSize: 0x1C4 }
  - { offset: 0x5A1A20, size: 0x8, addend: 0x0, symName: __ZN12_GLOBAL__N_119get_collection_typeIN5realm10Decimal128EZNS_12QueryBuilder35add_collection_operation_constraintIRU8__strongP11objc_objectEEv23NSPredicateOperatorTypeRKNS_19CollectionOperationEOT_mEUlTyPSD_E_EEvP11RLMPropertyOT0_, symObjAddr: 0x9A2D0, symBinAddr: 0x37E418, symSize: 0x360 }
  - { offset: 0x5A1D3F, size: 0x8, addend: 0x0, symName: __ZN12_GLOBAL__N_119get_collection_typeIN5realm9TimestampEZNS_12QueryBuilder35add_collection_operation_constraintIRU8__strongP11objc_objectEEv23NSPredicateOperatorTypeRKNS_19CollectionOperationEOT_mEUlTyPSD_E_EEvP11RLMPropertyOT0_, symObjAddr: 0x99550, symBinAddr: 0x37D698, symSize: 0x360 }
  - { offset: 0x5A205E, size: 0x8, addend: 0x0, symName: __ZN12_GLOBAL__N_119get_collection_typeIN5realm4UUIDEZNS_12QueryBuilder35add_collection_operation_constraintIRU8__strongP11objc_objectEEv23NSPredicateOperatorTypeRKNS_19CollectionOperationEOT_mEUlTyPSD_E_EEvP11RLMPropertyOT0_, symObjAddr: 0x9ACF0, symBinAddr: 0x37EE38, symSize: 0x360 }
  - { offset: 0x5A237D, size: 0x8, addend: 0x0, symName: __ZN12_GLOBAL__N_119get_collection_typeIN5realm5MixedEZNS_12QueryBuilder35add_collection_operation_constraintIRU8__strongP11objc_objectEEv23NSPredicateOperatorTypeRKNS_19CollectionOperationEOT_mEUlTyPSD_E_EEvP11RLMPropertyOT0_, symObjAddr: 0x9B050, symBinAddr: 0x37F198, symSize: 0x3C8 }
  - { offset: 0x5A395E, size: 0x8, addend: 0x0, symName: __ZN12_GLOBAL__N_119get_collection_typeIN5realm10StringDataEZNS_12QueryBuilder35add_collection_operation_constraintIRU8__strongP11objc_objectEEv23NSPredicateOperatorTypeRKNS_19CollectionOperationEOT_mEUlTyPSD_E_EEvP11RLMPropertyOT0_, symObjAddr: 0x9A630, symBinAddr: 0x37E778, symSize: 0x360 }
  - { offset: 0x5A3C7D, size: 0x8, addend: 0x0, symName: __ZN12_GLOBAL__N_119get_collection_typeIN5realm10BinaryDataEZNS_12QueryBuilder35add_collection_operation_constraintIRU8__strongP11objc_objectEEv23NSPredicateOperatorTypeRKNS_19CollectionOperationEOT_mEUlTyPSD_E_EEvP11RLMPropertyOT0_, symObjAddr: 0x9A990, symBinAddr: 0x37EAD8, symSize: 0x360 }
  - { offset: 0x5A3F9C, size: 0x8, addend: 0x0, symName: __ZN12_GLOBAL__N_119get_collection_typeIxZNS_12QueryBuilder35add_collection_operation_constraintIRU8__strongP11objc_objectEEv23NSPredicateOperatorTypeRKNS_19CollectionOperationEOT_mEUlTyPSB_E_EEvP11RLMPropertyOT0_, symObjAddr: 0x99F70, symBinAddr: 0x37E0B8, symSize: 0x360 }
  - { offset: 0x5A42BB, size: 0x8, addend: 0x0, symName: __ZN12_GLOBAL__N_119get_collection_typeIbZNS_12QueryBuilder35add_collection_operation_constraintIRU8__strongP11objc_objectEEv23NSPredicateOperatorTypeRKNS_19CollectionOperationEOT_mEUlTyPSB_E_EEvP11RLMPropertyOT0_, symObjAddr: 0x98E90, symBinAddr: 0x37CFD8, symSize: 0x360 }
  - { offset: 0x5A45DA, size: 0x8, addend: 0x0, symName: __ZN12_GLOBAL__N_119get_collection_typeIfZNS_12QueryBuilder35add_collection_operation_constraintIRU8__strongP11objc_objectEEv23NSPredicateOperatorTypeRKNS_19CollectionOperationEOT_mEUlTyPSB_E_EEvP11RLMPropertyOT0_, symObjAddr: 0x99C10, symBinAddr: 0x37DD58, symSize: 0x360 }
  - { offset: 0x5A48F9, size: 0x8, addend: 0x0, symName: __ZN12_GLOBAL__N_119get_collection_typeIdZNS_12QueryBuilder35add_collection_operation_constraintIRU8__strongP11objc_objectEEv23NSPredicateOperatorTypeRKNS_19CollectionOperationEOT_mEUlTyPSB_E_EEvP11RLMPropertyOT0_, symObjAddr: 0x998B0, symBinAddr: 0x37D9F8, symSize: 0x360 }
  - { offset: 0x5A4C18, size: 0x8, addend: 0x0, symName: __ZN12_GLOBAL__N_119get_collection_typeIN5realm8ObjectIdEZNS_12QueryBuilder35add_collection_operation_constraintIRU8__strongP11objc_objectEEv23NSPredicateOperatorTypeRKNS_19CollectionOperationEOT_mEUlTyPSD_E_EEvP11RLMPropertyOT0_, symObjAddr: 0x991F0, symBinAddr: 0x37D338, symSize: 0x360 }
  - { offset: 0x5A4F37, size: 0x8, addend: 0x0, symName: __ZN12_GLOBAL__N_119unsupportedOperatorE15RLMPropertyType23NSPredicateOperatorType, symObjAddr: 0xB5AC, symBinAddr: 0x3C6948, symSize: 0x78 }
  - { offset: 0x5A51A8, size: 0x8, addend: 0x0, symName: __ZN12_GLOBAL__N_119get_collection_typeIN5realm10Decimal128EZNS_12QueryBuilder35add_collection_operation_constraintINS_15ColumnReferenceEEEv23NSPredicateOperatorTypeRKNS_19CollectionOperationEOT_mEUlTyPSA_E_EEvP11RLMPropertyOT0_, symObjAddr: 0x7430, symBinAddr: 0x2FD6C0, symSize: 0x354 }
  - { offset: 0x5A54C7, size: 0x8, addend: 0x0, symName: __ZN12_GLOBAL__N_119get_collection_typeIN5realm9TimestampEZNS_12QueryBuilder35add_collection_operation_constraintINS_15ColumnReferenceEEEv23NSPredicateOperatorTypeRKNS_19CollectionOperationEOT_mEUlTyPSA_E_EEvP11RLMPropertyOT0_, symObjAddr: 0x66E0, symBinAddr: 0x2FC970, symSize: 0x354 }
  - { offset: 0x5A57E6, size: 0x8, addend: 0x0, symName: __ZN12_GLOBAL__N_119get_collection_typeIN5realm4UUIDEZNS_12QueryBuilder35add_collection_operation_constraintINS_15ColumnReferenceEEEv23NSPredicateOperatorTypeRKNS_19CollectionOperationEOT_mEUlTyPSA_E_EEvP11RLMPropertyOT0_, symObjAddr: 0x7E2C, symBinAddr: 0x2FE0BC, symSize: 0x354 }
  - { offset: 0x5A5B05, size: 0x8, addend: 0x0, symName: __ZN12_GLOBAL__N_119get_collection_typeIN5realm5MixedEZNS_12QueryBuilder35add_collection_operation_constraintINS_15ColumnReferenceEEEv23NSPredicateOperatorTypeRKNS_19CollectionOperationEOT_mEUlTyPSA_E_EEvP11RLMPropertyOT0_, symObjAddr: 0x8180, symBinAddr: 0x2FE410, symSize: 0x3BC }
  - { offset: 0x5A70E6, size: 0x8, addend: 0x0, symName: __ZN12_GLOBAL__N_119get_collection_typeIN5realm10StringDataEZNS_12QueryBuilder35add_collection_operation_constraintINS_15ColumnReferenceEEEv23NSPredicateOperatorTypeRKNS_19CollectionOperationEOT_mEUlTyPSA_E_EEvP11RLMPropertyOT0_, symObjAddr: 0x7784, symBinAddr: 0x2FDA14, symSize: 0x354 }
  - { offset: 0x5A7405, size: 0x8, addend: 0x0, symName: __ZN12_GLOBAL__N_119get_collection_typeIN5realm10BinaryDataEZNS_12QueryBuilder35add_collection_operation_constraintINS_15ColumnReferenceEEEv23NSPredicateOperatorTypeRKNS_19CollectionOperationEOT_mEUlTyPSA_E_EEvP11RLMPropertyOT0_, symObjAddr: 0x7AD8, symBinAddr: 0x2FDD68, symSize: 0x354 }
  - { offset: 0x5A7724, size: 0x8, addend: 0x0, symName: __ZN12_GLOBAL__N_119get_collection_typeIxZNS_12QueryBuilder35add_collection_operation_constraintINS_15ColumnReferenceEEEv23NSPredicateOperatorTypeRKNS_19CollectionOperationEOT_mEUlTyPS8_E_EEvP11RLMPropertyOT0_, symObjAddr: 0x70DC, symBinAddr: 0x2FD36C, symSize: 0x354 }
  - { offset: 0x5A7A43, size: 0x8, addend: 0x0, symName: __ZN12_GLOBAL__N_119get_collection_typeIbZNS_12QueryBuilder35add_collection_operation_constraintINS_15ColumnReferenceEEEv23NSPredicateOperatorTypeRKNS_19CollectionOperationEOT_mEUlTyPS8_E_EEvP11RLMPropertyOT0_, symObjAddr: 0x6038, symBinAddr: 0x2FC2C8, symSize: 0x354 }
  - { offset: 0x5A7D62, size: 0x8, addend: 0x0, symName: __ZN12_GLOBAL__N_119get_collection_typeIfZNS_12QueryBuilder35add_collection_operation_constraintINS_15ColumnReferenceEEEv23NSPredicateOperatorTypeRKNS_19CollectionOperationEOT_mEUlTyPS8_E_EEvP11RLMPropertyOT0_, symObjAddr: 0x6D88, symBinAddr: 0x2FD018, symSize: 0x354 }
  - { offset: 0x5A8081, size: 0x8, addend: 0x0, symName: __ZN12_GLOBAL__N_119get_collection_typeIdZNS_12QueryBuilder35add_collection_operation_constraintINS_15ColumnReferenceEEEv23NSPredicateOperatorTypeRKNS_19CollectionOperationEOT_mEUlTyPS8_E_EEvP11RLMPropertyOT0_, symObjAddr: 0x6A34, symBinAddr: 0x2FCCC4, symSize: 0x354 }
  - { offset: 0x5A83A0, size: 0x8, addend: 0x0, symName: __ZN12_GLOBAL__N_119get_collection_typeIN5realm8ObjectIdEZNS_12QueryBuilder35add_collection_operation_constraintINS_15ColumnReferenceEEEv23NSPredicateOperatorTypeRKNS_19CollectionOperationEOT_mEUlTyPSA_E_EEvP11RLMPropertyOT0_, symObjAddr: 0x638C, symBinAddr: 0x2FC61C, symSize: 0x354 }
  - { offset: 0x5A86BF, size: 0x8, addend: 0x0, symName: __ZN12_GLOBAL__N_112operatorNameE23NSPredicateOperatorType, symObjAddr: 0x125A0, symBinAddr: 0x305A98, symSize: 0x110 }
  - { offset: 0x5A87BF, size: 0x8, addend: 0x0, symName: __ZN12_GLOBAL__N_125collection_operation_exprIxLNS_19CollectionOperation4TypeE2ELb1ELb0EEEDaS1_, symObjAddr: 0x4337C, symBinAddr: 0x327F50, symSize: 0x13C }
  - { offset: 0x5A8FFC, size: 0x8, addend: 0x0, symName: __ZN12_GLOBAL__N_125collection_operation_exprIxLNS_19CollectionOperation4TypeE2ELb0ELb1EEEDaS1_, symObjAddr: 0x58CB0, symBinAddr: 0x33D294, symSize: 0x84 }
  - { offset: 0x5A9179, size: 0x8, addend: 0x0, symName: __ZN12_GLOBAL__N_125collection_operation_exprIxLNS_19CollectionOperation4TypeE2ELb0ELb0EEEDaS1_, symObjAddr: 0x58FC8, symBinAddr: 0x33D5AC, symSize: 0x140 }
  - { offset: 0x5A9A6E, size: 0x8, addend: 0x0, symName: __ZN12_GLOBAL__N_125collection_operation_exprIN5realm5MixedELNS_19CollectionOperation4TypeE2ELb1ELb0EEEDaS3_, symObjAddr: 0x439BC, symBinAddr: 0x328590, symSize: 0x1F4 }
  - { offset: 0x5AA8CB, size: 0x8, addend: 0x0, symName: __ZN12_GLOBAL__N_125collection_operation_exprIN5realm9TimestampELNS_19CollectionOperation4TypeE2ELb1ELb0EEEDaS3_, symObjAddr: 0x4387C, symBinAddr: 0x328450, symSize: 0x13C }
  - { offset: 0x5AB108, size: 0x8, addend: 0x0, symName: __ZN12_GLOBAL__N_125collection_operation_exprIN5realm10Decimal128ELNS_19CollectionOperation4TypeE2ELb1ELb0EEEDaS3_, symObjAddr: 0x4373C, symBinAddr: 0x328310, symSize: 0x13C }
  - { offset: 0x5AB945, size: 0x8, addend: 0x0, symName: __ZN12_GLOBAL__N_125collection_operation_exprIfLNS_19CollectionOperation4TypeE2ELb1ELb0EEEDaS1_, symObjAddr: 0x434BC, symBinAddr: 0x328090, symSize: 0x13C }
  - { offset: 0x5AC192, size: 0x8, addend: 0x0, symName: __ZN12_GLOBAL__N_125collection_operation_exprIdLNS_19CollectionOperation4TypeE2ELb1ELb0EEEDaS1_, symObjAddr: 0x435FC, symBinAddr: 0x3281D0, symSize: 0x13C }
  - { offset: 0x5AC9DF, size: 0x8, addend: 0x0, symName: __ZN12_GLOBAL__N_125collection_operation_exprIN5realm5MixedELNS_19CollectionOperation4TypeE2ELb0ELb1EEEDaS3_, symObjAddr: 0x58F44, symBinAddr: 0x33D528, symSize: 0x84 }
  - { offset: 0x5ACB5C, size: 0x8, addend: 0x0, symName: __ZN12_GLOBAL__N_125collection_operation_exprIN5realm5MixedELNS_19CollectionOperation4TypeE2ELb0ELb0EEEDaS3_, symObjAddr: 0x59830, symBinAddr: 0x33DE14, symSize: 0x84 }
  - { offset: 0x5ACCD9, size: 0x8, addend: 0x0, symName: __ZN12_GLOBAL__N_125collection_operation_exprIN5realm9TimestampELNS_19CollectionOperation4TypeE2ELb0ELb1EEEDaS3_, symObjAddr: 0x58EC0, symBinAddr: 0x33D4A4, symSize: 0x84 }
  - { offset: 0x5ACE56, size: 0x8, addend: 0x0, symName: __ZN12_GLOBAL__N_125collection_operation_exprIN5realm9TimestampELNS_19CollectionOperation4TypeE2ELb0ELb0EEEDaS3_, symObjAddr: 0x594C8, symBinAddr: 0x33DAAC, symSize: 0x280 }
  - { offset: 0x5AE167, size: 0x8, addend: 0x0, symName: __ZN12_GLOBAL__N_125collection_operation_exprIN5realm10Decimal128ELNS_19CollectionOperation4TypeE2ELb0ELb1EEEDaS3_, symObjAddr: 0x58E3C, symBinAddr: 0x33D420, symSize: 0x84 }
  - { offset: 0x5AE2E4, size: 0x8, addend: 0x0, symName: __ZN12_GLOBAL__N_125collection_operation_exprIN5realm10Decimal128ELNS_19CollectionOperation4TypeE2ELb0ELb0EEEDaS3_, symObjAddr: 0x59388, symBinAddr: 0x33D96C, symSize: 0x140 }
  - { offset: 0x5AEBD9, size: 0x8, addend: 0x0, symName: __ZN12_GLOBAL__N_125collection_operation_exprIfLNS_19CollectionOperation4TypeE2ELb0ELb1EEEDaS1_, symObjAddr: 0x58D34, symBinAddr: 0x33D318, symSize: 0x84 }
  - { offset: 0x5AED56, size: 0x8, addend: 0x0, symName: __ZN12_GLOBAL__N_125collection_operation_exprIfLNS_19CollectionOperation4TypeE2ELb0ELb0EEEDaS1_, symObjAddr: 0x59108, symBinAddr: 0x33D6EC, symSize: 0x140 }
  - { offset: 0x5AF64B, size: 0x8, addend: 0x0, symName: __ZN12_GLOBAL__N_125collection_operation_exprIdLNS_19CollectionOperation4TypeE2ELb0ELb1EEEDaS1_, symObjAddr: 0x58DB8, symBinAddr: 0x33D39C, symSize: 0x84 }
  - { offset: 0x5AF7C8, size: 0x8, addend: 0x0, symName: __ZN12_GLOBAL__N_125collection_operation_exprIdLNS_19CollectionOperation4TypeE2ELb0ELb0EEEDaS1_, symObjAddr: 0x59248, symBinAddr: 0x33D82C, symSize: 0x140 }
  - { offset: 0x5B036E, size: 0x8, addend: 0x0, symName: __ZN12_GLOBAL__N_125collection_operation_exprIxLNS_19CollectionOperation4TypeE3ELb1ELb0EEEDaS1_, symObjAddr: 0x697D8, symBinAddr: 0x34DDBC, symSize: 0x13C }
  - { offset: 0x5B0BAB, size: 0x8, addend: 0x0, symName: __ZN12_GLOBAL__N_125collection_operation_exprIxLNS_19CollectionOperation4TypeE3ELb0ELb1EEEDaS1_, symObjAddr: 0x6A130, symBinAddr: 0x34E714, symSize: 0x84 }
  - { offset: 0x5B0D28, size: 0x8, addend: 0x0, symName: __ZN12_GLOBAL__N_125collection_operation_exprIxLNS_19CollectionOperation4TypeE3ELb0ELb0EEEDaS1_, symObjAddr: 0x6A448, symBinAddr: 0x34EA2C, symSize: 0x140 }
  - { offset: 0x5B161D, size: 0x8, addend: 0x0, symName: __ZN12_GLOBAL__N_125collection_operation_exprIN5realm5MixedELNS_19CollectionOperation4TypeE3ELb1ELb0EEEDaS3_, symObjAddr: 0x69E04, symBinAddr: 0x34E3E8, symSize: 0x1F4 }
  - { offset: 0x5B247A, size: 0x8, addend: 0x0, symName: __ZN12_GLOBAL__N_125collection_operation_exprIN5realm9TimestampELNS_19CollectionOperation4TypeE3ELb1ELb0EEEDaS3_, symObjAddr: 0x69CC8, symBinAddr: 0x34E2AC, symSize: 0x13C }
  - { offset: 0x5B2CB7, size: 0x8, addend: 0x0, symName: __ZN12_GLOBAL__N_125collection_operation_exprIN5realm10Decimal128ELNS_19CollectionOperation4TypeE3ELb1ELb0EEEDaS3_, symObjAddr: 0x69B8C, symBinAddr: 0x34E170, symSize: 0x13C }
  - { offset: 0x5B34F4, size: 0x8, addend: 0x0, symName: __ZN12_GLOBAL__N_125collection_operation_exprIfLNS_19CollectionOperation4TypeE3ELb1ELb0EEEDaS1_, symObjAddr: 0x69914, symBinAddr: 0x34DEF8, symSize: 0x13C }
  - { offset: 0x5B3D41, size: 0x8, addend: 0x0, symName: __ZN12_GLOBAL__N_125collection_operation_exprIdLNS_19CollectionOperation4TypeE3ELb1ELb0EEEDaS1_, symObjAddr: 0x69A50, symBinAddr: 0x34E034, symSize: 0x13C }
  - { offset: 0x5B458E, size: 0x8, addend: 0x0, symName: __ZN12_GLOBAL__N_125collection_operation_exprIN5realm5MixedELNS_19CollectionOperation4TypeE3ELb0ELb1EEEDaS3_, symObjAddr: 0x6A3C4, symBinAddr: 0x34E9A8, symSize: 0x84 }
  - { offset: 0x5B470B, size: 0x8, addend: 0x0, symName: __ZN12_GLOBAL__N_125collection_operation_exprIN5realm5MixedELNS_19CollectionOperation4TypeE3ELb0ELb0EEEDaS3_, symObjAddr: 0x6ACB0, symBinAddr: 0x34F294, symSize: 0x84 }
  - { offset: 0x5B4888, size: 0x8, addend: 0x0, symName: __ZN12_GLOBAL__N_125collection_operation_exprIN5realm9TimestampELNS_19CollectionOperation4TypeE3ELb0ELb1EEEDaS3_, symObjAddr: 0x6A340, symBinAddr: 0x34E924, symSize: 0x84 }
  - { offset: 0x5B4A05, size: 0x8, addend: 0x0, symName: __ZN12_GLOBAL__N_125collection_operation_exprIN5realm9TimestampELNS_19CollectionOperation4TypeE3ELb0ELb0EEEDaS3_, symObjAddr: 0x6A948, symBinAddr: 0x34EF2C, symSize: 0x280 }
  - { offset: 0x5B5D16, size: 0x8, addend: 0x0, symName: __ZN12_GLOBAL__N_125collection_operation_exprIN5realm10Decimal128ELNS_19CollectionOperation4TypeE3ELb0ELb1EEEDaS3_, symObjAddr: 0x6A2BC, symBinAddr: 0x34E8A0, symSize: 0x84 }
  - { offset: 0x5B5E93, size: 0x8, addend: 0x0, symName: __ZN12_GLOBAL__N_125collection_operation_exprIN5realm10Decimal128ELNS_19CollectionOperation4TypeE3ELb0ELb0EEEDaS3_, symObjAddr: 0x6A808, symBinAddr: 0x34EDEC, symSize: 0x140 }
  - { offset: 0x5B6788, size: 0x8, addend: 0x0, symName: __ZN12_GLOBAL__N_125collection_operation_exprIfLNS_19CollectionOperation4TypeE3ELb0ELb1EEEDaS1_, symObjAddr: 0x6A1B4, symBinAddr: 0x34E798, symSize: 0x84 }
  - { offset: 0x5B6905, size: 0x8, addend: 0x0, symName: __ZN12_GLOBAL__N_125collection_operation_exprIfLNS_19CollectionOperation4TypeE3ELb0ELb0EEEDaS1_, symObjAddr: 0x6A588, symBinAddr: 0x34EB6C, symSize: 0x140 }
  - { offset: 0x5B71FA, size: 0x8, addend: 0x0, symName: __ZN12_GLOBAL__N_125collection_operation_exprIdLNS_19CollectionOperation4TypeE3ELb0ELb1EEEDaS1_, symObjAddr: 0x6A238, symBinAddr: 0x34E81C, symSize: 0x84 }
  - { offset: 0x5B7377, size: 0x8, addend: 0x0, symName: __ZN12_GLOBAL__N_125collection_operation_exprIdLNS_19CollectionOperation4TypeE3ELb0ELb0EEEDaS1_, symObjAddr: 0x6A6C8, symBinAddr: 0x34ECAC, symSize: 0x140 }
  - { offset: 0x5B7F1D, size: 0x8, addend: 0x0, symName: __ZN12_GLOBAL__N_125collection_operation_exprIxLNS_19CollectionOperation4TypeE4ELb1ELb0EEEDaS1_, symObjAddr: 0x6E6CC, symBinAddr: 0x352CB0, symSize: 0x13C }
  - { offset: 0x5B875A, size: 0x8, addend: 0x0, symName: __ZN12_GLOBAL__N_125collection_operation_exprIxLNS_19CollectionOperation4TypeE4ELb0ELb1EEEDaS1_, symObjAddr: 0x6EEE8, symBinAddr: 0x3534CC, symSize: 0x84 }
  - { offset: 0x5B88D7, size: 0x8, addend: 0x0, symName: __ZN12_GLOBAL__N_125collection_operation_exprIxLNS_19CollectionOperation4TypeE4ELb0ELb0EEEDaS1_, symObjAddr: 0x6F17C, symBinAddr: 0x353760, symSize: 0x140 }
  - { offset: 0x5B91CC, size: 0x8, addend: 0x0, symName: __ZN12_GLOBAL__N_125collection_operation_exprIN5realm10Decimal128ELNS_19CollectionOperation4TypeE4ELb1ELb0EEEDaS3_, symObjAddr: 0x6EA80, symBinAddr: 0x353064, symSize: 0x13C }
  - { offset: 0x5B9A09, size: 0x8, addend: 0x0, symName: __ZN12_GLOBAL__N_125collection_operation_exprIN5realm5MixedELNS_19CollectionOperation4TypeE4ELb1ELb0EEEDaS3_, symObjAddr: 0x6EBBC, symBinAddr: 0x3531A0, symSize: 0x1F4 }
  - { offset: 0x5BA866, size: 0x8, addend: 0x0, symName: __ZN12_GLOBAL__N_125collection_operation_exprIdLNS_19CollectionOperation4TypeE4ELb1ELb0EEEDaS1_, symObjAddr: 0x6E944, symBinAddr: 0x352F28, symSize: 0x13C }
  - { offset: 0x5BB0B3, size: 0x8, addend: 0x0, symName: __ZN12_GLOBAL__N_125collection_operation_exprIfLNS_19CollectionOperation4TypeE4ELb1ELb0EEEDaS1_, symObjAddr: 0x6E808, symBinAddr: 0x352DEC, symSize: 0x13C }
  - { offset: 0x5BB900, size: 0x8, addend: 0x0, symName: __ZN12_GLOBAL__N_125collection_operation_exprIN5realm10Decimal128ELNS_19CollectionOperation4TypeE4ELb0ELb1EEEDaS3_, symObjAddr: 0x6F074, symBinAddr: 0x353658, symSize: 0x84 }
  - { offset: 0x5BBA7D, size: 0x8, addend: 0x0, symName: __ZN12_GLOBAL__N_125collection_operation_exprIN5realm10Decimal128ELNS_19CollectionOperation4TypeE4ELb0ELb0EEEDaS3_, symObjAddr: 0x6F53C, symBinAddr: 0x353B20, symSize: 0x140 }
  - { offset: 0x5BC372, size: 0x8, addend: 0x0, symName: __ZN12_GLOBAL__N_125collection_operation_exprIN5realm5MixedELNS_19CollectionOperation4TypeE4ELb0ELb1EEEDaS3_, symObjAddr: 0x6F0F8, symBinAddr: 0x3536DC, symSize: 0x84 }
  - { offset: 0x5BC4EF, size: 0x8, addend: 0x0, symName: __ZN12_GLOBAL__N_125collection_operation_exprIN5realm5MixedELNS_19CollectionOperation4TypeE4ELb0ELb0EEEDaS3_, symObjAddr: 0x6F67C, symBinAddr: 0x353C60, symSize: 0x84 }
  - { offset: 0x5BC66C, size: 0x8, addend: 0x0, symName: __ZN12_GLOBAL__N_125collection_operation_exprIdLNS_19CollectionOperation4TypeE4ELb0ELb1EEEDaS1_, symObjAddr: 0x6EFF0, symBinAddr: 0x3535D4, symSize: 0x84 }
  - { offset: 0x5BC7E9, size: 0x8, addend: 0x0, symName: __ZN12_GLOBAL__N_125collection_operation_exprIdLNS_19CollectionOperation4TypeE4ELb0ELb0EEEDaS1_, symObjAddr: 0x6F3FC, symBinAddr: 0x3539E0, symSize: 0x140 }
  - { offset: 0x5BD0DE, size: 0x8, addend: 0x0, symName: __ZN12_GLOBAL__N_125collection_operation_exprIfLNS_19CollectionOperation4TypeE4ELb0ELb1EEEDaS1_, symObjAddr: 0x6EF6C, symBinAddr: 0x353550, symSize: 0x84 }
  - { offset: 0x5BD25B, size: 0x8, addend: 0x0, symName: __ZN12_GLOBAL__N_125collection_operation_exprIfLNS_19CollectionOperation4TypeE4ELb0ELb0EEEDaS1_, symObjAddr: 0x6F2BC, symBinAddr: 0x3538A0, symSize: 0x140 }
  - { offset: 0x5BDD97, size: 0x8, addend: 0x0, symName: __ZN12_GLOBAL__N_125collection_operation_exprIxLNS_19CollectionOperation4TypeE5ELb1ELb0EEEDaS1_, symObjAddr: 0x78240, symBinAddr: 0x35C824, symSize: 0x13C }
  - { offset: 0x5BE5D4, size: 0x8, addend: 0x0, symName: __ZN12_GLOBAL__N_125collection_operation_exprIxLNS_19CollectionOperation4TypeE5ELb0ELb1EEEDaS1_, symObjAddr: 0x78A5C, symBinAddr: 0x35D040, symSize: 0x84 }
  - { offset: 0x5BE751, size: 0x8, addend: 0x0, symName: __ZN12_GLOBAL__N_125collection_operation_exprIxLNS_19CollectionOperation4TypeE5ELb0ELb0EEEDaS1_, symObjAddr: 0x78CF0, symBinAddr: 0x35D2D4, symSize: 0x140 }
  - { offset: 0x5BF046, size: 0x8, addend: 0x0, symName: __ZN12_GLOBAL__N_125collection_operation_exprIN5realm10Decimal128ELNS_19CollectionOperation4TypeE5ELb1ELb0EEEDaS3_, symObjAddr: 0x785F4, symBinAddr: 0x35CBD8, symSize: 0x13C }
  - { offset: 0x5BF883, size: 0x8, addend: 0x0, symName: __ZN12_GLOBAL__N_125collection_operation_exprIN5realm5MixedELNS_19CollectionOperation4TypeE5ELb1ELb0EEEDaS3_, symObjAddr: 0x78730, symBinAddr: 0x35CD14, symSize: 0x1F4 }
  - { offset: 0x5C06E0, size: 0x8, addend: 0x0, symName: __ZN12_GLOBAL__N_125collection_operation_exprIdLNS_19CollectionOperation4TypeE5ELb1ELb0EEEDaS1_, symObjAddr: 0x784B8, symBinAddr: 0x35CA9C, symSize: 0x13C }
  - { offset: 0x5C0F2D, size: 0x8, addend: 0x0, symName: __ZN12_GLOBAL__N_125collection_operation_exprIfLNS_19CollectionOperation4TypeE5ELb1ELb0EEEDaS1_, symObjAddr: 0x7837C, symBinAddr: 0x35C960, symSize: 0x13C }
  - { offset: 0x5C177A, size: 0x8, addend: 0x0, symName: __ZN12_GLOBAL__N_125collection_operation_exprIN5realm10Decimal128ELNS_19CollectionOperation4TypeE5ELb0ELb1EEEDaS3_, symObjAddr: 0x78BE8, symBinAddr: 0x35D1CC, symSize: 0x84 }
  - { offset: 0x5C18F7, size: 0x8, addend: 0x0, symName: __ZN12_GLOBAL__N_125collection_operation_exprIN5realm10Decimal128ELNS_19CollectionOperation4TypeE5ELb0ELb0EEEDaS3_, symObjAddr: 0x790B0, symBinAddr: 0x35D694, symSize: 0x140 }
  - { offset: 0x5C21EC, size: 0x8, addend: 0x0, symName: __ZN12_GLOBAL__N_125collection_operation_exprIN5realm5MixedELNS_19CollectionOperation4TypeE5ELb0ELb1EEEDaS3_, symObjAddr: 0x78C6C, symBinAddr: 0x35D250, symSize: 0x84 }
  - { offset: 0x5C2369, size: 0x8, addend: 0x0, symName: __ZN12_GLOBAL__N_125collection_operation_exprIN5realm5MixedELNS_19CollectionOperation4TypeE5ELb0ELb0EEEDaS3_, symObjAddr: 0x791F0, symBinAddr: 0x35D7D4, symSize: 0x84 }
  - { offset: 0x5C24E6, size: 0x8, addend: 0x0, symName: __ZN12_GLOBAL__N_125collection_operation_exprIdLNS_19CollectionOperation4TypeE5ELb0ELb1EEEDaS1_, symObjAddr: 0x78B64, symBinAddr: 0x35D148, symSize: 0x84 }
  - { offset: 0x5C2663, size: 0x8, addend: 0x0, symName: __ZN12_GLOBAL__N_125collection_operation_exprIdLNS_19CollectionOperation4TypeE5ELb0ELb0EEEDaS1_, symObjAddr: 0x78F70, symBinAddr: 0x35D554, symSize: 0x140 }
  - { offset: 0x5C2F58, size: 0x8, addend: 0x0, symName: __ZN12_GLOBAL__N_125collection_operation_exprIfLNS_19CollectionOperation4TypeE5ELb0ELb1EEEDaS1_, symObjAddr: 0x78AE0, symBinAddr: 0x35D0C4, symSize: 0x84 }
  - { offset: 0x5C30D5, size: 0x8, addend: 0x0, symName: __ZN12_GLOBAL__N_125collection_operation_exprIfLNS_19CollectionOperation4TypeE5ELb0ELb0EEEDaS1_, symObjAddr: 0x78E30, symBinAddr: 0x35D414, symSize: 0x140 }
  - { offset: 0x5C3FA4, size: 0x8, addend: 0x0, symName: __ZN12_GLOBAL__N_110get_stringERKN5realm5MixedE, symObjAddr: 0x7CD10, symBinAddr: 0x3612F4, symSize: 0x60 }
  - { offset: 0x5C4071, size: 0x8, addend: 0x0, symName: __ZN5realm4util5CFPtrIPK10__CFStringED2Ev, symObjAddr: 0x7CD70, symBinAddr: 0x361354, symSize: 0x30 }
  - { offset: 0x5C407C, size: 0x8, addend: 0x0, symName: __ZN12_GLOBAL__N_118contains_substringEmN5realm10StringDataES1_, symObjAddr: 0x7CC10, symBinAddr: 0x3611F4, symSize: 0x100 }
  - { offset: 0x5C42B8, size: 0x8, addend: 0x0, symName: __ZN12_GLOBAL__N_15equalEmN5realm10StringDataES1_, symObjAddr: 0x806C0, symBinAddr: 0x364CA4, symSize: 0x104 }
  - { offset: 0x5C5391, size: 0x8, addend: 0x0, symName: __ZN12_GLOBAL__N_135make_diacritic_sensitive_constraintIN5realm7ColumnsINS1_3LstINS1_5MixedEEEEES4_EENS1_5QueryE23NSPredicateOperatorTypebRT_RKT0_, symObjAddr: 0x945D4, symBinAddr: 0x37871C, symSize: 0x1CC }
  - { offset: 0x5C54ED, size: 0x8, addend: 0x0, symName: __ZN5realm12make_subexprINS_19ConstantStringValueEJNS_10StringDataEEEENSt3__110unique_ptrINS_7SubexprENS3_14default_deleteIS5_EEEEDpOT0_, symObjAddr: 0x947A0, symBinAddr: 0x3788E8, symSize: 0x54 }
  - { offset: 0x5C5566, size: 0x8, addend: 0x0, symName: __ZN12_GLOBAL__N_135make_diacritic_sensitive_constraintIN5realm7ColumnsINS1_3SetINS1_5MixedEEEEES4_EENS1_5QueryE23NSPredicateOperatorTypebRT_RKT0_, symObjAddr: 0x94F34, symBinAddr: 0x37907C, symSize: 0x1CC }
  - { offset: 0x5C56C2, size: 0x8, addend: 0x0, symName: __ZN12_GLOBAL__N_112QueryBuilder22add_numeric_constraintIN5realm7ColumnsINS2_10DictionaryEEENS2_4nullEEEv15RLMPropertyType23NSPredicateOperatorTypeOT_OT0_, symObjAddr: 0x95100, symBinAddr: 0x379248, symSize: 0x138 }
  - { offset: 0x5C573B, size: 0x8, addend: 0x0, symName: __ZN12_GLOBAL__N_135make_diacritic_sensitive_constraintIN5realm7ColumnsINS1_10DictionaryEEENS1_5MixedEEENS1_5QueryE23NSPredicateOperatorTypebRT_RKT0_, symObjAddr: 0x9564C, symBinAddr: 0x379794, symSize: 0x218 }
  - { offset: 0x5C591D, size: 0x8, addend: 0x0, symName: __ZN12_GLOBAL__N_135make_diacritic_sensitive_constraintIN5realm7ColumnsINS1_5MixedEEES3_EENS1_5QueryE23NSPredicateOperatorTypebRT_RKT0_, symObjAddr: 0x95C78, symBinAddr: 0x379DC0, symSize: 0x1CC }
  - { offset: 0x5C5A79, size: 0x8, addend: 0x0, symName: __ZN12_GLOBAL__N_112QueryBuilder22add_between_constraintERKNS_15ColumnReferenceEP11objc_object, symObjAddr: 0x95E44, symBinAddr: 0x379F8C, symSize: 0x708 }
  - { offset: 0x5C60C8, size: 0x8, addend: 0x0, symName: __ZN12_GLOBAL__N_112convert_nullIRU8__strongKP11objc_objectZNS_12QueryBuilder17do_add_constraintINS_16AlwaysDictionaryES4_EEv15RLMPropertyType23NSPredicateOperatorTypemRKNS_15ColumnReferenceEOT0_EUlOT_E6_EEvSG_SE_, symObjAddr: 0xC2528, symBinAddr: 0x3A65F8, symSize: 0x4C }
  - { offset: 0x5C61F8, size: 0x8, addend: 0x0, symName: __ZN12_GLOBAL__N_112convert_nullIRU8__strongKP11objc_objectZNS_12QueryBuilder17do_add_constraintIN5realm3SetES4_EEv15RLMPropertyType23NSPredicateOperatorTypemRKNS_15ColumnReferenceEOT0_EUlOT_E5_EEvSH_SF_, symObjAddr: 0xBEE38, symBinAddr: 0x3A2F08, symSize: 0x44C }
  - { offset: 0x5C65A8, size: 0x8, addend: 0x0, symName: __ZN12_GLOBAL__N_112convert_nullIRU8__strongKP11objc_objectZNS_12QueryBuilder17do_add_constraintIN5realm3SetES4_EEv15RLMPropertyType23NSPredicateOperatorTypemRKNS_15ColumnReferenceEOT0_EUlOT_E1_EEvSH_SF_, symObjAddr: 0xBDD64, symBinAddr: 0x3A1E34, symSize: 0x44C }
  - { offset: 0x5C692C, size: 0x8, addend: 0x0, symName: __ZN12_GLOBAL__N_112convert_nullIRU8__strongKP11objc_objectZNS_12QueryBuilder17do_add_constraintIN5realm3SetES4_EEv15RLMPropertyType23NSPredicateOperatorTypemRKNS_15ColumnReferenceEOT0_EUlOT_E7_EEvSH_SF_, symObjAddr: 0xBFBA4, symBinAddr: 0x3A3C74, symSize: 0x304 }
  - { offset: 0x5C6B50, size: 0x8, addend: 0x0, symName: __ZN12_GLOBAL__N_112convert_nullIRU8__strongKP11objc_objectZNS_12QueryBuilder17do_add_constraintIN5realm3SetES4_EEv15RLMPropertyType23NSPredicateOperatorTypemRKNS_15ColumnReferenceEOT0_EUlOT_E8_EEvSH_SF_, symObjAddr: 0xBFEA8, symBinAddr: 0x3A3F78, symSize: 0x6B0 }
  - { offset: 0x5C8829, size: 0x8, addend: 0x0, symName: __ZN12_GLOBAL__N_112convert_nullIRU8__strongKP11objc_objectZNS_12QueryBuilder17do_add_constraintIN5realm3SetES4_EEv15RLMPropertyType23NSPredicateOperatorTypemRKNS_15ColumnReferenceEOT0_EUlOT_E4_EEvSH_SF_, symObjAddr: 0xBEA08, symBinAddr: 0x3A2AD8, symSize: 0x430 }
  - { offset: 0x5C8BDF, size: 0x8, addend: 0x0, symName: __ZN12_GLOBAL__N_112convert_nullIRU8__strongKP11objc_objectZNS_12QueryBuilder17do_add_constraintIN5realm3SetES4_EEv15RLMPropertyType23NSPredicateOperatorTypemRKNS_15ColumnReferenceEOT0_EUlOT_E_EEvSH_SF_, symObjAddr: 0xBD778, symBinAddr: 0x3A1848, symSize: 0x2F0 }
  - { offset: 0x5C8E1F, size: 0x8, addend: 0x0, symName: __ZN12_GLOBAL__N_112convert_nullIRU8__strongKP11objc_objectZNS_12QueryBuilder17do_add_constraintIN5realm3SetES4_EEv15RLMPropertyType23NSPredicateOperatorTypemRKNS_15ColumnReferenceEOT0_EUlOT_E3_EEvSH_SF_, symObjAddr: 0xBE5DC, symBinAddr: 0x3A26AC, symSize: 0x42C }
  - { offset: 0x5C91D9, size: 0x8, addend: 0x0, symName: __ZN12_GLOBAL__N_112convert_nullIRU8__strongKP11objc_objectZNS_12QueryBuilder17do_add_constraintIN5realm3SetES4_EEv15RLMPropertyType23NSPredicateOperatorTypemRKNS_15ColumnReferenceEOT0_EUlOT_E2_EEvSH_SF_, symObjAddr: 0xBE1B0, symBinAddr: 0x3A2280, symSize: 0x42C }
  - { offset: 0x5C9593, size: 0x8, addend: 0x0, symName: __ZN12_GLOBAL__N_112convert_nullIRU8__strongKP11objc_objectZNS_12QueryBuilder17do_add_constraintIN5realm3SetES4_EEv15RLMPropertyType23NSPredicateOperatorTypemRKNS_15ColumnReferenceEOT0_EUlOT_E0_EEvSH_SF_, symObjAddr: 0xBDA68, symBinAddr: 0x3A1B38, symSize: 0x2FC }
  - { offset: 0x5C97CD, size: 0x8, addend: 0x0, symName: __ZN12_GLOBAL__N_112convert_nullIRU8__strongKP11objc_objectZNS_12QueryBuilder17do_add_constraintINS_16AlwaysDictionaryES4_EEv15RLMPropertyType23NSPredicateOperatorTypemRKNS_15ColumnReferenceEOT0_EUlOT_E5_EEvSG_SE_, symObjAddr: 0xC1438, symBinAddr: 0x3A5508, symSize: 0x1E4 }
  - { offset: 0x5C9A50, size: 0x8, addend: 0x0, symName: __ZN12_GLOBAL__N_112convert_nullIRU8__strongKP11objc_objectZNS_12QueryBuilder17do_add_constraintINS_8IdentityES4_EEv15RLMPropertyType23NSPredicateOperatorTypemRKNS_15ColumnReferenceEOT0_EUlOT_E5_EEvSG_SE_, symObjAddr: 0xC439C, symBinAddr: 0x3A846C, symSize: 0x40C }
  - { offset: 0x5C9E18, size: 0x8, addend: 0x0, symName: __ZN12_GLOBAL__N_112convert_nullIRU8__strongKP11objc_objectZNS_12QueryBuilder17do_add_constraintINS_16AlwaysDictionaryES4_EEv15RLMPropertyType23NSPredicateOperatorTypemRKNS_15ColumnReferenceEOT0_EUlOT_E1_EEvSG_SE_, symObjAddr: 0xC0D04, symBinAddr: 0x3A4DD4, symSize: 0x1E4 }
  - { offset: 0x5CA06F, size: 0x8, addend: 0x0, symName: __ZN12_GLOBAL__N_112convert_nullIRU8__strongKP11objc_objectZNS_12QueryBuilder17do_add_constraintINS_8IdentityES4_EEv15RLMPropertyType23NSPredicateOperatorTypemRKNS_15ColumnReferenceEOT0_EUlOT_E1_EEvSG_SE_, symObjAddr: 0xC3380, symBinAddr: 0x3A7450, symSize: 0x3F4 }
  - { offset: 0x5CA425, size: 0x8, addend: 0x0, symName: __ZN12_GLOBAL__N_112convert_nullIRU8__strongKP11objc_objectZNS_12QueryBuilder17do_add_constraintINS_16AlwaysDictionaryES4_EEv15RLMPropertyType23NSPredicateOperatorTypemRKNS_15ColumnReferenceEOT0_EUlOT_E7_EEvSG_SE_, symObjAddr: 0xC2574, symBinAddr: 0x3A6644, symSize: 0x3D0 }
  - { offset: 0x5CAF92, size: 0x8, addend: 0x0, symName: __ZN12_GLOBAL__N_112convert_nullIRU8__strongKP11objc_objectZNS_12QueryBuilder17do_add_constraintINS_8IdentityES4_EEv15RLMPropertyType23NSPredicateOperatorTypemRKNS_15ColumnReferenceEOT0_EUlOT_E7_EEvSG_SE_, symObjAddr: 0xC5114, symBinAddr: 0x3A9198, symSize: 0x2C4 }
  - { offset: 0x5CB1BE, size: 0x8, addend: 0x0, symName: __ZN12_GLOBAL__N_112convert_nullIRU8__strongKP11objc_objectZNS_12QueryBuilder17do_add_constraintINS_16AlwaysDictionaryES4_EEv15RLMPropertyType23NSPredicateOperatorTypemRKNS_15ColumnReferenceEOT0_EUlOT_E8_EEvSG_SE_, symObjAddr: 0xC2944, symBinAddr: 0x3A6A14, symSize: 0xC4 }
  - { offset: 0x5CB343, size: 0x8, addend: 0x0, symName: __ZN12_GLOBAL__N_112convert_nullIRU8__strongKP11objc_objectZNS_12QueryBuilder17do_add_constraintINS_8IdentityES4_EEv15RLMPropertyType23NSPredicateOperatorTypemRKNS_15ColumnReferenceEOT0_EUlOT_E8_EEvSG_SE_, symObjAddr: 0xC53D8, symBinAddr: 0x3A945C, symSize: 0xF8 }
  - { offset: 0x5CB4CE, size: 0x8, addend: 0x0, symName: __ZN12_GLOBAL__N_112convert_nullIRU8__strongKP11objc_objectZNS_12QueryBuilder17do_add_constraintINS_16AlwaysDictionaryES4_EEv15RLMPropertyType23NSPredicateOperatorTypemRKNS_15ColumnReferenceEOT0_EUlOT_E4_EEvSG_SE_, symObjAddr: 0xC1270, symBinAddr: 0x3A5340, symSize: 0x1C8 }
  - { offset: 0x5CB757, size: 0x8, addend: 0x0, symName: __ZN12_GLOBAL__N_112convert_nullIRU8__strongKP11objc_objectZNS_12QueryBuilder17do_add_constraintINS_16AlwaysDictionaryES4_EEv15RLMPropertyType23NSPredicateOperatorTypemRKNS_15ColumnReferenceEOT0_EUlOT_E_EEvSG_SE_, symObjAddr: 0xC0558, symBinAddr: 0x3A4628, symSize: 0x3CC }
  - { offset: 0x5CC30C, size: 0x8, addend: 0x0, symName: __ZN12_GLOBAL__N_112convert_nullIRU8__strongKP11objc_objectZNS_12QueryBuilder17do_add_constraintINS_8IdentityES4_EEv15RLMPropertyType23NSPredicateOperatorTypemRKNS_15ColumnReferenceEOT0_EUlOT_E4_EEvSG_SE_, symObjAddr: 0xC3F8C, symBinAddr: 0x3A805C, symSize: 0x410 }
  - { offset: 0x5CC6DA, size: 0x8, addend: 0x0, symName: __ZN12_GLOBAL__N_112convert_nullIRU8__strongKP11objc_objectZNS_12QueryBuilder17do_add_constraintINS_8IdentityES4_EEv15RLMPropertyType23NSPredicateOperatorTypemRKNS_15ColumnReferenceEOT0_EUlOT_E_EEvSG_SE_, symObjAddr: 0xC2DF4, symBinAddr: 0x3A6EC4, symSize: 0x2D0 }
  - { offset: 0x5CC922, size: 0x8, addend: 0x0, symName: __ZN12_GLOBAL__N_112convert_nullIRU8__strongKP11objc_objectZNS_12QueryBuilder17do_add_constraintINS_16AlwaysDictionaryES4_EEv15RLMPropertyType23NSPredicateOperatorTypemRKNS_15ColumnReferenceEOT0_EUlOT_E3_EEvSG_SE_, symObjAddr: 0xC10AC, symBinAddr: 0x3A517C, symSize: 0x1C4 }
  - { offset: 0x5CCBAF, size: 0x8, addend: 0x0, symName: __ZN12_GLOBAL__N_112convert_nullIRU8__strongKP11objc_objectZNS_12QueryBuilder17do_add_constraintINS_8IdentityES4_EEv15RLMPropertyType23NSPredicateOperatorTypemRKNS_15ColumnReferenceEOT0_EUlOT_E3_EEvSG_SE_, symObjAddr: 0xC3B80, symBinAddr: 0x3A7C50, symSize: 0x40C }
  - { offset: 0x5CCF69, size: 0x8, addend: 0x0, symName: __ZN12_GLOBAL__N_112convert_nullIRU8__strongKP11objc_objectZNS_12QueryBuilder17do_add_constraintINS_16AlwaysDictionaryES4_EEv15RLMPropertyType23NSPredicateOperatorTypemRKNS_15ColumnReferenceEOT0_EUlOT_E2_EEvSG_SE_, symObjAddr: 0xC0EE8, symBinAddr: 0x3A4FB8, symSize: 0x1C4 }
  - { offset: 0x5CD1F6, size: 0x8, addend: 0x0, symName: __ZN12_GLOBAL__N_112convert_nullIRU8__strongKP11objc_objectZNS_12QueryBuilder17do_add_constraintINS_8IdentityES4_EEv15RLMPropertyType23NSPredicateOperatorTypemRKNS_15ColumnReferenceEOT0_EUlOT_E2_EEvSG_SE_, symObjAddr: 0xC3774, symBinAddr: 0x3A7844, symSize: 0x40C }
  - { offset: 0x5CD5B0, size: 0x8, addend: 0x0, symName: __ZN12_GLOBAL__N_112convert_nullIRU8__strongKP11objc_objectZNS_12QueryBuilder17do_add_constraintINS_16AlwaysDictionaryES4_EEv15RLMPropertyType23NSPredicateOperatorTypemRKNS_15ColumnReferenceEOT0_EUlOT_E0_EEvSG_SE_, symObjAddr: 0xC0924, symBinAddr: 0x3A49F4, symSize: 0x3E0 }
  - { offset: 0x5CE159, size: 0x8, addend: 0x0, symName: __ZN12_GLOBAL__N_112convert_nullIRU8__strongKP11objc_objectZNS_12QueryBuilder17do_add_constraintINS_8IdentityES4_EEv15RLMPropertyType23NSPredicateOperatorTypemRKNS_15ColumnReferenceEOT0_EUlOT_E0_EEvSG_SE_, symObjAddr: 0xC30C4, symBinAddr: 0x3A7194, symSize: 0x2BC }
  - { offset: 0x5CE7FE, size: 0x8, addend: 0x0, symName: __ZN12_GLOBAL__N_152simplify_self_value_for_key_path_function_expressionEP12NSExpression, symObjAddr: 0xC58BC, symBinAddr: 0x3A9940, symSize: 0x190 }
  - { offset: 0x5D16BB, size: 0x8, addend: 0x0, symName: __ZN5realm4util10serializerL15value_separatorE, symObjAddr: 0xD8B09, symBinAddr: 0x420EC5, symSize: 0x0 }
  - { offset: 0x5D2CE1, size: 0x8, addend: 0x0, symName: __ZN5realm4util6formatIJRNS_10GeospatialERKNSt3__112basic_stringIcNS4_11char_traitsIcEENS4_9allocatorIcEEEEEEESA_PKcDpOT_, symObjAddr: 0xBA2EC, symBinAddr: 0x39E434, symSize: 0x98 }
  - { offset: 0x5D2E7B, size: 0x8, addend: 0x0, symName: __ZN5realm4util6formatIJNS_10StringDataERKNS_10ColumnTypeEEEENSt3__112basic_stringIcNS6_11char_traitsIcEENS6_9allocatorIcEEEEPKcDpOT_, symObjAddr: 0x8E74, symBinAddr: 0x2FEEF8, symSize: 0x228 }
  - { offset: 0x5D3B4F, size: 0x8, addend: 0x0, symName: __ZN5realm12make_subexprINS_25CollectionColumnAggregateIdNS_20aggregate_operations7AverageIdEEEEJRKS5_EEENSt3__110unique_ptrINS_7SubexprENS8_14default_deleteISA_EEEEDpOT0_, symObjAddr: 0x1FD94, symBinAddr: 0x30E89C, symSize: 0x68 }
  - { offset: 0x5D3BDE, size: 0x8, addend: 0x0, symName: __ZN5realm4util6formatIJNSt3__112basic_stringIcNS2_11char_traitsIcEENS2_9allocatorIcEEEEEEES8_PKcDpOT_, symObjAddr: 0xBAE68, symBinAddr: 0x39EFB0, symSize: 0x84 }
  - { offset: 0x5FB03E, size: 0x8, addend: 0x0, symName: __ZN5realm6createINS_7GreaterExxEENS_5QueryET0_RKNS_8Subexpr2IT1_EE, symObjAddr: 0x9B568, symBinAddr: 0x37F6B0, symSize: 0x1B4 }
  - { offset: 0x5FB732, size: 0x8, addend: 0x0, symName: __ZN5realm6createINS_7GreaterENS_10StringDataES2_EENS_5QueryET0_RKNS_8Subexpr2IT1_EE, symObjAddr: 0xB8994, symBinAddr: 0x39CADC, symSize: 0x1B4 }
  - { offset: 0x5FBCE3, size: 0x8, addend: 0x0, symName: __ZN5realm12make_subexprINS_19ConstantStringValueEJRNS_10StringDataEEEENSt3__110unique_ptrINS_7SubexprENS4_14default_deleteIS6_EEEEDpOT0_, symObjAddr: 0xB90C4, symBinAddr: 0x39D20C, symSize: 0x54 }
  - { offset: 0x5FBE05, size: 0x8, addend: 0x0, symName: __ZN5realm6createINS_4LessENS_10StringDataES2_EENS_5QueryET0_RKNS_8Subexpr2IT1_EE, symObjAddr: 0xB8D5C, symBinAddr: 0x39CEA4, symSize: 0x1B4 }
  - { offset: 0x5FC3B6, size: 0x8, addend: 0x0, symName: __ZN5realm6createINS_9LessEqualENS_10StringDataES2_EENS_5QueryET0_RKNS_8Subexpr2IT1_EE, symObjAddr: 0xB8F10, symBinAddr: 0x39D058, symSize: 0x1B4 }
  - { offset: 0x5FC967, size: 0x8, addend: 0x0, symName: __ZN5realm6createINS_12GreaterEqualENS_10StringDataES2_EENS_5QueryET0_RKNS_8Subexpr2IT1_EE, symObjAddr: 0xB8BA8, symBinAddr: 0x39CCF0, symSize: 0x1B4 }
  - { offset: 0x5FCF18, size: 0x8, addend: 0x0, symName: __ZN5realm6createINS_5EqualExxEENS_5QueryET0_RKNS_8Subexpr2IT1_EE, symObjAddr: 0x9BC38, symBinAddr: 0x37FD80, symSize: 0x1BC }
  - { offset: 0x5FD60C, size: 0x8, addend: 0x0, symName: __ZN5realm6createINS_4LessExxEENS_5QueryET0_RKNS_8Subexpr2IT1_EE, symObjAddr: 0x9B8D0, symBinAddr: 0x37FA18, symSize: 0x1B4 }
  - { offset: 0x5FDD00, size: 0x8, addend: 0x0, symName: __ZN5realm6createINS_9LessEqualExxEENS_5QueryET0_RKNS_8Subexpr2IT1_EE, symObjAddr: 0x9BA84, symBinAddr: 0x37FBCC, symSize: 0x1B4 }
  - { offset: 0x5FE3F4, size: 0x8, addend: 0x0, symName: __ZN5realm6createINS_12GreaterEqualExxEENS_5QueryET0_RKNS_8Subexpr2IT1_EE, symObjAddr: 0x9B71C, symBinAddr: 0x37F864, symSize: 0x1B4 }
  - { offset: 0x5FEAE8, size: 0x8, addend: 0x0, symName: __ZN5realm6createINS_8NotEqualExxEENS_5QueryET0_RKNS_8Subexpr2IT1_EE, symObjAddr: 0x9BDF4, symBinAddr: 0x37FF3C, symSize: 0x1BC }
  - { offset: 0x5FF58A, size: 0x8, addend: 0x0, symName: __ZN5realm7create2INS_4LessExxEENS_5QueryERKNS_8Subexpr2IT0_EERKNS3_IT1_EE, symObjAddr: 0xB624, symBinAddr: 0x300958, symSize: 0x2FC }
  - { offset: 0x5FFE20, size: 0x8, addend: 0x0, symName: __ZN5realm7create2INS_4LessENS_10StringDataES2_EENS_5QueryERKNS_8Subexpr2IT0_EERKNS4_IT1_EE, symObjAddr: 0x7ADBC, symBinAddr: 0x35F3A0, symSize: 0x2FC }
  - { offset: 0x6006B6, size: 0x8, addend: 0x0, symName: __ZN5realm7create2INS_7GreaterENS_10StringDataES2_EENS_5QueryERKNS_8Subexpr2IT0_EERKNS4_IT1_EE, symObjAddr: 0x7B3D4, symBinAddr: 0x35F9B8, symSize: 0x2FC }
  - { offset: 0x600F4C, size: 0x8, addend: 0x0, symName: __ZN5realm7create2INS_12GreaterEqualENS_10StringDataES2_EENS_5QueryERKNS_8Subexpr2IT0_EERKNS4_IT1_EE, symObjAddr: 0x7B6D0, symBinAddr: 0x35FCB4, symSize: 0x2FC }
  - { offset: 0x6017E2, size: 0x8, addend: 0x0, symName: __ZN5realm7create2INS_9LessEqualENS_10StringDataES2_EENS_5QueryERKNS_8Subexpr2IT0_EERKNS4_IT1_EE, symObjAddr: 0x7B0D8, symBinAddr: 0x35F6BC, symSize: 0x2FC }
  - { offset: 0x602078, size: 0x8, addend: 0x0, symName: __ZN5realm7create2INS_5EqualExxEENS_5QueryERKNS_8Subexpr2IT0_EERKNS3_IT1_EE, symObjAddr: 0xFECC, symBinAddr: 0x304B00, symSize: 0x2FC }
  - { offset: 0x60290E, size: 0x8, addend: 0x0, symName: __ZN5realm7create2INS_7GreaterExxEENS_5QueryERKNS_8Subexpr2IT0_EERKNS3_IT1_EE, symObjAddr: 0xE4E0, symBinAddr: 0x303114, symSize: 0x2FC }
  - { offset: 0x6031A4, size: 0x8, addend: 0x0, symName: __ZN5realm7create2INS_12GreaterEqualExxEENS_5QueryERKNS_8Subexpr2IT0_EERKNS3_IT1_EE, symObjAddr: 0xF1D4, symBinAddr: 0x303E08, symSize: 0x2FC }
  - { offset: 0x603A3A, size: 0x8, addend: 0x0, symName: __ZN5realm7create2INS_9LessEqualExxEENS_5QueryERKNS_8Subexpr2IT0_EERKNS3_IT1_EE, symObjAddr: 0xD7E8, symBinAddr: 0x30241C, symSize: 0x2FC }
  - { offset: 0x6042D0, size: 0x8, addend: 0x0, symName: __ZN5realm7create2INS_8NotEqualExxEENS_5QueryERKNS_8Subexpr2IT0_EERKNS3_IT1_EE, symObjAddr: 0x11848, symBinAddr: 0x305708, symSize: 0x2FC }
  - { offset: 0x609BE6, size: 0x8, addend: 0x0, symName: __ZN5realm15make_expressionINS_7CompareINS_4LessEEEJNSt3__110unique_ptrINS_7SubexprENS4_14default_deleteIS6_EEEES9_EEENS5_INS_10ExpressionENS7_ISA_EEEEDpOT0_, symObjAddr: 0xB9EC, symBinAddr: 0x300C54, symSize: 0xE4 }
  - { offset: 0x60A4A7, size: 0x8, addend: 0x0, symName: __ZN5realm15make_expressionINS_7CompareINS_9LessEqualEEEJNSt3__110unique_ptrINS_7SubexprENS4_14default_deleteIS6_EEEES9_EEENS5_INS_10ExpressionENS7_ISA_EEEEDpOT0_, symObjAddr: 0xDAE4, symBinAddr: 0x302718, symSize: 0xE4 }
  - { offset: 0x60AB8B, size: 0x8, addend: 0x0, symName: __ZN5realm15make_expressionINS_7CompareINS_7GreaterEEEJNSt3__110unique_ptrINS_7SubexprENS4_14default_deleteIS6_EEEES9_EEENS5_INS_10ExpressionENS7_ISA_EEEEDpOT0_, symObjAddr: 0xE7DC, symBinAddr: 0x303410, symSize: 0xE4 }
  - { offset: 0x60B291, size: 0x8, addend: 0x0, symName: __ZN5realm15make_expressionINS_7CompareINS_12GreaterEqualEEEJNSt3__110unique_ptrINS_7SubexprENS4_14default_deleteIS6_EEEES9_EEENS5_INS_10ExpressionENS7_ISA_EEEEDpOT0_, symObjAddr: 0xF4D0, symBinAddr: 0x304104, symSize: 0xE4 }
  - { offset: 0x60C819, size: 0x8, addend: 0x0, symName: __ZN5realm12make_subexprINS_25CollectionColumnAggregateIdNS_20aggregate_operations7MaximumIdEEEEJRKS5_EEENSt3__110unique_ptrINS_7SubexprENS8_14default_deleteISA_EEEEDpOT0_, symObjAddr: 0x1DFD8, symBinAddr: 0x30CB1C, symSize: 0x68 }
  - { offset: 0x60C989, size: 0x8, addend: 0x0, symName: __ZN5realm12make_subexprINS_25CollectionColumnAggregateIdNS_20aggregate_operations7MinimumIdEEEEJRKS5_EEENSt3__110unique_ptrINS_7SubexprENS8_14default_deleteISA_EEEEDpOT0_, symObjAddr: 0x1E9AC, symBinAddr: 0x30D4F0, symSize: 0x68 }
  - { offset: 0x60CAF9, size: 0x8, addend: 0x0, symName: __ZN5realm12make_subexprINS_25CollectionColumnAggregateIdNS_20aggregate_operations3SumIdEEEEJRKS5_EEENSt3__110unique_ptrINS_7SubexprENS8_14default_deleteISA_EEEEDpOT0_, symObjAddr: 0x1F350, symBinAddr: 0x30DE94, symSize: 0x68 }
  - { offset: 0x60CC69, size: 0x8, addend: 0x0, symName: __ZN5realm12make_subexprINS_25CollectionColumnAggregateIdNS_20aggregate_operations7AverageIdEEEEJRKS5_EEENSt3__110unique_ptrINS_7SubexprENS8_14default_deleteISA_EEEEDpOT0_, symObjAddr: 0x1FD94, symBinAddr: 0x30E89C, symSize: 0x68 }
  - { offset: 0x60CF39, size: 0x8, addend: 0x0, symName: __ZN5realm12make_subexprINS_25CollectionColumnAggregateIfNS_20aggregate_operations7MaximumIfEEEEJRKS5_EEENSt3__110unique_ptrINS_7SubexprENS8_14default_deleteISA_EEEEDpOT0_, symObjAddr: 0x22EB8, symBinAddr: 0x310EEC, symSize: 0x68 }
  - { offset: 0x60D0A9, size: 0x8, addend: 0x0, symName: __ZN5realm12make_subexprINS_25CollectionColumnAggregateIfNS_20aggregate_operations7MinimumIfEEEEJRKS5_EEENSt3__110unique_ptrINS_7SubexprENS8_14default_deleteISA_EEEEDpOT0_, symObjAddr: 0x238E8, symBinAddr: 0x31191C, symSize: 0x68 }
  - { offset: 0x60D219, size: 0x8, addend: 0x0, symName: __ZN5realm12make_subexprINS_25CollectionColumnAggregateIfNS_20aggregate_operations3SumIfEEEEJRKS5_EEENSt3__110unique_ptrINS_7SubexprENS8_14default_deleteISA_EEEEDpOT0_, symObjAddr: 0x24298, symBinAddr: 0x3122CC, symSize: 0x68 }
  - { offset: 0x60D389, size: 0x8, addend: 0x0, symName: __ZN5realm12make_subexprINS_25CollectionColumnAggregateIfNS_20aggregate_operations7AverageIfEEEEJRKS5_EEENSt3__110unique_ptrINS_7SubexprENS8_14default_deleteISA_EEEEDpOT0_, symObjAddr: 0x24CAC, symBinAddr: 0x312C98, symSize: 0x68 }
  - { offset: 0x60D681, size: 0x8, addend: 0x0, symName: __ZN5realm12make_subexprINS_25CollectionColumnAggregateIxNS_20aggregate_operations7MaximumIxEEEEJRKS5_EEENSt3__110unique_ptrINS_7SubexprENS8_14default_deleteISA_EEEEDpOT0_, symObjAddr: 0x2869C, symBinAddr: 0x3156F8, symSize: 0x68 }
  - { offset: 0x60D7F1, size: 0x8, addend: 0x0, symName: __ZN5realm12make_subexprINS_25CollectionColumnAggregateIxNS_20aggregate_operations7MinimumIxEEEEJRKS5_EEENSt3__110unique_ptrINS_7SubexprENS8_14default_deleteISA_EEEEDpOT0_, symObjAddr: 0x29218, symBinAddr: 0x316274, symSize: 0x68 }
  - { offset: 0x60D961, size: 0x8, addend: 0x0, symName: __ZN5realm12make_subexprINS_25CollectionColumnAggregateIxNS_20aggregate_operations3SumIxEEEEJRKS5_EEENSt3__110unique_ptrINS_7SubexprENS8_14default_deleteISA_EEEEDpOT0_, symObjAddr: 0x29D44, symBinAddr: 0x316DA0, symSize: 0x68 }
  - { offset: 0x60DAD1, size: 0x8, addend: 0x0, symName: __ZN5realm12make_subexprINS_25CollectionColumnAggregateIxNS_20aggregate_operations7AverageIxEEEEJRKS5_EEENSt3__110unique_ptrINS_7SubexprENS8_14default_deleteISA_EEEEDpOT0_, symObjAddr: 0x2A908, symBinAddr: 0x31791C, symSize: 0x68 }
  - { offset: 0x60DDAB, size: 0x8, addend: 0x0, symName: __ZN5realm12make_subexprINS_25CollectionColumnAggregateINS_10Decimal128ENS_20aggregate_operations7MaximumIS2_EEEEJRKS6_EEENSt3__110unique_ptrINS_7SubexprENS9_14default_deleteISB_EEEEDpOT0_, symObjAddr: 0x2D974, symBinAddr: 0x31A1D0, symSize: 0x68 }
  - { offset: 0x60DF1B, size: 0x8, addend: 0x0, symName: __ZN5realm12make_subexprINS_25CollectionColumnAggregateINS_10Decimal128ENS_20aggregate_operations7MinimumIS2_EEEEJRKS6_EEENSt3__110unique_ptrINS_7SubexprENS9_14default_deleteISB_EEEEDpOT0_, symObjAddr: 0x2E418, symBinAddr: 0x31AC74, symSize: 0x68 }
  - { offset: 0x60E08B, size: 0x8, addend: 0x0, symName: __ZN5realm12make_subexprINS_25CollectionColumnAggregateINS_10Decimal128ENS_20aggregate_operations3SumIS2_EEEEJRKS6_EEENSt3__110unique_ptrINS_7SubexprENS9_14default_deleteISB_EEEEDpOT0_, symObjAddr: 0x2EE94, symBinAddr: 0x31B6F0, symSize: 0x68 }
  - { offset: 0x60E1FB, size: 0x8, addend: 0x0, symName: __ZN5realm12make_subexprINS_25CollectionColumnAggregateINS_10Decimal128ENS_20aggregate_operations7AverageIS2_EEEEJRKS6_EEENSt3__110unique_ptrINS_7SubexprENS9_14default_deleteISB_EEEEDpOT0_, symObjAddr: 0x2F980, symBinAddr: 0x31C1DC, symSize: 0x68 }
  - { offset: 0x60FE70, size: 0x8, addend: 0x0, symName: __ZN5realm7create2INS_4LessENS_5MixedExEENS_5QueryERKNS_8Subexpr2IT0_EERKNS4_IT1_EE, symObjAddr: 0x60410, symBinAddr: 0x3449F4, symSize: 0x2F8 }
  - { offset: 0x610706, size: 0x8, addend: 0x0, symName: __ZN5realm7create2INS_4LessENS_5MixedES2_EENS_5QueryERKNS_8Subexpr2IT0_EERKNS4_IT1_EE, symObjAddr: 0x5EEEC, symBinAddr: 0x3434D0, symSize: 0x2FC }
  - { offset: 0x610F9C, size: 0x8, addend: 0x0, symName: __ZN5realm7create2INS_4LessENS_9TimestampES2_EENS_5QueryERKNS_8Subexpr2IT0_EERKNS4_IT1_EE, symObjAddr: 0x5DB30, symBinAddr: 0x342114, symSize: 0x2FC }
  - { offset: 0x611832, size: 0x8, addend: 0x0, symName: __ZN5realm7create2INS_4LessENS_10Decimal128ES2_EENS_5QueryERKNS_8Subexpr2IT0_EERKNS4_IT1_EE, symObjAddr: 0x5C774, symBinAddr: 0x340D58, symSize: 0x2FC }
  - { offset: 0x6120C8, size: 0x8, addend: 0x0, symName: __ZN5realm7create2INS_4LessEffEENS_5QueryERKNS_8Subexpr2IT0_EERKNS3_IT1_EE, symObjAddr: 0x5A01C, symBinAddr: 0x33E600, symSize: 0x2FC }
  - { offset: 0x61295E, size: 0x8, addend: 0x0, symName: __ZN5realm7create2INS_4LessEddEENS_5QueryERKNS_8Subexpr2IT0_EERKNS3_IT1_EE, symObjAddr: 0x5B3C8, symBinAddr: 0x33F9AC, symSize: 0x2FC }
  - { offset: 0x6131F4, size: 0x8, addend: 0x0, symName: __ZN5realm7create2INS_4LessENS_5MixedENS_9TimestampEEENS_5QueryERKNS_8Subexpr2IT0_EERKNS5_IT1_EE, symObjAddr: 0x64B50, symBinAddr: 0x349134, symSize: 0x2F8 }
  - { offset: 0x613A8A, size: 0x8, addend: 0x0, symName: __ZN5realm7create2INS_4LessENS_5MixedENS_10Decimal128EEENS_5QueryERKNS_8Subexpr2IT0_EERKNS5_IT1_EE, symObjAddr: 0x63980, symBinAddr: 0x347F64, symSize: 0x2F8 }
  - { offset: 0x614320, size: 0x8, addend: 0x0, symName: __ZN5realm7create2INS_4LessENS_5MixedEfEENS_5QueryERKNS_8Subexpr2IT0_EERKNS4_IT1_EE, symObjAddr: 0x615E0, symBinAddr: 0x345BC4, symSize: 0x2F8 }
  - { offset: 0x614BB6, size: 0x8, addend: 0x0, symName: __ZN5realm7create2INS_4LessENS_5MixedEdEENS_5QueryERKNS_8Subexpr2IT0_EERKNS4_IT1_EE, symObjAddr: 0x627B0, symBinAddr: 0x346D94, symSize: 0x2F8 }
  - { offset: 0x61544C, size: 0x8, addend: 0x0, symName: __ZN5realm7create2INS_5EqualENS_5MixedES2_EENS_5QueryERKNS_8Subexpr2IT0_EERKNS4_IT1_EE, symObjAddr: 0x5FADC, symBinAddr: 0x3440C0, symSize: 0x2FC }
  - { offset: 0x615CE2, size: 0x8, addend: 0x0, symName: __ZN5realm7create2INS_5EqualENS_9TimestampES2_EENS_5QueryERKNS_8Subexpr2IT0_EERKNS4_IT1_EE, symObjAddr: 0x5E720, symBinAddr: 0x342D04, symSize: 0x2FC }
  - { offset: 0x616578, size: 0x8, addend: 0x0, symName: __ZN5realm7create2INS_5EqualENS_10Decimal128ES2_EENS_5QueryERKNS_8Subexpr2IT0_EERKNS4_IT1_EE, symObjAddr: 0x5D364, symBinAddr: 0x341948, symSize: 0x2FC }
  - { offset: 0x616E0E, size: 0x8, addend: 0x0, symName: __ZN5realm7create2INS_7GreaterENS_5MixedES2_EENS_5QueryERKNS_8Subexpr2IT0_EERKNS4_IT1_EE, symObjAddr: 0x5F4E4, symBinAddr: 0x343AC8, symSize: 0x2FC }
  - { offset: 0x6176A4, size: 0x8, addend: 0x0, symName: __ZN5realm7create2INS_5EqualEffEENS_5QueryERKNS_8Subexpr2IT0_EERKNS3_IT1_EE, symObjAddr: 0x5AC0C, symBinAddr: 0x33F1F0, symSize: 0x2FC }
  - { offset: 0x617F3A, size: 0x8, addend: 0x0, symName: __ZN5realm7create2INS_7GreaterENS_9TimestampES2_EENS_5QueryERKNS_8Subexpr2IT0_EERKNS4_IT1_EE, symObjAddr: 0x5E128, symBinAddr: 0x34270C, symSize: 0x2FC }
  - { offset: 0x6187D0, size: 0x8, addend: 0x0, symName: __ZN5realm7create2INS_5EqualEddEENS_5QueryERKNS_8Subexpr2IT0_EERKNS3_IT1_EE, symObjAddr: 0x5BFB8, symBinAddr: 0x34059C, symSize: 0x2FC }
  - { offset: 0x619066, size: 0x8, addend: 0x0, symName: __ZN5realm7create2INS_7GreaterENS_10Decimal128ES2_EENS_5QueryERKNS_8Subexpr2IT0_EERKNS4_IT1_EE, symObjAddr: 0x5CD6C, symBinAddr: 0x341350, symSize: 0x2FC }
  - { offset: 0x6198FC, size: 0x8, addend: 0x0, symName: __ZN5realm7create2INS_12GreaterEqualENS_5MixedES2_EENS_5QueryERKNS_8Subexpr2IT0_EERKNS4_IT1_EE, symObjAddr: 0x5F7E0, symBinAddr: 0x343DC4, symSize: 0x2FC }
  - { offset: 0x61A192, size: 0x8, addend: 0x0, symName: __ZN5realm7create2INS_12GreaterEqualENS_9TimestampES2_EENS_5QueryERKNS_8Subexpr2IT0_EERKNS4_IT1_EE, symObjAddr: 0x5E424, symBinAddr: 0x342A08, symSize: 0x2FC }
  - { offset: 0x61AA28, size: 0x8, addend: 0x0, symName: __ZN5realm7create2INS_9LessEqualENS_5MixedES2_EENS_5QueryERKNS_8Subexpr2IT0_EERKNS4_IT1_EE, symObjAddr: 0x5F1E8, symBinAddr: 0x3437CC, symSize: 0x2FC }
  - { offset: 0x61B2BE, size: 0x8, addend: 0x0, symName: __ZN5realm7create2INS_7GreaterEffEENS_5QueryERKNS_8Subexpr2IT0_EERKNS3_IT1_EE, symObjAddr: 0x5A614, symBinAddr: 0x33EBF8, symSize: 0x2FC }
  - { offset: 0x61BB54, size: 0x8, addend: 0x0, symName: __ZN5realm7create2INS_9LessEqualENS_9TimestampES2_EENS_5QueryERKNS_8Subexpr2IT0_EERKNS4_IT1_EE, symObjAddr: 0x5DE2C, symBinAddr: 0x342410, symSize: 0x2FC }
  - { offset: 0x61C3EA, size: 0x8, addend: 0x0, symName: __ZN5realm7create2INS_12GreaterEqualENS_10Decimal128ES2_EENS_5QueryERKNS_8Subexpr2IT0_EERKNS4_IT1_EE, symObjAddr: 0x5D068, symBinAddr: 0x34164C, symSize: 0x2FC }
  - { offset: 0x61CC80, size: 0x8, addend: 0x0, symName: __ZN5realm7create2INS_7GreaterEddEENS_5QueryERKNS_8Subexpr2IT0_EERKNS3_IT1_EE, symObjAddr: 0x5B9C0, symBinAddr: 0x33FFA4, symSize: 0x2FC }
  - { offset: 0x61D516, size: 0x8, addend: 0x0, symName: __ZN5realm7create2INS_9LessEqualENS_10Decimal128ES2_EENS_5QueryERKNS_8Subexpr2IT0_EERKNS4_IT1_EE, symObjAddr: 0x5CA70, symBinAddr: 0x341054, symSize: 0x2FC }
  - { offset: 0x61DDAC, size: 0x8, addend: 0x0, symName: __ZN5realm7create2INS_8NotEqualENS_5MixedES2_EENS_5QueryERKNS_8Subexpr2IT0_EERKNS4_IT1_EE, symObjAddr: 0x5FDD8, symBinAddr: 0x3443BC, symSize: 0x2FC }
  - { offset: 0x61E642, size: 0x8, addend: 0x0, symName: __ZN5realm7create2INS_12GreaterEqualEffEENS_5QueryERKNS_8Subexpr2IT0_EERKNS3_IT1_EE, symObjAddr: 0x5A910, symBinAddr: 0x33EEF4, symSize: 0x2FC }
  - { offset: 0x61EED8, size: 0x8, addend: 0x0, symName: __ZN5realm7create2INS_12GreaterEqualEddEENS_5QueryERKNS_8Subexpr2IT0_EERKNS3_IT1_EE, symObjAddr: 0x5BCBC, symBinAddr: 0x3402A0, symSize: 0x2FC }
  - { offset: 0x61F76E, size: 0x8, addend: 0x0, symName: __ZN5realm7create2INS_8NotEqualENS_9TimestampES2_EENS_5QueryERKNS_8Subexpr2IT0_EERKNS4_IT1_EE, symObjAddr: 0x5EA1C, symBinAddr: 0x343000, symSize: 0x2FC }
  - { offset: 0x620004, size: 0x8, addend: 0x0, symName: __ZN5realm7create2INS_9LessEqualEffEENS_5QueryERKNS_8Subexpr2IT0_EERKNS3_IT1_EE, symObjAddr: 0x5A318, symBinAddr: 0x33E8FC, symSize: 0x2FC }
  - { offset: 0x62089A, size: 0x8, addend: 0x0, symName: __ZN5realm7create2INS_9LessEqualEddEENS_5QueryERKNS_8Subexpr2IT0_EERKNS3_IT1_EE, symObjAddr: 0x5B6C4, symBinAddr: 0x33FCA8, symSize: 0x2FC }
  - { offset: 0x621130, size: 0x8, addend: 0x0, symName: __ZN5realm7create2INS_8NotEqualENS_10Decimal128ES2_EENS_5QueryERKNS_8Subexpr2IT0_EERKNS4_IT1_EE, symObjAddr: 0x5D660, symBinAddr: 0x341C44, symSize: 0x2FC }
  - { offset: 0x6219C6, size: 0x8, addend: 0x0, symName: __ZN5realm7create2INS_8NotEqualEffEENS_5QueryERKNS_8Subexpr2IT0_EERKNS3_IT1_EE, symObjAddr: 0x5AF08, symBinAddr: 0x33F4EC, symSize: 0x2FC }
  - { offset: 0x62225C, size: 0x8, addend: 0x0, symName: __ZN5realm7create2INS_8NotEqualEddEENS_5QueryERKNS_8Subexpr2IT0_EERKNS3_IT1_EE, symObjAddr: 0x5C2B4, symBinAddr: 0x340898, symSize: 0x2FC }
  - { offset: 0x622AF2, size: 0x8, addend: 0x0, symName: __ZN5realm7create2INS_5EqualENS_5MixedENS_9TimestampEEENS_5QueryERKNS_8Subexpr2IT0_EERKNS5_IT1_EE, symObjAddr: 0x65730, symBinAddr: 0x349D14, symSize: 0x2F8 }
  - { offset: 0x623388, size: 0x8, addend: 0x0, symName: __ZN5realm7create2INS_5EqualENS_5MixedExEENS_5QueryERKNS_8Subexpr2IT0_EERKNS4_IT1_EE, symObjAddr: 0x60FF0, symBinAddr: 0x3455D4, symSize: 0x2F8 }
  - { offset: 0x623C1E, size: 0x8, addend: 0x0, symName: __ZN5realm7create2INS_5EqualENS_5MixedENS_10Decimal128EEENS_5QueryERKNS_8Subexpr2IT0_EERKNS5_IT1_EE, symObjAddr: 0x64560, symBinAddr: 0x348B44, symSize: 0x2F8 }
  - { offset: 0x6244B4, size: 0x8, addend: 0x0, symName: __ZN5realm7create2INS_5EqualENS_5MixedEfEENS_5QueryERKNS_8Subexpr2IT0_EERKNS4_IT1_EE, symObjAddr: 0x621C0, symBinAddr: 0x3467A4, symSize: 0x2F8 }
  - { offset: 0x624D4A, size: 0x8, addend: 0x0, symName: __ZN5realm7create2INS_7GreaterENS_5MixedENS_9TimestampEEENS_5QueryERKNS_8Subexpr2IT0_EERKNS5_IT1_EE, symObjAddr: 0x65140, symBinAddr: 0x349724, symSize: 0x2F8 }
  - { offset: 0x6255E0, size: 0x8, addend: 0x0, symName: __ZN5realm7create2INS_7GreaterENS_5MixedExEENS_5QueryERKNS_8Subexpr2IT0_EERKNS4_IT1_EE, symObjAddr: 0x60A00, symBinAddr: 0x344FE4, symSize: 0x2F8 }
  - { offset: 0x625E76, size: 0x8, addend: 0x0, symName: __ZN5realm7create2INS_5EqualENS_5MixedEdEENS_5QueryERKNS_8Subexpr2IT0_EERKNS4_IT1_EE, symObjAddr: 0x63390, symBinAddr: 0x347974, symSize: 0x2F8 }
  - { offset: 0x62670C, size: 0x8, addend: 0x0, symName: __ZN5realm7create2INS_7GreaterENS_5MixedENS_10Decimal128EEENS_5QueryERKNS_8Subexpr2IT0_EERKNS5_IT1_EE, symObjAddr: 0x63F70, symBinAddr: 0x348554, symSize: 0x2F8 }
  - { offset: 0x626FA2, size: 0x8, addend: 0x0, symName: __ZN5realm7create2INS_12GreaterEqualENS_5MixedENS_9TimestampEEENS_5QueryERKNS_8Subexpr2IT0_EERKNS5_IT1_EE, symObjAddr: 0x65438, symBinAddr: 0x349A1C, symSize: 0x2F8 }
  - { offset: 0x627838, size: 0x8, addend: 0x0, symName: __ZN5realm7create2INS_12GreaterEqualENS_5MixedExEENS_5QueryERKNS_8Subexpr2IT0_EERKNS4_IT1_EE, symObjAddr: 0x60CF8, symBinAddr: 0x3452DC, symSize: 0x2F8 }
  - { offset: 0x6280CE, size: 0x8, addend: 0x0, symName: __ZN5realm7create2INS_7GreaterENS_5MixedEfEENS_5QueryERKNS_8Subexpr2IT0_EERKNS4_IT1_EE, symObjAddr: 0x61BD0, symBinAddr: 0x3461B4, symSize: 0x2F8 }
  - { offset: 0x628964, size: 0x8, addend: 0x0, symName: __ZN5realm7create2INS_9LessEqualENS_5MixedENS_9TimestampEEENS_5QueryERKNS_8Subexpr2IT0_EERKNS5_IT1_EE, symObjAddr: 0x64E48, symBinAddr: 0x34942C, symSize: 0x2F8 }
  - { offset: 0x6291FA, size: 0x8, addend: 0x0, symName: __ZN5realm7create2INS_9LessEqualENS_5MixedExEENS_5QueryERKNS_8Subexpr2IT0_EERKNS4_IT1_EE, symObjAddr: 0x60708, symBinAddr: 0x344CEC, symSize: 0x2F8 }
  - { offset: 0x629A90, size: 0x8, addend: 0x0, symName: __ZN5realm7create2INS_12GreaterEqualENS_5MixedENS_10Decimal128EEENS_5QueryERKNS_8Subexpr2IT0_EERKNS5_IT1_EE, symObjAddr: 0x64268, symBinAddr: 0x34884C, symSize: 0x2F8 }
  - { offset: 0x62A326, size: 0x8, addend: 0x0, symName: __ZN5realm7create2INS_7GreaterENS_5MixedEdEENS_5QueryERKNS_8Subexpr2IT0_EERKNS4_IT1_EE, symObjAddr: 0x62DA0, symBinAddr: 0x347384, symSize: 0x2F8 }
  - { offset: 0x62ABBC, size: 0x8, addend: 0x0, symName: __ZN5realm7create2INS_9LessEqualENS_5MixedENS_10Decimal128EEENS_5QueryERKNS_8Subexpr2IT0_EERKNS5_IT1_EE, symObjAddr: 0x63C78, symBinAddr: 0x34825C, symSize: 0x2F8 }
  - { offset: 0x62B452, size: 0x8, addend: 0x0, symName: __ZN5realm7create2INS_12GreaterEqualENS_5MixedEfEENS_5QueryERKNS_8Subexpr2IT0_EERKNS4_IT1_EE, symObjAddr: 0x61EC8, symBinAddr: 0x3464AC, symSize: 0x2F8 }
  - { offset: 0x62BCE8, size: 0x8, addend: 0x0, symName: __ZN5realm7create2INS_12GreaterEqualENS_5MixedEdEENS_5QueryERKNS_8Subexpr2IT0_EERKNS4_IT1_EE, symObjAddr: 0x63098, symBinAddr: 0x34767C, symSize: 0x2F8 }
  - { offset: 0x62C57E, size: 0x8, addend: 0x0, symName: __ZN5realm7create2INS_8NotEqualENS_5MixedENS_9TimestampEEENS_5QueryERKNS_8Subexpr2IT0_EERKNS5_IT1_EE, symObjAddr: 0x65A28, symBinAddr: 0x34A00C, symSize: 0x2F8 }
  - { offset: 0x62CE14, size: 0x8, addend: 0x0, symName: __ZN5realm7create2INS_8NotEqualENS_5MixedExEENS_5QueryERKNS_8Subexpr2IT0_EERKNS4_IT1_EE, symObjAddr: 0x612E8, symBinAddr: 0x3458CC, symSize: 0x2F8 }
  - { offset: 0x62D6AA, size: 0x8, addend: 0x0, symName: __ZN5realm7create2INS_9LessEqualENS_5MixedEfEENS_5QueryERKNS_8Subexpr2IT0_EERKNS4_IT1_EE, symObjAddr: 0x618D8, symBinAddr: 0x345EBC, symSize: 0x2F8 }
  - { offset: 0x62DF40, size: 0x8, addend: 0x0, symName: __ZN5realm7create2INS_9LessEqualENS_5MixedEdEENS_5QueryERKNS_8Subexpr2IT0_EERKNS4_IT1_EE, symObjAddr: 0x62AA8, symBinAddr: 0x34708C, symSize: 0x2F8 }
  - { offset: 0x62E7D6, size: 0x8, addend: 0x0, symName: __ZN5realm7create2INS_8NotEqualENS_5MixedENS_10Decimal128EEENS_5QueryERKNS_8Subexpr2IT0_EERKNS5_IT1_EE, symObjAddr: 0x64858, symBinAddr: 0x348E3C, symSize: 0x2F8 }
  - { offset: 0x62F06C, size: 0x8, addend: 0x0, symName: __ZN5realm7create2INS_8NotEqualENS_5MixedEfEENS_5QueryERKNS_8Subexpr2IT0_EERKNS4_IT1_EE, symObjAddr: 0x624B8, symBinAddr: 0x346A9C, symSize: 0x2F8 }
  - { offset: 0x62F902, size: 0x8, addend: 0x0, symName: __ZN5realm7create2INS_8NotEqualENS_5MixedEdEENS_5QueryERKNS_8Subexpr2IT0_EERKNS4_IT1_EE, symObjAddr: 0x63688, symBinAddr: 0x347C6C, symSize: 0x2F8 }
  - { offset: 0x6329A6, size: 0x8, addend: 0x0, symName: __ZN5realm6createINS_7GreaterENS_4nullExEENS_5QueryET0_RKNS_8Subexpr2IT1_EE, symObjAddr: 0x43C54, symBinAddr: 0x328828, symSize: 0x114 }
  - { offset: 0x632F75, size: 0x8, addend: 0x0, symName: __ZN5realm6createINS_12GreaterEqualENS_4nullExEENS_5QueryET0_RKNS_8Subexpr2IT1_EE, symObjAddr: 0x43F94, symBinAddr: 0x3289D0, symSize: 0x114 }
  - { offset: 0x633544, size: 0x8, addend: 0x0, symName: __ZN5realm6createINS_4LessENS_4nullExEENS_5QueryET0_RKNS_8Subexpr2IT1_EE, symObjAddr: 0x440A8, symBinAddr: 0x328AE4, symSize: 0x114 }
  - { offset: 0x633B13, size: 0x8, addend: 0x0, symName: __ZN5realm6createINS_9LessEqualENS_4nullExEENS_5QueryET0_RKNS_8Subexpr2IT1_EE, symObjAddr: 0x441BC, symBinAddr: 0x328BF8, symSize: 0x114 }
  - { offset: 0x6340E2, size: 0x8, addend: 0x0, symName: __ZN5realm6createINS_5EqualENS_4nullExEENS_5QueryET0_RKNS_8Subexpr2IT1_EE, symObjAddr: 0x442D0, symBinAddr: 0x328D0C, symSize: 0x11C }
  - { offset: 0x6346B1, size: 0x8, addend: 0x0, symName: __ZN5realm6createINS_8NotEqualENS_4nullExEENS_5QueryET0_RKNS_8Subexpr2IT1_EE, symObjAddr: 0x443EC, symBinAddr: 0x328E28, symSize: 0x11C }
  - { offset: 0x634C80, size: 0x8, addend: 0x0, symName: __ZN5realm12make_subexprINS_18SubColumnAggregateIxNS_20aggregate_operations7MinimumIxEEEEJRKS5_EEENSt3__110unique_ptrINS_7SubexprENS8_14default_deleteISA_EEEEDpOT0_, symObjAddr: 0x44BF8, symBinAddr: 0x329634, symSize: 0xC0 }
  - { offset: 0x6350BC, size: 0x8, addend: 0x0, symName: __ZN5realm12make_subexprINS_18SubColumnAggregateIxNS_20aggregate_operations7MaximumIxEEEEJRKS5_EEENSt3__110unique_ptrINS_7SubexprENS8_14default_deleteISA_EEEEDpOT0_, symObjAddr: 0x45628, symBinAddr: 0x32A064, symSize: 0xC0 }
  - { offset: 0x6354C1, size: 0x8, addend: 0x0, symName: __ZN5realm12make_subexprINS_18SubColumnAggregateIxNS_20aggregate_operations3SumIxEEEEJRKS5_EEENSt3__110unique_ptrINS_7SubexprENS8_14default_deleteISA_EEEEDpOT0_, symObjAddr: 0x45D20, symBinAddr: 0x32A75C, symSize: 0xC0 }
  - { offset: 0x6358C6, size: 0x8, addend: 0x0, symName: __ZN5realm12make_subexprINS_18SubColumnAggregateIxNS_20aggregate_operations7AverageIxEEEEJRKS5_EEENSt3__110unique_ptrINS_7SubexprENS8_14default_deleteISA_EEEEDpOT0_, symObjAddr: 0x4646C, symBinAddr: 0x32AEA8, symSize: 0xC0 }
  - { offset: 0x635CCB, size: 0x8, addend: 0x0, symName: __ZN5realm6createINS_7GreaterENS_4nullEfEENS_5QueryET0_RKNS_8Subexpr2IT1_EE, symObjAddr: 0x468F0, symBinAddr: 0x32B32C, symSize: 0x114 }
  - { offset: 0x63629A, size: 0x8, addend: 0x0, symName: __ZN5realm6createINS_12GreaterEqualENS_4nullEfEENS_5QueryET0_RKNS_8Subexpr2IT1_EE, symObjAddr: 0x46A04, symBinAddr: 0x32B440, symSize: 0x114 }
  - { offset: 0x636869, size: 0x8, addend: 0x0, symName: __ZN5realm6createINS_4LessENS_4nullEfEENS_5QueryET0_RKNS_8Subexpr2IT1_EE, symObjAddr: 0x46B18, symBinAddr: 0x32B554, symSize: 0x114 }
  - { offset: 0x636E38, size: 0x8, addend: 0x0, symName: __ZN5realm6createINS_9LessEqualENS_4nullEfEENS_5QueryET0_RKNS_8Subexpr2IT1_EE, symObjAddr: 0x46C2C, symBinAddr: 0x32B668, symSize: 0x114 }
  - { offset: 0x637407, size: 0x8, addend: 0x0, symName: __ZN5realm6createINS_5EqualENS_4nullEfEENS_5QueryET0_RKNS_8Subexpr2IT1_EE, symObjAddr: 0x46D40, symBinAddr: 0x32B77C, symSize: 0x11C }
  - { offset: 0x6379D6, size: 0x8, addend: 0x0, symName: __ZN5realm6createINS_8NotEqualENS_4nullEfEENS_5QueryET0_RKNS_8Subexpr2IT1_EE, symObjAddr: 0x46E5C, symBinAddr: 0x32B898, symSize: 0x11C }
  - { offset: 0x637FA5, size: 0x8, addend: 0x0, symName: __ZN5realm12make_subexprINS_18SubColumnAggregateIfNS_20aggregate_operations7MinimumIfEEEEJRKS5_EEENSt3__110unique_ptrINS_7SubexprENS8_14default_deleteISA_EEEEDpOT0_, symObjAddr: 0x48290, symBinAddr: 0x32CCCC, symSize: 0xC0 }
  - { offset: 0x638627, size: 0x8, addend: 0x0, symName: __ZN5realm12make_subexprINS_18SubColumnAggregateIfNS_20aggregate_operations7MaximumIfEEEEJRKS5_EEENSt3__110unique_ptrINS_7SubexprENS8_14default_deleteISA_EEEEDpOT0_, symObjAddr: 0x491F4, symBinAddr: 0x32DC30, symSize: 0xC0 }
  - { offset: 0x638A2C, size: 0x8, addend: 0x0, symName: __ZN5realm12make_subexprINS_18SubColumnAggregateIfNS_20aggregate_operations3SumIfEEEEJRKS5_EEENSt3__110unique_ptrINS_7SubexprENS8_14default_deleteISA_EEEEDpOT0_, symObjAddr: 0x49920, symBinAddr: 0x32E35C, symSize: 0xC0 }
  - { offset: 0x638E31, size: 0x8, addend: 0x0, symName: __ZN5realm12make_subexprINS_18SubColumnAggregateIfNS_20aggregate_operations7AverageIfEEEEJRKS5_EEENSt3__110unique_ptrINS_7SubexprENS8_14default_deleteISA_EEEEDpOT0_, symObjAddr: 0x4A084, symBinAddr: 0x32EAC0, symSize: 0xC0 }
  - { offset: 0x639236, size: 0x8, addend: 0x0, symName: __ZN5realm6createINS_7GreaterENS_4nullEdEENS_5QueryET0_RKNS_8Subexpr2IT1_EE, symObjAddr: 0x4A508, symBinAddr: 0x32EF44, symSize: 0x114 }
  - { offset: 0x639805, size: 0x8, addend: 0x0, symName: __ZN5realm6createINS_12GreaterEqualENS_4nullEdEENS_5QueryET0_RKNS_8Subexpr2IT1_EE, symObjAddr: 0x4A61C, symBinAddr: 0x32F058, symSize: 0x114 }
  - { offset: 0x639DD4, size: 0x8, addend: 0x0, symName: __ZN5realm6createINS_4LessENS_4nullEdEENS_5QueryET0_RKNS_8Subexpr2IT1_EE, symObjAddr: 0x4A730, symBinAddr: 0x32F16C, symSize: 0x114 }
  - { offset: 0x63A3A3, size: 0x8, addend: 0x0, symName: __ZN5realm6createINS_9LessEqualENS_4nullEdEENS_5QueryET0_RKNS_8Subexpr2IT1_EE, symObjAddr: 0x4A844, symBinAddr: 0x32F280, symSize: 0x114 }
  - { offset: 0x63A972, size: 0x8, addend: 0x0, symName: __ZN5realm6createINS_5EqualENS_4nullEdEENS_5QueryET0_RKNS_8Subexpr2IT1_EE, symObjAddr: 0x4A958, symBinAddr: 0x32F394, symSize: 0x11C }
  - { offset: 0x63AF41, size: 0x8, addend: 0x0, symName: __ZN5realm6createINS_8NotEqualENS_4nullEdEENS_5QueryET0_RKNS_8Subexpr2IT1_EE, symObjAddr: 0x4AA74, symBinAddr: 0x32F4B0, symSize: 0x11C }
  - { offset: 0x63B510, size: 0x8, addend: 0x0, symName: __ZN5realm12make_subexprINS_18SubColumnAggregateIdNS_20aggregate_operations7MinimumIdEEEEJRKS5_EEENSt3__110unique_ptrINS_7SubexprENS8_14default_deleteISA_EEEEDpOT0_, symObjAddr: 0x4BDF8, symBinAddr: 0x330834, symSize: 0xC0 }
  - { offset: 0x63BB92, size: 0x8, addend: 0x0, symName: __ZN5realm12make_subexprINS_18SubColumnAggregateIdNS_20aggregate_operations7MaximumIdEEEEJRKS5_EEENSt3__110unique_ptrINS_7SubexprENS8_14default_deleteISA_EEEEDpOT0_, symObjAddr: 0x4CCC4, symBinAddr: 0x331700, symSize: 0xC0 }
  - { offset: 0x63BF97, size: 0x8, addend: 0x0, symName: __ZN5realm12make_subexprINS_18SubColumnAggregateIdNS_20aggregate_operations3SumIdEEEEJRKS5_EEENSt3__110unique_ptrINS_7SubexprENS8_14default_deleteISA_EEEEDpOT0_, symObjAddr: 0x4D3F0, symBinAddr: 0x331E2C, symSize: 0xC0 }
  - { offset: 0x63C39C, size: 0x8, addend: 0x0, symName: __ZN5realm12make_subexprINS_18SubColumnAggregateIdNS_20aggregate_operations7AverageIdEEEEJRKS5_EEENSt3__110unique_ptrINS_7SubexprENS8_14default_deleteISA_EEEEDpOT0_, symObjAddr: 0x4DB48, symBinAddr: 0x332584, symSize: 0xC0 }
  - { offset: 0x63C7A1, size: 0x8, addend: 0x0, symName: __ZN5realm6createINS_7GreaterENS_4nullENS_10Decimal128EEENS_5QueryET0_RKNS_8Subexpr2IT1_EE, symObjAddr: 0x4DFCC, symBinAddr: 0x332A08, symSize: 0x114 }
  - { offset: 0x63CD70, size: 0x8, addend: 0x0, symName: __ZN5realm6createINS_12GreaterEqualENS_4nullENS_10Decimal128EEENS_5QueryET0_RKNS_8Subexpr2IT1_EE, symObjAddr: 0x4E0E0, symBinAddr: 0x332B1C, symSize: 0x114 }
  - { offset: 0x63D33F, size: 0x8, addend: 0x0, symName: __ZN5realm6createINS_4LessENS_4nullENS_10Decimal128EEENS_5QueryET0_RKNS_8Subexpr2IT1_EE, symObjAddr: 0x4E1F4, symBinAddr: 0x332C30, symSize: 0x114 }
  - { offset: 0x63D90E, size: 0x8, addend: 0x0, symName: __ZN5realm6createINS_9LessEqualENS_4nullENS_10Decimal128EEENS_5QueryET0_RKNS_8Subexpr2IT1_EE, symObjAddr: 0x4E308, symBinAddr: 0x332D44, symSize: 0x114 }
  - { offset: 0x63DEDD, size: 0x8, addend: 0x0, symName: __ZN5realm6createINS_5EqualENS_4nullENS_10Decimal128EEENS_5QueryET0_RKNS_8Subexpr2IT1_EE, symObjAddr: 0x4E41C, symBinAddr: 0x332E58, symSize: 0x11C }
  - { offset: 0x63E4AC, size: 0x8, addend: 0x0, symName: __ZN5realm6createINS_8NotEqualENS_4nullENS_10Decimal128EEENS_5QueryET0_RKNS_8Subexpr2IT1_EE, symObjAddr: 0x4E538, symBinAddr: 0x332F74, symSize: 0x11C }
  - { offset: 0x63EA7B, size: 0x8, addend: 0x0, symName: __ZN5realm12make_subexprINS_18SubColumnAggregateINS_10Decimal128ENS_20aggregate_operations7MinimumIS2_EEEEJRKS6_EEENSt3__110unique_ptrINS_7SubexprENS9_14default_deleteISB_EEEEDpOT0_, symObjAddr: 0x4FA10, symBinAddr: 0x33444C, symSize: 0xC4 }
  - { offset: 0x63F06A, size: 0x8, addend: 0x0, symName: __ZN5realm12make_subexprINS_18SubColumnAggregateINS_10Decimal128ENS_20aggregate_operations7MaximumIS2_EEEEJRKS6_EEENSt3__110unique_ptrINS_7SubexprENS9_14default_deleteISB_EEEEDpOT0_, symObjAddr: 0x50CB4, symBinAddr: 0x335374, symSize: 0xC4 }
  - { offset: 0x63F3B2, size: 0x8, addend: 0x0, symName: __ZN5realm12make_subexprINS_18SubColumnAggregateINS_10Decimal128ENS_20aggregate_operations3SumIS2_EEEEJRKS6_EEENSt3__110unique_ptrINS_7SubexprENS9_14default_deleteISB_EEEEDpOT0_, symObjAddr: 0x51410, symBinAddr: 0x335AD0, symSize: 0xC4 }
  - { offset: 0x63F6FA, size: 0x8, addend: 0x0, symName: __ZN5realm12make_subexprINS_18SubColumnAggregateINS_10Decimal128ENS_20aggregate_operations7AverageIS2_EEEEJRKS6_EEENSt3__110unique_ptrINS_7SubexprENS9_14default_deleteISB_EEEEDpOT0_, symObjAddr: 0x51B8C, symBinAddr: 0x33624C, symSize: 0xC4 }
  - { offset: 0x63FA42, size: 0x8, addend: 0x0, symName: __ZN5realm6createINS_7GreaterENS_4nullENS_9TimestampEEENS_5QueryET0_RKNS_8Subexpr2IT1_EE, symObjAddr: 0x51FE4, symBinAddr: 0x3366A4, symSize: 0x114 }
  - { offset: 0x640011, size: 0x8, addend: 0x0, symName: __ZN5realm6createINS_12GreaterEqualENS_4nullENS_9TimestampEEENS_5QueryET0_RKNS_8Subexpr2IT1_EE, symObjAddr: 0x520F8, symBinAddr: 0x3367B8, symSize: 0x114 }
  - { offset: 0x6405E0, size: 0x8, addend: 0x0, symName: __ZN5realm6createINS_4LessENS_4nullENS_9TimestampEEENS_5QueryET0_RKNS_8Subexpr2IT1_EE, symObjAddr: 0x5220C, symBinAddr: 0x3368CC, symSize: 0x114 }
  - { offset: 0x640BAF, size: 0x8, addend: 0x0, symName: __ZN5realm6createINS_9LessEqualENS_4nullENS_9TimestampEEENS_5QueryET0_RKNS_8Subexpr2IT1_EE, symObjAddr: 0x52320, symBinAddr: 0x3369E0, symSize: 0x114 }
  - { offset: 0x64117E, size: 0x8, addend: 0x0, symName: __ZN5realm6createINS_5EqualENS_4nullENS_9TimestampEEENS_5QueryET0_RKNS_8Subexpr2IT1_EE, symObjAddr: 0x52434, symBinAddr: 0x336AF4, symSize: 0x11C }
  - { offset: 0x64174D, size: 0x8, addend: 0x0, symName: __ZN5realm6createINS_8NotEqualENS_4nullENS_9TimestampEEENS_5QueryET0_RKNS_8Subexpr2IT1_EE, symObjAddr: 0x52550, symBinAddr: 0x336C10, symSize: 0x11C }
  - { offset: 0x641D1C, size: 0x8, addend: 0x0, symName: __ZN5realm12make_subexprINS_18SubColumnAggregateINS_9TimestampENS_20aggregate_operations7MinimumIS2_EEEEJRKS6_EEENSt3__110unique_ptrINS_7SubexprENS9_14default_deleteISB_EEEEDpOT0_, symObjAddr: 0x539D8, symBinAddr: 0x33803C, symSize: 0xC4 }
  - { offset: 0x6422E1, size: 0x8, addend: 0x0, symName: __ZN5realm12make_subexprINS_18SubColumnAggregateINS_9TimestampENS_20aggregate_operations7MaximumIS2_EEEEJRKS6_EEENSt3__110unique_ptrINS_7SubexprENS9_14default_deleteISB_EEEEDpOT0_, symObjAddr: 0x54814, symBinAddr: 0x338E78, symSize: 0xC4 }
  - { offset: 0x642629, size: 0x8, addend: 0x0, symName: __ZN5realm6createINS_7GreaterENS_4nullENS_5MixedEEENS_5QueryET0_RKNS_8Subexpr2IT1_EE, symObjAddr: 0x54C54, symBinAddr: 0x3392B8, symSize: 0x1AC }
  - { offset: 0x642D70, size: 0x8, addend: 0x0, symName: __ZN5realm6createINS_12GreaterEqualENS_4nullENS_5MixedEEENS_5QueryET0_RKNS_8Subexpr2IT1_EE, symObjAddr: 0x54E20, symBinAddr: 0x339484, symSize: 0x1AC }
  - { offset: 0x6434B7, size: 0x8, addend: 0x0, symName: __ZN5realm6createINS_4LessENS_4nullENS_5MixedEEENS_5QueryET0_RKNS_8Subexpr2IT1_EE, symObjAddr: 0x54FCC, symBinAddr: 0x339630, symSize: 0x1AC }
  - { offset: 0x643BFE, size: 0x8, addend: 0x0, symName: __ZN5realm6createINS_9LessEqualENS_4nullENS_5MixedEEENS_5QueryET0_RKNS_8Subexpr2IT1_EE, symObjAddr: 0x55178, symBinAddr: 0x3397DC, symSize: 0x1AC }
  - { offset: 0x644345, size: 0x8, addend: 0x0, symName: __ZN5realm6createINS_5EqualENS_4nullENS_5MixedEEENS_5QueryET0_RKNS_8Subexpr2IT1_EE, symObjAddr: 0x55324, symBinAddr: 0x339988, symSize: 0x1B8 }
  - { offset: 0x644A8C, size: 0x8, addend: 0x0, symName: __ZN5realm6createINS_8NotEqualENS_4nullENS_5MixedEEENS_5QueryET0_RKNS_8Subexpr2IT1_EE, symObjAddr: 0x554DC, symBinAddr: 0x339B40, symSize: 0x1B8 }
  - { offset: 0x6451D3, size: 0x8, addend: 0x0, symName: __ZN5realm12make_subexprINS_18SubColumnAggregateINS_5MixedENS_20aggregate_operations7MinimumIS2_EEEEJRKS6_EEENSt3__110unique_ptrINS_7SubexprENS9_14default_deleteISB_EEEEDpOT0_, symObjAddr: 0x56ED4, symBinAddr: 0x33B4B8, symSize: 0x84 }
  - { offset: 0x6453E2, size: 0x8, addend: 0x0, symName: __ZN5realm12make_subexprINS_18SubColumnAggregateINS_5MixedENS_20aggregate_operations7MaximumIS2_EEEEJRKS6_EEENSt3__110unique_ptrINS_7SubexprENS9_14default_deleteISB_EEEEDpOT0_, symObjAddr: 0x57D20, symBinAddr: 0x33C304, symSize: 0x84 }
  - { offset: 0x645583, size: 0x8, addend: 0x0, symName: __ZN5realm12make_subexprINS_18SubColumnAggregateINS_5MixedENS_20aggregate_operations3SumIS2_EEEEJRKS6_EEENSt3__110unique_ptrINS_7SubexprENS9_14default_deleteISB_EEEEDpOT0_, symObjAddr: 0x583F8, symBinAddr: 0x33C9DC, symSize: 0x84 }
  - { offset: 0x645724, size: 0x8, addend: 0x0, symName: __ZN5realm12make_subexprINS_18SubColumnAggregateINS_5MixedENS_20aggregate_operations7AverageIS2_EEEEJRKS6_EEENSt3__110unique_ptrINS_7SubexprENS9_14default_deleteISB_EEEEDpOT0_, symObjAddr: 0x58AF4, symBinAddr: 0x33D0D8, symSize: 0x84 }
  - { offset: 0x645FB1, size: 0x8, addend: 0x0, symName: __ZN5realm7create2INS_4LessENS_10Decimal128ExEENS_5QueryERKNS_8Subexpr2IT0_EERKNS4_IT1_EE, symObjAddr: 0x71BEC, symBinAddr: 0x3561D0, symSize: 0x2F8 }
  - { offset: 0x646847, size: 0x8, addend: 0x0, symName: __ZN5realm7create2INS_4LessENS_10Decimal128ENS_5MixedEEENS_5QueryERKNS_8Subexpr2IT0_EERKNS5_IT1_EE, symObjAddr: 0x708D0, symBinAddr: 0x354EB4, symSize: 0x2F8 }
  - { offset: 0x6470DD, size: 0x8, addend: 0x0, symName: __ZN5realm7create2INS_4LessEdfEENS_5QueryERKNS_8Subexpr2IT0_EERKNS3_IT1_EE, symObjAddr: 0x6F700, symBinAddr: 0x353CE4, symSize: 0x2F8 }
  - { offset: 0x647973, size: 0x8, addend: 0x0, symName: __ZN5realm7create2INS_4LessENS_10Decimal128EdEENS_5QueryERKNS_8Subexpr2IT0_EERKNS4_IT1_EE, symObjAddr: 0x73F8C, symBinAddr: 0x358570, symSize: 0x2F8 }
  - { offset: 0x648209, size: 0x8, addend: 0x0, symName: __ZN5realm7create2INS_4LessENS_10Decimal128EfEENS_5QueryERKNS_8Subexpr2IT0_EERKNS4_IT1_EE, symObjAddr: 0x72DBC, symBinAddr: 0x3573A0, symSize: 0x2F8 }
  - { offset: 0x648A9F, size: 0x8, addend: 0x0, symName: __ZN5realm7create2INS_5EqualENS_10Decimal128ENS_5MixedEEENS_5QueryERKNS_8Subexpr2IT0_EERKNS5_IT1_EE, symObjAddr: 0x714B0, symBinAddr: 0x355A94, symSize: 0x2F8 }
  - { offset: 0x649335, size: 0x8, addend: 0x0, symName: __ZN5realm7create2INS_7GreaterENS_10Decimal128ENS_5MixedEEENS_5QueryERKNS_8Subexpr2IT0_EERKNS5_IT1_EE, symObjAddr: 0x70EC0, symBinAddr: 0x3554A4, symSize: 0x2F8 }
  - { offset: 0x649BCB, size: 0x8, addend: 0x0, symName: __ZN5realm7create2INS_5EqualEdfEENS_5QueryERKNS_8Subexpr2IT0_EERKNS3_IT1_EE, symObjAddr: 0x702E0, symBinAddr: 0x3548C4, symSize: 0x2F8 }
  - { offset: 0x64A461, size: 0x8, addend: 0x0, symName: __ZN5realm7create2INS_12GreaterEqualENS_10Decimal128ENS_5MixedEEENS_5QueryERKNS_8Subexpr2IT0_EERKNS5_IT1_EE, symObjAddr: 0x711B8, symBinAddr: 0x35579C, symSize: 0x2F8 }
  - { offset: 0x64ACF7, size: 0x8, addend: 0x0, symName: __ZN5realm7create2INS_9LessEqualENS_10Decimal128ENS_5MixedEEENS_5QueryERKNS_8Subexpr2IT0_EERKNS5_IT1_EE, symObjAddr: 0x70BC8, symBinAddr: 0x3551AC, symSize: 0x2F8 }
  - { offset: 0x64B58D, size: 0x8, addend: 0x0, symName: __ZN5realm7create2INS_7GreaterEdfEENS_5QueryERKNS_8Subexpr2IT0_EERKNS3_IT1_EE, symObjAddr: 0x6FCF0, symBinAddr: 0x3542D4, symSize: 0x2F8 }
  - { offset: 0x64BE23, size: 0x8, addend: 0x0, symName: __ZN5realm7create2INS_12GreaterEqualEdfEENS_5QueryERKNS_8Subexpr2IT0_EERKNS3_IT1_EE, symObjAddr: 0x6FFE8, symBinAddr: 0x3545CC, symSize: 0x2F8 }
  - { offset: 0x64C6B9, size: 0x8, addend: 0x0, symName: __ZN5realm7create2INS_8NotEqualENS_10Decimal128ENS_5MixedEEENS_5QueryERKNS_8Subexpr2IT0_EERKNS5_IT1_EE, symObjAddr: 0x717A8, symBinAddr: 0x355D8C, symSize: 0x2F8 }
  - { offset: 0x64CF4F, size: 0x8, addend: 0x0, symName: __ZN5realm7create2INS_9LessEqualEdfEENS_5QueryERKNS_8Subexpr2IT0_EERKNS3_IT1_EE, symObjAddr: 0x6F9F8, symBinAddr: 0x353FDC, symSize: 0x2F8 }
  - { offset: 0x64D7E5, size: 0x8, addend: 0x0, symName: __ZN5realm7create2INS_8NotEqualEdfEENS_5QueryERKNS_8Subexpr2IT0_EERKNS3_IT1_EE, symObjAddr: 0x705D8, symBinAddr: 0x354BBC, symSize: 0x2F8 }
  - { offset: 0x64E07B, size: 0x8, addend: 0x0, symName: __ZN5realm7create2INS_5EqualENS_10Decimal128ExEENS_5QueryERKNS_8Subexpr2IT0_EERKNS4_IT1_EE, symObjAddr: 0x727CC, symBinAddr: 0x356DB0, symSize: 0x2F8 }
  - { offset: 0x64E911, size: 0x8, addend: 0x0, symName: __ZN5realm7create2INS_5EqualENS_10Decimal128EdEENS_5QueryERKNS_8Subexpr2IT0_EERKNS4_IT1_EE, symObjAddr: 0x74B6C, symBinAddr: 0x359150, symSize: 0x2F8 }
  - { offset: 0x64F1A7, size: 0x8, addend: 0x0, symName: __ZN5realm7create2INS_5EqualENS_10Decimal128EfEENS_5QueryERKNS_8Subexpr2IT0_EERKNS4_IT1_EE, symObjAddr: 0x7399C, symBinAddr: 0x357F80, symSize: 0x2F8 }
  - { offset: 0x64FA3D, size: 0x8, addend: 0x0, symName: __ZN5realm7create2INS_7GreaterENS_10Decimal128ExEENS_5QueryERKNS_8Subexpr2IT0_EERKNS4_IT1_EE, symObjAddr: 0x721DC, symBinAddr: 0x3567C0, symSize: 0x2F8 }
  - { offset: 0x6502D3, size: 0x8, addend: 0x0, symName: __ZN5realm7create2INS_7GreaterENS_10Decimal128EdEENS_5QueryERKNS_8Subexpr2IT0_EERKNS4_IT1_EE, symObjAddr: 0x7457C, symBinAddr: 0x358B60, symSize: 0x2F8 }
  - { offset: 0x650B69, size: 0x8, addend: 0x0, symName: __ZN5realm7create2INS_7GreaterENS_10Decimal128EfEENS_5QueryERKNS_8Subexpr2IT0_EERKNS4_IT1_EE, symObjAddr: 0x733AC, symBinAddr: 0x357990, symSize: 0x2F8 }
  - { offset: 0x6513FF, size: 0x8, addend: 0x0, symName: __ZN5realm7create2INS_12GreaterEqualENS_10Decimal128ExEENS_5QueryERKNS_8Subexpr2IT0_EERKNS4_IT1_EE, symObjAddr: 0x724D4, symBinAddr: 0x356AB8, symSize: 0x2F8 }
  - { offset: 0x651C95, size: 0x8, addend: 0x0, symName: __ZN5realm7create2INS_12GreaterEqualENS_10Decimal128EdEENS_5QueryERKNS_8Subexpr2IT0_EERKNS4_IT1_EE, symObjAddr: 0x74874, symBinAddr: 0x358E58, symSize: 0x2F8 }
  - { offset: 0x65252B, size: 0x8, addend: 0x0, symName: __ZN5realm7create2INS_9LessEqualENS_10Decimal128ExEENS_5QueryERKNS_8Subexpr2IT0_EERKNS4_IT1_EE, symObjAddr: 0x71EE4, symBinAddr: 0x3564C8, symSize: 0x2F8 }
  - { offset: 0x652DC1, size: 0x8, addend: 0x0, symName: __ZN5realm7create2INS_9LessEqualENS_10Decimal128EdEENS_5QueryERKNS_8Subexpr2IT0_EERKNS4_IT1_EE, symObjAddr: 0x74284, symBinAddr: 0x358868, symSize: 0x2F8 }
  - { offset: 0x653657, size: 0x8, addend: 0x0, symName: __ZN5realm7create2INS_12GreaterEqualENS_10Decimal128EfEENS_5QueryERKNS_8Subexpr2IT0_EERKNS4_IT1_EE, symObjAddr: 0x736A4, symBinAddr: 0x357C88, symSize: 0x2F8 }
  - { offset: 0x653EED, size: 0x8, addend: 0x0, symName: __ZN5realm7create2INS_9LessEqualENS_10Decimal128EfEENS_5QueryERKNS_8Subexpr2IT0_EERKNS4_IT1_EE, symObjAddr: 0x730B4, symBinAddr: 0x357698, symSize: 0x2F8 }
  - { offset: 0x654783, size: 0x8, addend: 0x0, symName: __ZN5realm7create2INS_8NotEqualENS_10Decimal128ExEENS_5QueryERKNS_8Subexpr2IT0_EERKNS4_IT1_EE, symObjAddr: 0x72AC4, symBinAddr: 0x3570A8, symSize: 0x2F8 }
  - { offset: 0x655019, size: 0x8, addend: 0x0, symName: __ZN5realm7create2INS_8NotEqualENS_10Decimal128EdEENS_5QueryERKNS_8Subexpr2IT0_EERKNS4_IT1_EE, symObjAddr: 0x74E64, symBinAddr: 0x359448, symSize: 0x2F8 }
  - { offset: 0x6558AF, size: 0x8, addend: 0x0, symName: __ZN5realm7create2INS_8NotEqualENS_10Decimal128EfEENS_5QueryERKNS_8Subexpr2IT0_EERKNS4_IT1_EE, symObjAddr: 0x73C94, symBinAddr: 0x358278, symSize: 0x2F8 }
  - { offset: 0x656361, size: 0x8, addend: 0x0, symName: __ZN5realm7create2INS_4LessEdxEENS_5QueryERKNS_8Subexpr2IT0_EERKNS3_IT1_EE, symObjAddr: 0x79274, symBinAddr: 0x35D858, symSize: 0x2F8 }
  - { offset: 0x656BF7, size: 0x8, addend: 0x0, symName: __ZN5realm7create2INS_5EqualEdxEENS_5QueryERKNS_8Subexpr2IT0_EERKNS3_IT1_EE, symObjAddr: 0x79E54, symBinAddr: 0x35E438, symSize: 0x2F8 }
  - { offset: 0x65748D, size: 0x8, addend: 0x0, symName: __ZN5realm7create2INS_7GreaterEdxEENS_5QueryERKNS_8Subexpr2IT0_EERKNS3_IT1_EE, symObjAddr: 0x79864, symBinAddr: 0x35DE48, symSize: 0x2F8 }
  - { offset: 0x657D23, size: 0x8, addend: 0x0, symName: __ZN5realm7create2INS_12GreaterEqualEdxEENS_5QueryERKNS_8Subexpr2IT0_EERKNS3_IT1_EE, symObjAddr: 0x79B5C, symBinAddr: 0x35E140, symSize: 0x2F8 }
  - { offset: 0x6585B9, size: 0x8, addend: 0x0, symName: __ZN5realm7create2INS_9LessEqualEdxEENS_5QueryERKNS_8Subexpr2IT0_EERKNS3_IT1_EE, symObjAddr: 0x7956C, symBinAddr: 0x35DB50, symSize: 0x2F8 }
  - { offset: 0x658E4F, size: 0x8, addend: 0x0, symName: __ZN5realm7create2INS_8NotEqualEdxEENS_5QueryERKNS_8Subexpr2IT0_EERKNS3_IT1_EE, symObjAddr: 0x7A14C, symBinAddr: 0x35E730, symSize: 0x2F8 }
  - { offset: 0x659712, size: 0x8, addend: 0x0, symName: __ZN5realm6createINS_8NotEqualEixEENS_5QueryET0_RKNS_8Subexpr2IT1_EE, symObjAddr: 0x7BA0C, symBinAddr: 0x35FFF0, symSize: 0x1B8 }
  - { offset: 0x65AEE9, size: 0x8, addend: 0x0, symName: __ZN5realm7create2INS_5EqualENS_4UUIDES2_EENS_5QueryERKNS_8Subexpr2IT0_EERKNS4_IT1_EE, symObjAddr: 0x922D0, symBinAddr: 0x3767A0, symSize: 0x2FC }
  - { offset: 0x65B77F, size: 0x8, addend: 0x0, symName: __ZN5realm7create2INS_4LessENS_10BinaryDataES2_EENS_5QueryERKNS_8Subexpr2IT0_EERKNS4_IT1_EE, symObjAddr: 0x8F2F4, symBinAddr: 0x3737C4, symSize: 0x2FC }
  - { offset: 0x65C015, size: 0x8, addend: 0x0, symName: __ZN5realm7create2INS_5EqualEbbEENS_5QueryERKNS_8Subexpr2IT0_EERKNS3_IT1_EE, symObjAddr: 0x8C690, symBinAddr: 0x370B60, symSize: 0x2FC }
  - { offset: 0x65C8AB, size: 0x8, addend: 0x0, symName: __ZN5realm7create2INS_5EqualENS_8ObjectIdES2_EENS_5QueryERKNS_8Subexpr2IT0_EERKNS4_IT1_EE, symObjAddr: 0x8DEC8, symBinAddr: 0x372398, symSize: 0x2FC }
  - { offset: 0x65D141, size: 0x8, addend: 0x0, symName: __ZN5realm7create2INS_8NotEqualENS_4UUIDES2_EENS_5QueryERKNS_8Subexpr2IT0_EERKNS4_IT1_EE, symObjAddr: 0x925EC, symBinAddr: 0x376ABC, symSize: 0x2FC }
  - { offset: 0x65D9D7, size: 0x8, addend: 0x0, symName: __ZN5realm7create2INS_8NotEqualEbbEENS_5QueryERKNS_8Subexpr2IT0_EERKNS3_IT1_EE, symObjAddr: 0x8C9AC, symBinAddr: 0x370E7C, symSize: 0x2FC }
  - { offset: 0x65E26D, size: 0x8, addend: 0x0, symName: __ZN5realm7create2INS_8NotEqualENS_8ObjectIdES2_EENS_5QueryERKNS_8Subexpr2IT0_EERKNS4_IT1_EE, symObjAddr: 0x8E1E4, symBinAddr: 0x3726B4, symSize: 0x2FC }
  - { offset: 0x65EB03, size: 0x8, addend: 0x0, symName: __ZN5realm7create2INS_7GreaterENS_10BinaryDataES2_EENS_5QueryERKNS_8Subexpr2IT0_EERKNS4_IT1_EE, symObjAddr: 0x8F90C, symBinAddr: 0x373DDC, symSize: 0x2FC }
  - { offset: 0x65F399, size: 0x8, addend: 0x0, symName: __ZN5realm7create2INS_12GreaterEqualENS_10BinaryDataES2_EENS_5QueryERKNS_8Subexpr2IT0_EERKNS4_IT1_EE, symObjAddr: 0x8FC08, symBinAddr: 0x3740D8, symSize: 0x2FC }
  - { offset: 0x65FC2F, size: 0x8, addend: 0x0, symName: __ZN5realm7create2INS_9LessEqualENS_10BinaryDataES2_EENS_5QueryERKNS_8Subexpr2IT0_EERKNS4_IT1_EE, symObjAddr: 0x8F610, symBinAddr: 0x373AE0, symSize: 0x2FC }
  - { offset: 0x6608DF, size: 0x8, addend: 0x0, symName: __ZN5realm6createINS_5EqualENS_4nullEbEENS_5QueryET0_RKNS_8Subexpr2IT1_EE, symObjAddr: 0x8C38C, symBinAddr: 0x37085C, symSize: 0x11C }
  - { offset: 0x660EAE, size: 0x8, addend: 0x0, symName: __ZN5realm6createINS_8NotEqualENS_4nullEbEENS_5QueryET0_RKNS_8Subexpr2IT1_EE, symObjAddr: 0x8C4A8, symBinAddr: 0x370978, symSize: 0x11C }
  - { offset: 0x6614B4, size: 0x8, addend: 0x0, symName: __ZN5realm6createINS_5EqualENS_4nullENS_8ObjectIdEEENS_5QueryET0_RKNS_8Subexpr2IT1_EE, symObjAddr: 0x8DBD4, symBinAddr: 0x3720A4, symSize: 0x11C }
  - { offset: 0x661A83, size: 0x8, addend: 0x0, symName: __ZN5realm6createINS_8NotEqualENS_4nullENS_8ObjectIdEEENS_5QueryET0_RKNS_8Subexpr2IT1_EE, symObjAddr: 0x8DCF0, symBinAddr: 0x3721C0, symSize: 0x11C }
  - { offset: 0x662566, size: 0x8, addend: 0x0, symName: __ZN5realm6createINS_5EqualENS_4nullENS_4UUIDEEENS_5QueryET0_RKNS_8Subexpr2IT1_EE, symObjAddr: 0x91FDC, symBinAddr: 0x3764AC, symSize: 0x11C }
  - { offset: 0x662B35, size: 0x8, addend: 0x0, symName: __ZN5realm6createINS_8NotEqualENS_4nullENS_4UUIDEEENS_5QueryET0_RKNS_8Subexpr2IT1_EE, symObjAddr: 0x920F8, symBinAddr: 0x3765C8, symSize: 0x11C }
  - { offset: 0x663249, size: 0x8, addend: 0x0, symName: __ZN5realm12make_subexprINS_19ConstantStringValueEJNS_10StringDataEEEENSt3__110unique_ptrINS_7SubexprENS3_14default_deleteIS5_EEEEDpOT0_, symObjAddr: 0x947A0, symBinAddr: 0x3788E8, symSize: 0x54 }
  - { offset: 0x66336B, size: 0x8, addend: 0x0, symName: __ZN5realm6createINS_12GreaterEqualENS_5MixedES2_EENS_5QueryET0_RKNS_8Subexpr2IT1_EE, symObjAddr: 0x93C18, symBinAddr: 0x3780E8, symSize: 0x1B8 }
  - { offset: 0x663E0C, size: 0x8, addend: 0x0, symName: __ZN5realm6createINS_7GreaterENS_5MixedES2_EENS_5QueryET0_RKNS_8Subexpr2IT1_EE, symObjAddr: 0x93A60, symBinAddr: 0x377F30, symSize: 0x1B8 }
  - { offset: 0x6644B4, size: 0x8, addend: 0x0, symName: __ZN5realm6createINS_9LessEqualENS_5MixedES2_EENS_5QueryET0_RKNS_8Subexpr2IT1_EE, symObjAddr: 0x93F88, symBinAddr: 0x378458, symSize: 0x1B8 }
  - { offset: 0x664B5C, size: 0x8, addend: 0x0, symName: __ZN5realm6createINS_4LessENS_5MixedES2_EENS_5QueryET0_RKNS_8Subexpr2IT1_EE, symObjAddr: 0x93DD0, symBinAddr: 0x3782A0, symSize: 0x1B8 }
  - { offset: 0x6656E9, size: 0x8, addend: 0x0, symName: __ZN5realm6createINS_4LessEixEENS_5QueryET0_RKNS_8Subexpr2IT1_EE, symObjAddr: 0xB95E0, symBinAddr: 0x39D728, symSize: 0x1B0 }
  - { offset: 0x666941, size: 0x8, addend: 0x0, symName: __ZN5realm6createINS_7GreaterENS_10BinaryDataES2_EENS_5QueryET0_RKNS_8Subexpr2IT1_EE, symObjAddr: 0xBB858, symBinAddr: 0x39F928, symSize: 0x1CC }
  - { offset: 0x666F2B, size: 0x8, addend: 0x0, symName: __ZN5realm6createINS_7GreaterENS_10Decimal128ES2_EENS_5QueryET0_RKNS_8Subexpr2IT1_EE, symObjAddr: 0xA2B28, symBinAddr: 0x386C70, symSize: 0x104 }
  - { offset: 0x6673AB, size: 0x8, addend: 0x0, symName: __ZN5realm6createINS_7GreaterENS_9TimestampES2_EENS_5QueryET0_RKNS_8Subexpr2IT1_EE, symObjAddr: 0xA31C8, symBinAddr: 0x387310, symSize: 0x1B4 }
  - { offset: 0x66795C, size: 0x8, addend: 0x0, symName: __ZN5realm6createINS_5EqualENS_4UUIDES2_EENS_5QueryET0_RKNS_8Subexpr2IT1_EE, symObjAddr: 0xBD3E0, symBinAddr: 0x3A14B0, symSize: 0x1CC }
  - { offset: 0x66804A, size: 0x8, addend: 0x0, symName: __ZN5realm6createINS_5EqualEbbEENS_5QueryET0_RKNS_8Subexpr2IT1_EE, symObjAddr: 0xBB074, symBinAddr: 0x39F144, symSize: 0x1BC }
  - { offset: 0x668745, size: 0x8, addend: 0x0, symName: __ZN5realm6createINS_7GreaterEffEENS_5QueryET0_RKNS_8Subexpr2IT1_EE, symObjAddr: 0xA1650, symBinAddr: 0x385798, symSize: 0x1A8 }
  - { offset: 0x668CF6, size: 0x8, addend: 0x0, symName: __ZN5realm6createINS_7GreaterEddEENS_5QueryET0_RKNS_8Subexpr2IT1_EE, symObjAddr: 0xA20BC, symBinAddr: 0x386204, symSize: 0x1A8 }
  - { offset: 0x6692A7, size: 0x8, addend: 0x0, symName: __ZN5realm6createINS_5EqualENS_8ObjectIdES2_EENS_5QueryET0_RKNS_8Subexpr2IT1_EE, symObjAddr: 0xBB3EC, symBinAddr: 0x39F4BC, symSize: 0x1D0 }
  - { offset: 0x66999F, size: 0x8, addend: 0x0, symName: __ZN5realm6createINS_8NotEqualENS_4UUIDES2_EENS_5QueryET0_RKNS_8Subexpr2IT1_EE, symObjAddr: 0xBD5AC, symBinAddr: 0x3A167C, symSize: 0x1CC }
  - { offset: 0x66A08D, size: 0x8, addend: 0x0, symName: __ZN5realm6createINS_8NotEqualEbbEENS_5QueryET0_RKNS_8Subexpr2IT1_EE, symObjAddr: 0xBB230, symBinAddr: 0x39F300, symSize: 0x1BC }
  - { offset: 0x66A788, size: 0x8, addend: 0x0, symName: __ZN5realm6createINS_8NotEqualENS_8ObjectIdES2_EENS_5QueryET0_RKNS_8Subexpr2IT1_EE, symObjAddr: 0xBB5BC, symBinAddr: 0x39F68C, symSize: 0x1D0 }
  - { offset: 0x66AE80, size: 0x8, addend: 0x0, symName: __ZN5realm6createINS_5EqualENS_10Decimal128ES2_EENS_5QueryET0_RKNS_8Subexpr2IT1_EE, symObjAddr: 0xA2FB0, symBinAddr: 0x3870F8, symSize: 0x10C }
  - { offset: 0x66B300, size: 0x8, addend: 0x0, symName: __ZN5realm6createINS_5EqualENS_9TimestampES2_EENS_5QueryET0_RKNS_8Subexpr2IT1_EE, symObjAddr: 0xA3908, symBinAddr: 0x387A50, symSize: 0x1BC }
  - { offset: 0x66B8B1, size: 0x8, addend: 0x0, symName: __ZN5realm6createINS_4LessENS_10Decimal128ES2_EENS_5QueryET0_RKNS_8Subexpr2IT1_EE, symObjAddr: 0xA2DA8, symBinAddr: 0x386EF0, symSize: 0x104 }
  - { offset: 0x66BD31, size: 0x8, addend: 0x0, symName: __ZN5realm6createINS_9LessEqualENS_10Decimal128ES2_EENS_5QueryET0_RKNS_8Subexpr2IT1_EE, symObjAddr: 0xA2EAC, symBinAddr: 0x386FF4, symSize: 0x104 }
  - { offset: 0x66C1B1, size: 0x8, addend: 0x0, symName: __ZN5realm6createINS_4LessENS_9TimestampES2_EENS_5QueryET0_RKNS_8Subexpr2IT1_EE, symObjAddr: 0xA35A0, symBinAddr: 0x3876E8, symSize: 0x1B4 }
  - { offset: 0x66C762, size: 0x8, addend: 0x0, symName: __ZN5realm6createINS_12GreaterEqualENS_10Decimal128ES2_EENS_5QueryET0_RKNS_8Subexpr2IT1_EE, symObjAddr: 0xA2CA4, symBinAddr: 0x386DEC, symSize: 0x104 }
  - { offset: 0x66CBE2, size: 0x8, addend: 0x0, symName: __ZN5realm6createINS_9LessEqualENS_9TimestampES2_EENS_5QueryET0_RKNS_8Subexpr2IT1_EE, symObjAddr: 0xA3754, symBinAddr: 0x38789C, symSize: 0x1B4 }
  - { offset: 0x66D193, size: 0x8, addend: 0x0, symName: __ZN5realm6createINS_12GreaterEqualENS_9TimestampES2_EENS_5QueryET0_RKNS_8Subexpr2IT1_EE, symObjAddr: 0xA33EC, symBinAddr: 0x387534, symSize: 0x1B4 }
  - { offset: 0x66D744, size: 0x8, addend: 0x0, symName: __ZN5realm6createINS_8NotEqualENS_10Decimal128ES2_EENS_5QueryET0_RKNS_8Subexpr2IT1_EE, symObjAddr: 0xA30BC, symBinAddr: 0x387204, symSize: 0x10C }
  - { offset: 0x66DBC4, size: 0x8, addend: 0x0, symName: __ZN5realm6createINS_8NotEqualENS_9TimestampES2_EENS_5QueryET0_RKNS_8Subexpr2IT1_EE, symObjAddr: 0xA3AC4, symBinAddr: 0x387C0C, symSize: 0x1BC }
  - { offset: 0x66E175, size: 0x8, addend: 0x0, symName: __ZN5realm6createINS_5EqualEffEENS_5QueryET0_RKNS_8Subexpr2IT1_EE, symObjAddr: 0xA1D5C, symBinAddr: 0x385EA4, symSize: 0x1B0 }
  - { offset: 0x66E726, size: 0x8, addend: 0x0, symName: __ZN5realm6createINS_5EqualEddEENS_5QueryET0_RKNS_8Subexpr2IT1_EE, symObjAddr: 0xA27C8, symBinAddr: 0x386910, symSize: 0x1B0 }
  - { offset: 0x66ECD7, size: 0x8, addend: 0x0, symName: __ZN5realm6createINS_4LessEffEENS_5QueryET0_RKNS_8Subexpr2IT1_EE, symObjAddr: 0xA1A0C, symBinAddr: 0x385B54, symSize: 0x1A8 }
  - { offset: 0x66F288, size: 0x8, addend: 0x0, symName: __ZN5realm6createINS_4LessEddEENS_5QueryET0_RKNS_8Subexpr2IT1_EE, symObjAddr: 0xA2478, symBinAddr: 0x3865C0, symSize: 0x1A8 }
  - { offset: 0x66F839, size: 0x8, addend: 0x0, symName: __ZN5realm6createINS_9LessEqualEffEENS_5QueryET0_RKNS_8Subexpr2IT1_EE, symObjAddr: 0xA1BB4, symBinAddr: 0x385CFC, symSize: 0x1A8 }
  - { offset: 0x66FDEA, size: 0x8, addend: 0x0, symName: __ZN5realm6createINS_9LessEqualEddEENS_5QueryET0_RKNS_8Subexpr2IT1_EE, symObjAddr: 0xA2620, symBinAddr: 0x386768, symSize: 0x1A8 }
  - { offset: 0x67039B, size: 0x8, addend: 0x0, symName: __ZN5realm6createINS_12GreaterEqualEffEENS_5QueryET0_RKNS_8Subexpr2IT1_EE, symObjAddr: 0xA1864, symBinAddr: 0x3859AC, symSize: 0x1A8 }
  - { offset: 0x67094C, size: 0x8, addend: 0x0, symName: __ZN5realm6createINS_12GreaterEqualEddEENS_5QueryET0_RKNS_8Subexpr2IT1_EE, symObjAddr: 0xA22D0, symBinAddr: 0x386418, symSize: 0x1A8 }
  - { offset: 0x670EFD, size: 0x8, addend: 0x0, symName: __ZN5realm6createINS_8NotEqualEffEENS_5QueryET0_RKNS_8Subexpr2IT1_EE, symObjAddr: 0xA1F0C, symBinAddr: 0x386054, symSize: 0x1B0 }
  - { offset: 0x6714AE, size: 0x8, addend: 0x0, symName: __ZN5realm6createINS_8NotEqualEddEENS_5QueryET0_RKNS_8Subexpr2IT1_EE, symObjAddr: 0xA2978, symBinAddr: 0x386AC0, symSize: 0x1B0 }
  - { offset: 0x671A5F, size: 0x8, addend: 0x0, symName: __ZN5realm6createINS_4LessENS_10BinaryDataES2_EENS_5QueryET0_RKNS_8Subexpr2IT1_EE, symObjAddr: 0xBBC50, symBinAddr: 0x39FD20, symSize: 0x1CC }
  - { offset: 0x672049, size: 0x8, addend: 0x0, symName: __ZN5realm6createINS_9LessEqualENS_10BinaryDataES2_EENS_5QueryET0_RKNS_8Subexpr2IT1_EE, symObjAddr: 0xBBE1C, symBinAddr: 0x39FEEC, symSize: 0x1CC }
  - { offset: 0x672633, size: 0x8, addend: 0x0, symName: __ZN5realm6createINS_12GreaterEqualENS_10BinaryDataES2_EENS_5QueryET0_RKNS_8Subexpr2IT1_EE, symObjAddr: 0xBBA84, symBinAddr: 0x39FB54, symSize: 0x1CC }
  - { offset: 0x67319A, size: 0x8, addend: 0x0, symName: __ZN5realm6createINS_7GreaterExNS_5MixedEEENS_5QueryET0_RKNS_8Subexpr2IT1_EE, symObjAddr: 0xA3E1C, symBinAddr: 0x387F64, symSize: 0x1C0 }
  - { offset: 0x6738C6, size: 0x8, addend: 0x0, symName: __ZN5realm6createINS_7GreaterENS_9TimestampENS_5MixedEEENS_5QueryET0_RKNS_8Subexpr2IT1_EE, symObjAddr: 0xA6A2C, symBinAddr: 0x38AB74, symSize: 0x1DC }
  - { offset: 0x673EC9, size: 0x8, addend: 0x0, symName: __ZN5realm6createINS_7GreaterENS_10Decimal128ENS_5MixedEEENS_5QueryET0_RKNS_8Subexpr2IT1_EE, symObjAddr: 0xA5ED4, symBinAddr: 0x38A01C, symSize: 0x1E0 }
  - { offset: 0x6744C2, size: 0x8, addend: 0x0, symName: __ZN5realm6createINS_7GreaterEfNS_5MixedEEENS_5QueryET0_RKNS_8Subexpr2IT1_EE, symObjAddr: 0xA48B4, symBinAddr: 0x3889FC, symSize: 0x1D4 }
  - { offset: 0x674AD9, size: 0x8, addend: 0x0, symName: __ZN5realm6createINS_7GreaterEdNS_5MixedEEENS_5QueryET0_RKNS_8Subexpr2IT1_EE, symObjAddr: 0xA53C4, symBinAddr: 0x38950C, symSize: 0x1D4 }
  - { offset: 0x6750F4, size: 0x8, addend: 0x0, symName: __ZN5realm6createINS_5EqualENS_9TimestampENS_5MixedEEENS_5QueryET0_RKNS_8Subexpr2IT1_EE, symObjAddr: 0xA719C, symBinAddr: 0x38B2E4, symSize: 0x1E8 }
  - { offset: 0x6756F7, size: 0x8, addend: 0x0, symName: __ZN5realm6createINS_5EqualExNS_5MixedEEENS_5QueryET0_RKNS_8Subexpr2IT1_EE, symObjAddr: 0xA451C, symBinAddr: 0x388664, symSize: 0x1CC }
  - { offset: 0x675E23, size: 0x8, addend: 0x0, symName: __ZN5realm6createINS_5EqualENS_10Decimal128ENS_5MixedEEENS_5QueryET0_RKNS_8Subexpr2IT1_EE, symObjAddr: 0xA6654, symBinAddr: 0x38A79C, symSize: 0x1EC }
  - { offset: 0x67641C, size: 0x8, addend: 0x0, symName: __ZN5realm6createINS_5EqualEfNS_5MixedEEENS_5QueryET0_RKNS_8Subexpr2IT1_EE, symObjAddr: 0xA5004, symBinAddr: 0x38914C, symSize: 0x1E0 }
  - { offset: 0x676A33, size: 0x8, addend: 0x0, symName: __ZN5realm6createINS_4LessENS_9TimestampENS_5MixedEEENS_5QueryET0_RKNS_8Subexpr2IT1_EE, symObjAddr: 0xA6DE4, symBinAddr: 0x38AF2C, symSize: 0x1DC }
  - { offset: 0x677036, size: 0x8, addend: 0x0, symName: __ZN5realm6createINS_4LessExNS_5MixedEEENS_5QueryET0_RKNS_8Subexpr2IT1_EE, symObjAddr: 0xA419C, symBinAddr: 0x3882E4, symSize: 0x1C0 }
  - { offset: 0x677762, size: 0x8, addend: 0x0, symName: __ZN5realm6createINS_5EqualEdNS_5MixedEEENS_5QueryET0_RKNS_8Subexpr2IT1_EE, symObjAddr: 0xA5B14, symBinAddr: 0x389C5C, symSize: 0x1E0 }
  - { offset: 0x677D7D, size: 0x8, addend: 0x0, symName: __ZN5realm6createINS_4LessENS_10Decimal128ENS_5MixedEEENS_5QueryET0_RKNS_8Subexpr2IT1_EE, symObjAddr: 0xA6294, symBinAddr: 0x38A3DC, symSize: 0x1E0 }
  - { offset: 0x678376, size: 0x8, addend: 0x0, symName: __ZN5realm6createINS_9LessEqualENS_9TimestampENS_5MixedEEENS_5QueryET0_RKNS_8Subexpr2IT1_EE, symObjAddr: 0xA6FC0, symBinAddr: 0x38B108, symSize: 0x1DC }
  - { offset: 0x678979, size: 0x8, addend: 0x0, symName: __ZN5realm6createINS_9LessEqualExNS_5MixedEEENS_5QueryET0_RKNS_8Subexpr2IT1_EE, symObjAddr: 0xA435C, symBinAddr: 0x3884A4, symSize: 0x1C0 }
  - { offset: 0x6790A5, size: 0x8, addend: 0x0, symName: __ZN5realm6createINS_4LessEfNS_5MixedEEENS_5QueryET0_RKNS_8Subexpr2IT1_EE, symObjAddr: 0xA4C5C, symBinAddr: 0x388DA4, symSize: 0x1D4 }
  - { offset: 0x6796BC, size: 0x8, addend: 0x0, symName: __ZN5realm6createINS_12GreaterEqualENS_9TimestampENS_5MixedEEENS_5QueryET0_RKNS_8Subexpr2IT1_EE, symObjAddr: 0xA6C08, symBinAddr: 0x38AD50, symSize: 0x1DC }
  - { offset: 0x679CBF, size: 0x8, addend: 0x0, symName: __ZN5realm6createINS_12GreaterEqualExNS_5MixedEEENS_5QueryET0_RKNS_8Subexpr2IT1_EE, symObjAddr: 0xA3FDC, symBinAddr: 0x388124, symSize: 0x1C0 }
  - { offset: 0x67A3EB, size: 0x8, addend: 0x0, symName: __ZN5realm6createINS_9LessEqualENS_10Decimal128ENS_5MixedEEENS_5QueryET0_RKNS_8Subexpr2IT1_EE, symObjAddr: 0xA6474, symBinAddr: 0x38A5BC, symSize: 0x1E0 }
  - { offset: 0x67A9E4, size: 0x8, addend: 0x0, symName: __ZN5realm6createINS_4LessEdNS_5MixedEEENS_5QueryET0_RKNS_8Subexpr2IT1_EE, symObjAddr: 0xA576C, symBinAddr: 0x3898B4, symSize: 0x1D4 }
  - { offset: 0x67AFFF, size: 0x8, addend: 0x0, symName: __ZN5realm6createINS_12GreaterEqualENS_10Decimal128ENS_5MixedEEENS_5QueryET0_RKNS_8Subexpr2IT1_EE, symObjAddr: 0xA60B4, symBinAddr: 0x38A1FC, symSize: 0x1E0 }
  - { offset: 0x67B5F8, size: 0x8, addend: 0x0, symName: __ZN5realm6createINS_9LessEqualEfNS_5MixedEEENS_5QueryET0_RKNS_8Subexpr2IT1_EE, symObjAddr: 0xA4E30, symBinAddr: 0x388F78, symSize: 0x1D4 }
  - { offset: 0x67BC0F, size: 0x8, addend: 0x0, symName: __ZN5realm6createINS_9LessEqualEdNS_5MixedEEENS_5QueryET0_RKNS_8Subexpr2IT1_EE, symObjAddr: 0xA5940, symBinAddr: 0x389A88, symSize: 0x1D4 }
  - { offset: 0x67C22A, size: 0x8, addend: 0x0, symName: __ZN5realm6createINS_8NotEqualENS_9TimestampENS_5MixedEEENS_5QueryET0_RKNS_8Subexpr2IT1_EE, symObjAddr: 0xA7384, symBinAddr: 0x38B4CC, symSize: 0x1E8 }
  - { offset: 0x67C82D, size: 0x8, addend: 0x0, symName: __ZN5realm6createINS_8NotEqualExNS_5MixedEEENS_5QueryET0_RKNS_8Subexpr2IT1_EE, symObjAddr: 0xA46E8, symBinAddr: 0x388830, symSize: 0x1CC }
  - { offset: 0x67CF59, size: 0x8, addend: 0x0, symName: __ZN5realm6createINS_12GreaterEqualEfNS_5MixedEEENS_5QueryET0_RKNS_8Subexpr2IT1_EE, symObjAddr: 0xA4A88, symBinAddr: 0x388BD0, symSize: 0x1D4 }
  - { offset: 0x67D570, size: 0x8, addend: 0x0, symName: __ZN5realm6createINS_12GreaterEqualEdNS_5MixedEEENS_5QueryET0_RKNS_8Subexpr2IT1_EE, symObjAddr: 0xA5598, symBinAddr: 0x3896E0, symSize: 0x1D4 }
  - { offset: 0x67DB8B, size: 0x8, addend: 0x0, symName: __ZN5realm6createINS_8NotEqualENS_10Decimal128ENS_5MixedEEENS_5QueryET0_RKNS_8Subexpr2IT1_EE, symObjAddr: 0xA6840, symBinAddr: 0x38A988, symSize: 0x1EC }
  - { offset: 0x67E184, size: 0x8, addend: 0x0, symName: __ZN5realm6createINS_8NotEqualEfNS_5MixedEEENS_5QueryET0_RKNS_8Subexpr2IT1_EE, symObjAddr: 0xA51E4, symBinAddr: 0x38932C, symSize: 0x1E0 }
  - { offset: 0x67E79B, size: 0x8, addend: 0x0, symName: __ZN5realm6createINS_8NotEqualEdNS_5MixedEEENS_5QueryET0_RKNS_8Subexpr2IT1_EE, symObjAddr: 0xA5CF4, symBinAddr: 0x389E3C, symSize: 0x1E0 }
  - { offset: 0x67EDB6, size: 0x8, addend: 0x0, symName: __ZN5realm12make_subexprINS_18ConstantMixedValueEJRfEEENSt3__110unique_ptrINS_7SubexprENS3_14default_deleteIS5_EEEEDpOT0_, symObjAddr: 0xA17F8, symBinAddr: 0x385940, symSize: 0x6C }
  - { offset: 0x67EF4D, size: 0x8, addend: 0x0, symName: __ZN5realm12make_subexprINS_18ConstantMixedValueEJRdEEENSt3__110unique_ptrINS_7SubexprENS3_14default_deleteIS5_EEEEDpOT0_, symObjAddr: 0xA2264, symBinAddr: 0x3863AC, symSize: 0x6C }
  - { offset: 0x67F0E8, size: 0x8, addend: 0x0, symName: __ZN5realm12make_subexprINS_18ConstantMixedValueEJRNS_10Decimal128EEEENSt3__110unique_ptrINS_7SubexprENS4_14default_deleteIS6_EEEEDpOT0_, symObjAddr: 0xA2C2C, symBinAddr: 0x386D74, symSize: 0x78 }
  - { offset: 0x67F254, size: 0x8, addend: 0x0, symName: __ZN5realm12make_subexprINS_18ConstantMixedValueEJRNS_9TimestampEEEENSt3__110unique_ptrINS_7SubexprENS4_14default_deleteIS6_EEEEDpOT0_, symObjAddr: 0xA337C, symBinAddr: 0x3874C4, symSize: 0x70 }
  - { offset: 0x67F91D, size: 0x8, addend: 0x0, symName: __ZN5realm6createINS_7GreaterExNS_10Decimal128EEENS_5QueryET0_RKNS_8Subexpr2IT1_EE, symObjAddr: 0xB2480, symBinAddr: 0x3965C8, symSize: 0x128 }
  - { offset: 0x67FEE0, size: 0x8, addend: 0x0, symName: __ZN5realm6createINS_7GreaterENS_5MixedENS_10Decimal128EEENS_5QueryET0_RKNS_8Subexpr2IT1_EE, symObjAddr: 0xB1C34, symBinAddr: 0x395D7C, symSize: 0x11C }
  - { offset: 0x680457, size: 0x8, addend: 0x0, symName: __ZN5realm6createINS_7GreaterEfdEENS_5QueryET0_RKNS_8Subexpr2IT1_EE, symObjAddr: 0xB160C, symBinAddr: 0x395754, symSize: 0x104 }
  - { offset: 0x6808D7, size: 0x8, addend: 0x0, symName: __ZN5realm6createINS_7GreaterEdNS_10Decimal128EEENS_5QueryET0_RKNS_8Subexpr2IT1_EE, symObjAddr: 0xB31A8, symBinAddr: 0x3972F0, symSize: 0x104 }
  - { offset: 0x680D57, size: 0x8, addend: 0x0, symName: __ZN5realm6createINS_7GreaterEfNS_10Decimal128EEENS_5QueryET0_RKNS_8Subexpr2IT1_EE, symObjAddr: 0xB2B80, symBinAddr: 0x396CC8, symSize: 0x104 }
  - { offset: 0x6811D7, size: 0x8, addend: 0x0, symName: __ZN5realm6createINS_5EqualENS_5MixedENS_10Decimal128EEENS_5QueryET0_RKNS_8Subexpr2IT1_EE, symObjAddr: 0xB20A4, symBinAddr: 0x3961EC, symSize: 0x124 }
  - { offset: 0x68174E, size: 0x8, addend: 0x0, symName: __ZN5realm6createINS_4LessENS_5MixedENS_10Decimal128EEENS_5QueryET0_RKNS_8Subexpr2IT1_EE, symObjAddr: 0xB1E6C, symBinAddr: 0x395FB4, symSize: 0x11C }
  - { offset: 0x681CC5, size: 0x8, addend: 0x0, symName: __ZN5realm6createINS_5EqualEfdEENS_5QueryET0_RKNS_8Subexpr2IT1_EE, symObjAddr: 0xB1A1C, symBinAddr: 0x395B64, symSize: 0x10C }
  - { offset: 0x682145, size: 0x8, addend: 0x0, symName: __ZN5realm6createINS_9LessEqualENS_5MixedENS_10Decimal128EEENS_5QueryET0_RKNS_8Subexpr2IT1_EE, symObjAddr: 0xB1F88, symBinAddr: 0x3960D0, symSize: 0x11C }
  - { offset: 0x6826BC, size: 0x8, addend: 0x0, symName: __ZN5realm6createINS_12GreaterEqualENS_5MixedENS_10Decimal128EEENS_5QueryET0_RKNS_8Subexpr2IT1_EE, symObjAddr: 0xB1D50, symBinAddr: 0x395E98, symSize: 0x11C }
  - { offset: 0x682C33, size: 0x8, addend: 0x0, symName: __ZN5realm6createINS_4LessEfdEENS_5QueryET0_RKNS_8Subexpr2IT1_EE, symObjAddr: 0xB1814, symBinAddr: 0x39595C, symSize: 0x104 }
  - { offset: 0x6830B3, size: 0x8, addend: 0x0, symName: __ZN5realm6createINS_9LessEqualEfdEENS_5QueryET0_RKNS_8Subexpr2IT1_EE, symObjAddr: 0xB1918, symBinAddr: 0x395A60, symSize: 0x104 }
  - { offset: 0x683533, size: 0x8, addend: 0x0, symName: __ZN5realm6createINS_8NotEqualENS_5MixedENS_10Decimal128EEENS_5QueryET0_RKNS_8Subexpr2IT1_EE, symObjAddr: 0xB21C8, symBinAddr: 0x396310, symSize: 0x124 }
  - { offset: 0x683AAA, size: 0x8, addend: 0x0, symName: __ZN5realm6createINS_12GreaterEqualEfdEENS_5QueryET0_RKNS_8Subexpr2IT1_EE, symObjAddr: 0xB1710, symBinAddr: 0x395858, symSize: 0x104 }
  - { offset: 0x683F2A, size: 0x8, addend: 0x0, symName: __ZN5realm6createINS_8NotEqualEfdEENS_5QueryET0_RKNS_8Subexpr2IT1_EE, symObjAddr: 0xB1B28, symBinAddr: 0x395C70, symSize: 0x10C }
  - { offset: 0x6843AA, size: 0x8, addend: 0x0, symName: __ZN5realm6createINS_5EqualExNS_10Decimal128EEENS_5QueryET0_RKNS_8Subexpr2IT1_EE, symObjAddr: 0xB2920, symBinAddr: 0x396A68, symSize: 0x130 }
  - { offset: 0x68496D, size: 0x8, addend: 0x0, symName: __ZN5realm6createINS_5EqualEdNS_10Decimal128EEENS_5QueryET0_RKNS_8Subexpr2IT1_EE, symObjAddr: 0xB35B8, symBinAddr: 0x397700, symSize: 0x10C }
  - { offset: 0x684DED, size: 0x8, addend: 0x0, symName: __ZN5realm6createINS_5EqualEfNS_10Decimal128EEENS_5QueryET0_RKNS_8Subexpr2IT1_EE, symObjAddr: 0xB2F90, symBinAddr: 0x3970D8, symSize: 0x10C }
  - { offset: 0x68526D, size: 0x8, addend: 0x0, symName: __ZN5realm6createINS_4LessExNS_10Decimal128EEENS_5QueryET0_RKNS_8Subexpr2IT1_EE, symObjAddr: 0xB26D0, symBinAddr: 0x396818, symSize: 0x128 }
  - { offset: 0x685830, size: 0x8, addend: 0x0, symName: __ZN5realm6createINS_4LessEdNS_10Decimal128EEENS_5QueryET0_RKNS_8Subexpr2IT1_EE, symObjAddr: 0xB33B0, symBinAddr: 0x3974F8, symSize: 0x104 }
  - { offset: 0x685CB0, size: 0x8, addend: 0x0, symName: __ZN5realm6createINS_4LessEfNS_10Decimal128EEENS_5QueryET0_RKNS_8Subexpr2IT1_EE, symObjAddr: 0xB2D88, symBinAddr: 0x396ED0, symSize: 0x104 }
  - { offset: 0x686130, size: 0x8, addend: 0x0, symName: __ZN5realm6createINS_9LessEqualExNS_10Decimal128EEENS_5QueryET0_RKNS_8Subexpr2IT1_EE, symObjAddr: 0xB27F8, symBinAddr: 0x396940, symSize: 0x128 }
  - { offset: 0x6866F3, size: 0x8, addend: 0x0, symName: __ZN5realm6createINS_9LessEqualEdNS_10Decimal128EEENS_5QueryET0_RKNS_8Subexpr2IT1_EE, symObjAddr: 0xB34B4, symBinAddr: 0x3975FC, symSize: 0x104 }
  - { offset: 0x686B73, size: 0x8, addend: 0x0, symName: __ZN5realm6createINS_12GreaterEqualExNS_10Decimal128EEENS_5QueryET0_RKNS_8Subexpr2IT1_EE, symObjAddr: 0xB25A8, symBinAddr: 0x3966F0, symSize: 0x128 }
  - { offset: 0x687136, size: 0x8, addend: 0x0, symName: __ZN5realm6createINS_12GreaterEqualEdNS_10Decimal128EEENS_5QueryET0_RKNS_8Subexpr2IT1_EE, symObjAddr: 0xB32AC, symBinAddr: 0x3973F4, symSize: 0x104 }
  - { offset: 0x6875B6, size: 0x8, addend: 0x0, symName: __ZN5realm6createINS_9LessEqualEfNS_10Decimal128EEENS_5QueryET0_RKNS_8Subexpr2IT1_EE, symObjAddr: 0xB2E8C, symBinAddr: 0x396FD4, symSize: 0x104 }
  - { offset: 0x687A36, size: 0x8, addend: 0x0, symName: __ZN5realm6createINS_12GreaterEqualEfNS_10Decimal128EEENS_5QueryET0_RKNS_8Subexpr2IT1_EE, symObjAddr: 0xB2C84, symBinAddr: 0x396DCC, symSize: 0x104 }
  - { offset: 0x687EB6, size: 0x8, addend: 0x0, symName: __ZN5realm6createINS_8NotEqualExNS_10Decimal128EEENS_5QueryET0_RKNS_8Subexpr2IT1_EE, symObjAddr: 0xB2A50, symBinAddr: 0x396B98, symSize: 0x130 }
  - { offset: 0x688479, size: 0x8, addend: 0x0, symName: __ZN5realm6createINS_8NotEqualEdNS_10Decimal128EEENS_5QueryET0_RKNS_8Subexpr2IT1_EE, symObjAddr: 0xB36C4, symBinAddr: 0x39780C, symSize: 0x10C }
  - { offset: 0x6888F9, size: 0x8, addend: 0x0, symName: __ZN5realm6createINS_8NotEqualEfNS_10Decimal128EEENS_5QueryET0_RKNS_8Subexpr2IT1_EE, symObjAddr: 0xB309C, symBinAddr: 0x3971E4, symSize: 0x10C }
  - { offset: 0x688E87, size: 0x8, addend: 0x0, symName: __ZN5realm6createINS_7GreaterExdEENS_5QueryET0_RKNS_8Subexpr2IT1_EE, symObjAddr: 0xB8034, symBinAddr: 0x39C17C, symSize: 0x128 }
  - { offset: 0x68944A, size: 0x8, addend: 0x0, symName: __ZN5realm6createINS_5EqualExdEENS_5QueryET0_RKNS_8Subexpr2IT1_EE, symObjAddr: 0xB84D4, symBinAddr: 0x39C61C, symSize: 0x130 }
  - { offset: 0x689A0D, size: 0x8, addend: 0x0, symName: __ZN5realm6createINS_4LessExdEENS_5QueryET0_RKNS_8Subexpr2IT1_EE, symObjAddr: 0xB8284, symBinAddr: 0x39C3CC, symSize: 0x128 }
  - { offset: 0x689FD0, size: 0x8, addend: 0x0, symName: __ZN5realm6createINS_9LessEqualExdEENS_5QueryET0_RKNS_8Subexpr2IT1_EE, symObjAddr: 0xB83AC, symBinAddr: 0x39C4F4, symSize: 0x128 }
  - { offset: 0x68A593, size: 0x8, addend: 0x0, symName: __ZN5realm6createINS_12GreaterEqualExdEENS_5QueryET0_RKNS_8Subexpr2IT1_EE, symObjAddr: 0xB815C, symBinAddr: 0x39C2A4, symSize: 0x128 }
  - { offset: 0x68AB56, size: 0x8, addend: 0x0, symName: __ZN5realm6createINS_8NotEqualExdEENS_5QueryET0_RKNS_8Subexpr2IT1_EE, symObjAddr: 0xB8604, symBinAddr: 0x39C74C, symSize: 0x130 }
  - { offset: 0x68B119, size: 0x8, addend: 0x0, symName: __ZN5realm12make_subexprINS_18ConstantMixedValueEJRNS_10StringDataEEEENSt3__110unique_ptrINS_7SubexprENS4_14default_deleteIS6_EEEEDpOT0_, symObjAddr: 0xB8B48, symBinAddr: 0x39CC90, symSize: 0x60 }
  - { offset: 0x68B346, size: 0x8, addend: 0x0, symName: __ZN5realm12make_subexprINS_18ConstantMixedValueEJRNS_10BinaryDataEEEENSt3__110unique_ptrINS_7SubexprENS4_14default_deleteIS6_EEEEDpOT0_, symObjAddr: 0xBBA24, symBinAddr: 0x39FAF4, symSize: 0x60 }
  - { offset: 0x6D0343, size: 0x8, addend: 0x0, symName: __ZNSt3__111__introsortINS_17_ClassicAlgPolicyERNS_6__lessIvvEEPN5realm10QueryValueELb0EEEvT1_S8_T0_NS_15iterator_traitsIS8_E15difference_typeEb, symObjAddr: 0xC958, symBinAddr: 0x3016EC, symSize: 0x87C }
  - { offset: 0x6D128D, size: 0x8, addend: 0x0, symName: __ZNSt3__127__insertion_sort_incompleteB8ne180100INS_17_ClassicAlgPolicyERNS_6__lessIvvEEPN5realm10QueryValueEEEbT1_S8_T0_, symObjAddr: 0xD2F0, symBinAddr: 0x302084, symSize: 0x1C4 }
  - { offset: 0x6D15D5, size: 0x8, addend: 0x0, symName: __ZNSt3__111__introsortINS_17_ClassicAlgPolicyERNS_6__lessIvvEEPN5realm6ObjKeyELb0EEEvT1_S8_T0_NS_15iterator_traitsIS8_E15difference_typeEb, symObjAddr: 0x10E90, symBinAddr: 0x304DFC, symSize: 0x624 }
  - { offset: 0x6D229B, size: 0x8, addend: 0x0, symName: __ZNSt3__127__insertion_sort_incompleteB8ne180100INS_17_ClassicAlgPolicyERNS_6__lessIvvEEPN5realm6ObjKeyEEEbT1_S8_T0_, symObjAddr: 0x11524, symBinAddr: 0x305490, symSize: 0x15C }
  - { offset: 0x6DF785, size: 0x8, addend: 0x0, symName: __ZNSt3__135__uninitialized_allocator_copy_implB8ne180100INS_9allocatorIN5realm17ExtendedColumnKeyEEEPS3_S5_S5_EET2_RT_T0_T1_S6_, symObjAddr: 0x8C74, symBinAddr: 0x2FECF8, symSize: 0xA8 }
  - { offset: 0x6DF9F8, size: 0x8, addend: 0x0, symName: __ZNSt3__119__allocate_at_leastB8ne180100INS_9allocatorIN5realm17ExtendedColumnKeyEEEEENS_19__allocation_resultINS_16allocator_traitsIT_E7pointerEEERS7_m, symObjAddr: 0x8C30, symBinAddr: 0x2FECB4, symSize: 0x44 }
  - { offset: 0x6E2E5A, size: 0x8, addend: 0x0, symName: __ZNSt3__17__sort3B8ne180100INS_17_ClassicAlgPolicyERNS_6__lessIvvEEPN5realm10QueryValueEEEjT1_S8_S8_T0_, symObjAddr: 0xD1D4, symBinAddr: 0x301F68, symSize: 0x11C }
  - { offset: 0x6E325B, size: 0x8, addend: 0x0, symName: __ZNSt3__17__sort4B8ne180100INS_17_ClassicAlgPolicyERNS_6__lessIvvEEPN5realm10QueryValueEEEvT1_S8_S8_S8_T0_, symObjAddr: 0xD4B4, symBinAddr: 0x302248, symSize: 0xCC }
  - { offset: 0x6E351C, size: 0x8, addend: 0x0, symName: __ZNSt3__17__sort5B8ne180100INS_17_ClassicAlgPolicyERNS_6__lessIvvEEPN5realm10QueryValueEEEvT1_S8_S8_S8_S8_T0_, symObjAddr: 0xD580, symBinAddr: 0x302314, symSize: 0x108 }
  - { offset: 0x6E4390, size: 0x8, addend: 0x0, symName: __ZNSt3__17__sort3B8ne180100INS_17_ClassicAlgPolicyERNS_6__lessIvvEEPN5realm6ObjKeyEEEjT1_S8_S8_T0_, symObjAddr: 0x114B4, symBinAddr: 0x305420, symSize: 0x70 }
  - { offset: 0x6E43FB, size: 0x8, addend: 0x0, symName: __ZNSt3__17__sort3B8ne180100INS_17_ClassicAlgPolicyERNS_6__lessIvvEEPN5realm6ObjKeyEEEjT1_S8_S8_T0_, symObjAddr: 0x114B4, symBinAddr: 0x305420, symSize: 0x70 }
  - { offset: 0x6E4420, size: 0x8, addend: 0x0, symName: __ZNSt3__17__sort3B8ne180100INS_17_ClassicAlgPolicyERNS_6__lessIvvEEPN5realm6ObjKeyEEEjT1_S8_S8_T0_, symObjAddr: 0x114B4, symBinAddr: 0x305420, symSize: 0x70 }
  - { offset: 0x6E4786, size: 0x8, addend: 0x0, symName: __ZNSt3__17__sort4B8ne180100INS_17_ClassicAlgPolicyERNS_6__lessIvvEEPN5realm6ObjKeyEEEvT1_S8_S8_S8_T0_, symObjAddr: 0x11680, symBinAddr: 0x3055EC, symSize: 0x7C }
  - { offset: 0x6E4A43, size: 0x8, addend: 0x0, symName: __ZNSt3__17__sort5B8ne180100INS_17_ClassicAlgPolicyERNS_6__lessIvvEEPN5realm6ObjKeyEEEvT1_S8_S8_S8_S8_T0_, symObjAddr: 0x116FC, symBinAddr: 0x305668, symSize: 0xA0 }
  - { offset: 0x6E4E4E, size: 0x8, addend: 0x0, symName: __ZNSt3__18__uniqueB8ne180100INS_17_ClassicAlgPolicyEPN5realm10QueryValueES4_RNS_10__equal_toEEENS_4pairIT0_S8_EES8_T1_OT2_, symObjAddr: 0x1250C, symBinAddr: 0x305A04, symSize: 0x94 }
  - { offset: 0x6E4EA1, size: 0x8, addend: 0x0, symName: __ZNSt3__18__uniqueB8ne180100INS_17_ClassicAlgPolicyEPN5realm10QueryValueES4_RNS_10__equal_toEEENS_4pairIT0_S8_EES8_T1_OT2_, symObjAddr: 0x1250C, symBinAddr: 0x305A04, symSize: 0x94 }
  - { offset: 0x6F411A, size: 0x8, addend: 0x0, symName: __ZN5realm16ColumnTypeTraitsINS_3LstIbEEE9column_idE, symObjAddr: 0xD87AC, symBinAddr: 0x420C74, symSize: 0x0 }
  - { offset: 0x6F4238, size: 0x8, addend: 0x0, symName: __ZN5realm16ColumnTypeTraitsINS_3SetIbEEE9column_idE, symObjAddr: 0xD8B0C, symBinAddr: 0x420EC8, symSize: 0x0 }
  - { offset: 0x6F426D, size: 0x8, addend: 0x0, symName: __ZN5realm16ColumnTypeTraitsINS_3LstINS_8ObjectIdEEEE9column_idE, symObjAddr: 0xD8B30, symBinAddr: 0x420EEC, symSize: 0x0 }
  - { offset: 0x6F449D, size: 0x8, addend: 0x0, symName: __ZN5realm16ColumnTypeTraitsINS_3SetINS_8ObjectIdEEEE9column_idE, symObjAddr: 0xD8E7C, symBinAddr: 0x4211B0, symSize: 0x0 }
  - { offset: 0x6F44D2, size: 0x8, addend: 0x0, symName: __ZN5realm16ColumnTypeTraitsINS_3LstINS_9TimestampEEEE9column_idE, symObjAddr: 0xD8EAC, symBinAddr: 0x4211E0, symSize: 0x0 }
  - { offset: 0x6F4702, size: 0x8, addend: 0x0, symName: __ZN5realm16ColumnTypeTraitsINS_3SetINS_9TimestampEEEE9column_idE, symObjAddr: 0xD91B0, symBinAddr: 0x42147C, symSize: 0x0 }
  - { offset: 0x6F4737, size: 0x8, addend: 0x0, symName: __ZN5realm16ColumnTypeTraitsINS_3LstIdEEE9column_idE, symObjAddr: 0xD91E0, symBinAddr: 0x4214AC, symSize: 0x0 }
  - { offset: 0x6F495A, size: 0x8, addend: 0x0, symName: __ZN5realm16ColumnTypeTraitsINS_3SetIdEEE9column_idE, symObjAddr: 0xD9530, symBinAddr: 0x4217B0, symSize: 0x0 }
  - { offset: 0x6F498F, size: 0x8, addend: 0x0, symName: __ZN5realm16ColumnTypeTraitsINS_3LstIfEEE9column_idE, symObjAddr: 0xD9554, symBinAddr: 0x4217D4, symSize: 0x0 }
  - { offset: 0x6F4BA6, size: 0x8, addend: 0x0, symName: __ZN5realm16ColumnTypeTraitsINS_3SetIfEEE9column_idE, symObjAddr: 0xD98A4, symBinAddr: 0x421B0C, symSize: 0x0 }
  - { offset: 0x6F4BDB, size: 0x8, addend: 0x0, symName: __ZN5realm16ColumnTypeTraitsINS_3LstIxEEE9column_idE, symObjAddr: 0xD98C8, symBinAddr: 0x421B30, symSize: 0x0 }
  - { offset: 0x6F4CC6, size: 0x8, addend: 0x0, symName: __ZN5realm16ColumnTypeTraitsINS_3SetIxEEE9column_idE, symObjAddr: 0xD9AE4, symBinAddr: 0x421CBC, symSize: 0x0 }
  - { offset: 0x6F4CFB, size: 0x8, addend: 0x0, symName: __ZN5realm16ColumnTypeTraitsINS_3LstINS_10Decimal128EEEE9column_idE, symObjAddr: 0xD9B08, symBinAddr: 0x421CE0, symSize: 0x0 }
  - { offset: 0x6F4F0C, size: 0x8, addend: 0x0, symName: __ZN5realm16ColumnTypeTraitsINS_3SetINS_10Decimal128EEEE9column_idE, symObjAddr: 0xD9F84, symBinAddr: 0x421F8C, symSize: 0x0 }
  - { offset: 0x6F4F41, size: 0x8, addend: 0x0, symName: __ZN5realm16ColumnTypeTraitsINS_3LstINS_10StringDataEEEE9column_idE, symObjAddr: 0xD9FB8, symBinAddr: 0x421FC0, symSize: 0x0 }
  - { offset: 0x6F4F55, size: 0x8, addend: 0x0, symName: __ZN5realm16ColumnTypeTraitsINS_3SetINS_10StringDataEEEE9column_idE, symObjAddr: 0xDA118, symBinAddr: 0x422084, symSize: 0x0 }
  - { offset: 0x6F4F8A, size: 0x8, addend: 0x0, symName: __ZN5realm16ColumnTypeTraitsINS_3LstINS_10BinaryDataEEEE9column_idE, symObjAddr: 0xDA14C, symBinAddr: 0x4220B8, symSize: 0x0 }
  - { offset: 0x6F507B, size: 0x8, addend: 0x0, symName: __ZN5realm16ColumnTypeTraitsINS_3SetINS_10BinaryDataEEEE9column_idE, symObjAddr: 0xDA2AC, symBinAddr: 0x4221A8, symSize: 0x0 }
  - { offset: 0x6F50B0, size: 0x8, addend: 0x0, symName: __ZN5realm16ColumnTypeTraitsINS_3LstINS_4UUIDEEEE9column_idE, symObjAddr: 0xDA2E0, symBinAddr: 0x4221DC, symSize: 0x0 }
  - { offset: 0x6F52E0, size: 0x8, addend: 0x0, symName: __ZN5realm16ColumnTypeTraitsINS_3SetINS_4UUIDEEEE9column_idE, symObjAddr: 0xDA5E0, symBinAddr: 0x42242C, symSize: 0x0 }
  - { offset: 0x6F5315, size: 0x8, addend: 0x0, symName: __ZN5realm16ColumnTypeTraitsINS_3LstINS_5MixedEEEE9column_idE, symObjAddr: 0xDA60C, symBinAddr: 0x422458, symSize: 0x0 }
  - { offset: 0x6F5329, size: 0x8, addend: 0x0, symName: __ZN5realm16ColumnTypeTraitsINS_3SetINS_5MixedEEEE9column_idE, symObjAddr: 0xDAA68, symBinAddr: 0x4225F8, symSize: 0x0 }
  - { offset: 0x6F5364, size: 0x8, addend: 0x0, symName: __ZN5realm16ColumnTypeTraitsINS_4LinkEE9column_idE, symObjAddr: 0xDAA94, symBinAddr: 0x422624, symSize: 0x0 }
  - { offset: 0x6F5378, size: 0x8, addend: 0x0, symName: __ZN5realm16ColumnTypeTraitsINS_5MixedEE9column_idE, symObjAddr: 0xDB49C, symBinAddr: 0x422FD8, symSize: 0x0 }
  - { offset: 0x6F5CC2, size: 0x8, addend: 0x0, symName: __ZNK5realm7LinkMap27get_unary_link_or_not_foundEm, symObjAddr: 0xAE14, symBinAddr: 0x30036C, symSize: 0x70 }
  - { offset: 0x6F5E24, size: 0x8, addend: 0x0, symName: __ZNK5realm7LinkMap9get_linksEm, symObjAddr: 0xAE84, symBinAddr: 0x3003DC, symSize: 0x6C }
  - { offset: 0x6F88C8, size: 0x8, addend: 0x0, symName: __ZNSt3__16vectorIN5realm11PathElementENS_9allocatorIS2_EEE26__swap_out_circular_bufferERNS_14__split_bufferIS2_RS4_EE, symObjAddr: 0x82594, symBinAddr: 0x366B78, symSize: 0xA4 }
  - { offset: 0x6F96DC, size: 0x8, addend: 0x0, symName: __ZNK5realm16GeoWithinCompare10find_firstEmm, symObjAddr: 0xBA524, symBinAddr: 0x39E66C, symSize: 0x128 }
  - { offset: 0x6F9B1B, size: 0x8, addend: 0x0, symName: __ZN12_GLOBAL__N_112QueryBuilder21add_string_constraintIN5realm7ColumnsINS2_3SetINS2_10StringDataEEEEES5_EEv23NSPredicateOperatorTypemOT_OT0_, symObjAddr: 0xBF284, symBinAddr: 0x3A3354, symSize: 0x490 }
  - { offset: 0x6FAAB9, size: 0x8, addend: 0x0, symName: __ZN12_GLOBAL__N_112QueryBuilder21add_string_constraintIN5realm7ColumnsINS2_3SetINS2_10BinaryDataEEEEES5_EEv23NSPredicateOperatorTypemOT_OT0_, symObjAddr: 0xBF714, symBinAddr: 0x3A37E4, symSize: 0x490 }
  - { offset: 0x6FBB19, size: 0x8, addend: 0x0, symName: __ZN12_GLOBAL__N_112QueryBuilder21add_string_constraintIN5realm7ColumnsINS2_10DictionaryEEENS2_10StringDataEEEv23NSPredicateOperatorTypemOT_OT0_, symObjAddr: 0xC161C, symBinAddr: 0x3A56EC, symSize: 0x954 }
  - { offset: 0x6FD39C, size: 0x8, addend: 0x0, symName: __ZN12_GLOBAL__N_112QueryBuilder21add_string_constraintIN5realm7ColumnsINS2_10DictionaryEEENS2_10BinaryDataEEEv23NSPredicateOperatorTypemOT_OT0_, symObjAddr: 0xC1F70, symBinAddr: 0x3A6040, symSize: 0x5B8 }
  - { offset: 0x6FE795, size: 0x8, addend: 0x0, symName: __ZN12_GLOBAL__N_112QueryBuilder21add_string_constraintIN5realm7ColumnsINS2_10StringDataEEES4_EEv23NSPredicateOperatorTypemOT_OT0_, symObjAddr: 0xC47A8, symBinAddr: 0x3A8878, symSize: 0x490 }
  - { offset: 0x6FF733, size: 0x8, addend: 0x0, symName: __ZN12_GLOBAL__N_112QueryBuilder21add_string_constraintIN5realm7ColumnsINS2_10BinaryDataEEES4_EEv23NSPredicateOperatorTypemOT_OT0_, symObjAddr: 0xC4C38, symBinAddr: 0x3A8D08, symSize: 0x490 }
  - { offset: 0x700B00, size: 0x8, addend: 0x0, symName: __Z19RLMPredicateToQueryP11NSPredicateP15RLMObjectSchemaP9RLMSchemaRN5realm5GroupE, symObjAddr: 0x0, symBinAddr: 0x2F6390, symSize: 0x154 }
  - { offset: 0x700CF5, size: 0x8, addend: 0x0, symName: __ZN12_GLOBAL__N_112QueryBuilder15apply_predicateEP11NSPredicateP15RLMObjectSchema, symObjAddr: 0x1D8, symBinAddr: 0x2F6568, symSize: 0xDE4 }
  - { offset: 0x701FCC, size: 0x8, addend: 0x0, symName: __ZN12_GLOBAL__N_112QueryBuilder23apply_column_expressionEONS_7KeyPathES2_P21NSComparisonPredicate, symObjAddr: 0x1224, symBinAddr: 0x2F750C, symSize: 0x4B4 }
  - { offset: 0x7031C1, size: 0x8, addend: 0x0, symName: __ZNSt3__16vectorIU8__strongP11RLMPropertyNS_9allocatorIS3_EEE16__destroy_vectorclB8ne180100Ev, symObjAddr: 0x5958, symBinAddr: 0x2FBBE8, symSize: 0x6C }
  - { offset: 0x70331B, size: 0x8, addend: 0x0, symName: __ZN12_GLOBAL__N_112QueryBuilder22apply_value_expressionEONS_7KeyPathEP11objc_objectP21NSComparisonPredicate, symObjAddr: 0x2014, symBinAddr: 0x2F82FC, symSize: 0x1520 }
  - { offset: 0x70825E, size: 0x8, addend: 0x0, symName: __ZN12_GLOBAL__N_112QueryBuilder25apply_function_expressionEP15RLMObjectSchemaP12NSExpression23NSPredicateOperatorTypeS4_, symObjAddr: 0x3534, symBinAddr: 0x2F981C, symSize: 0x948 }
  - { offset: 0x709786, size: 0x8, addend: 0x0, symName: __ZN12_GLOBAL__N_112QueryBuilder20apply_map_expressionEP15RLMObjectSchemaP12NSExpressionm23NSPredicateOperatorTypeS4_, symObjAddr: 0x3E7C, symBinAddr: 0x2FA164, symSize: 0x5F8 }
  - { offset: 0x70AABA, size: 0x8, addend: 0x0, symName: __ZN12_GLOBAL__N_17KeyPathD1Ev, symObjAddr: 0x1FD8, symBinAddr: 0x2F82C0, symSize: 0x3C }
  - { offset: 0x70AB99, size: 0x8, addend: 0x0, symName: __Z20RLMValidatedPropertyP15RLMObjectSchemaP8NSString, symObjAddr: 0xFBC, symBinAddr: 0x2F734C, symSize: 0xE8 }
  - { offset: 0x70ADF5, size: 0x8, addend: 0x0, symName: __ZN12_GLOBAL__N_112QueryBuilder34collection_operation_from_key_pathEONS_7KeyPathE, symObjAddr: 0x4520, symBinAddr: 0x2FA7F8, symSize: 0x2A4 }
  - { offset: 0x70B7F0, size: 0x8, addend: 0x0, symName: __ZN12_GLOBAL__N_112QueryBuilder30column_reference_from_key_pathEONS_7KeyPathEb, symObjAddr: 0x47C4, symBinAddr: 0x2FAA9C, symSize: 0x94 }
  - { offset: 0x70B856, size: 0x8, addend: 0x0, symName: __ZNK12_GLOBAL__N_119CollectionOperation19validate_comparisonERKNS_15ColumnReferenceE, symObjAddr: 0x4858, symBinAddr: 0x2FAB30, symSize: 0x1C0 }
  - { offset: 0x70B861, size: 0x8, addend: 0x0, symName: __ZNK12_GLOBAL__N_119CollectionOperation19validate_comparisonERKNS_15ColumnReferenceE, symObjAddr: 0x4858, symBinAddr: 0x2FAB30, symSize: 0x1C0 }
  - { offset: 0x70BA9A, size: 0x8, addend: 0x0, symName: __ZN12_GLOBAL__N_112QueryBuilder35add_collection_operation_constraintINS_15ColumnReferenceEEEv23NSPredicateOperatorTypeRKNS_19CollectionOperationEOT_m, symObjAddr: 0x4A18, symBinAddr: 0x2FACF0, symSize: 0xCB4 }
  - { offset: 0x70FE98, size: 0x8, addend: 0x0, symName: __ZNSt3__16vectorIN5realm17ExtendedColumnKeyENS_9allocatorIS2_EEE16__destroy_vectorclB8ne180100Ev, symObjAddr: 0x5F00, symBinAddr: 0x2FC190, symSize: 0x40 }
  - { offset: 0x70FF8C, size: 0x8, addend: 0x0, symName: __ZN12_GLOBAL__N_112QueryBuilder17do_add_constraintIN5realm3LstERKNS_15ColumnReferenceEEEv15RLMPropertyType23NSPredicateOperatorTypemS6_OT0_, symObjAddr: 0x834E4, symBinAddr: 0x3679B4, symSize: 0x23A4 }
  - { offset: 0x71CC7F, size: 0x8, addend: 0x0, symName: __ZN12_GLOBAL__N_112QueryBuilder17do_add_constraintIN5realm3SetERKNS_15ColumnReferenceEEEv15RLMPropertyType23NSPredicateOperatorTypemS6_OT0_, symObjAddr: 0x85888, symBinAddr: 0x369D58, symSize: 0x249C }
  - { offset: 0x72A451, size: 0x8, addend: 0x0, symName: __ZN12_GLOBAL__N_112QueryBuilder17do_add_constraintINS_16AlwaysDictionaryERKNS_15ColumnReferenceEEEv15RLMPropertyType23NSPredicateOperatorTypemS5_OT0_, symObjAddr: 0x87D24, symBinAddr: 0x36C1F4, symSize: 0x24A8 }
  - { offset: 0x730EE8, size: 0x8, addend: 0x0, symName: __ZN12_GLOBAL__N_112QueryBuilder17do_add_constraintINS_8IdentityERKNS_15ColumnReferenceEEEv15RLMPropertyType23NSPredicateOperatorTypemS5_OT0_, symObjAddr: 0x8A1CC, symBinAddr: 0x36E69C, symSize: 0x2104 }
  - { offset: 0x73A78C, size: 0x8, addend: 0x0, symName: __ZN12_GLOBAL__N_119CollectionOperationD1Ev, symObjAddr: 0x5720, symBinAddr: 0x2FB9F8, symSize: 0x88 }
  - { offset: 0x73AB3A, size: 0x8, addend: 0x0, symName: __ZN12_GLOBAL__N_115ColumnReferenceD1Ev, symObjAddr: 0x56CC, symBinAddr: 0x2FB9A4, symSize: 0x54 }
  - { offset: 0x73DCAD, size: 0x8, addend: 0x0, symName: __ZN12_GLOBAL__N_112QueryBuilder22add_between_constraintERKNS_15ColumnReferenceEP11objc_object, symObjAddr: 0x95E44, symBinAddr: 0x379F8C, symSize: 0x708 }
  - { offset: 0x73F8D2, size: 0x8, addend: 0x0, symName: __ZNK12_GLOBAL__N_115ColumnReference7resolveIN5realm4LinkEJEEEDaDpOT0_, symObjAddr: 0x853C, symBinAddr: 0x2FE7CC, symSize: 0xDC }
  - { offset: 0x73FC78, size: 0x8, addend: 0x0, symName: __ZNK12_GLOBAL__N_115ColumnReference19validate_comparisonEP11objc_object, symObjAddr: 0x9654C, symBinAddr: 0x37A694, symSize: 0x19C }
  - { offset: 0x73FD1F, size: 0x8, addend: 0x0, symName: __ZN12_GLOBAL__N_119CollectionOperation13name_for_typeENS0_4TypeE, symObjAddr: 0x5FA0, symBinAddr: 0x2FC230, symSize: 0x98 }
  - { offset: 0x73FD83, size: 0x8, addend: 0x0, symName: __ZN12_GLOBAL__N_119get_collection_typeIbZNS_12QueryBuilder35add_collection_operation_constraintINS_15ColumnReferenceEEEv23NSPredicateOperatorTypeRKNS_19CollectionOperationEOT_mEUlTyPS8_E_EEvP11RLMPropertyOT0_, symObjAddr: 0x6038, symBinAddr: 0x2FC2C8, symSize: 0x354 }
  - { offset: 0x73FD99, size: 0x8, addend: 0x0, symName: __ZN12_GLOBAL__N_112QueryBuilder14add_constraintIU8__strongP11objc_objectEEv23NSPredicateOperatorTypemRKNS_15ColumnReferenceERKT_, symObjAddr: 0x966E8, symBinAddr: 0x37A830, symSize: 0x2524 }
  - { offset: 0x74386B, size: 0x8, addend: 0x0, symName: __ZN5realm9LinkCountC2ERKNS_7LinkMapE, symObjAddr: 0x3F75C, symBinAddr: 0x324330, symSize: 0x74 }
  - { offset: 0x743A56, size: 0x8, addend: 0x0, symName: __ZZN12_GLOBAL__N_112QueryBuilder35add_collection_operation_constraintILNS_19CollectionOperation4TypeE2ERU8__strongP11objc_objectEEv23NSPredicateOperatorTypeRKS2_OT0_mENKUlTyOT_E_clIN5realm4nullEEEDaSE_, symObjAddr: 0x9BFB0, symBinAddr: 0x3800F8, symSize: 0x27BC }
  - { offset: 0x750943, size: 0x8, addend: 0x0, symName: __ZZN12_GLOBAL__N_112QueryBuilder35add_collection_operation_constraintILNS_19CollectionOperation4TypeE5ERU8__strongP11objc_objectEEv23NSPredicateOperatorTypeRKS2_OT0_mENKUlTyOT_E_clIN5realm4nullEEEDaSE_, symObjAddr: 0xB37D0, symBinAddr: 0x397918, symSize: 0x215C }
  - { offset: 0x75B6D7, size: 0x8, addend: 0x0, symName: __ZZN12_GLOBAL__N_112QueryBuilder35add_collection_operation_constraintILNS_19CollectionOperation4TypeE3ERU8__strongP11objc_objectEEv23NSPredicateOperatorTypeRKS2_OT0_mENKUlTyOT_E_clIN5realm4nullEEEDaSE_, symObjAddr: 0xA756C, symBinAddr: 0x38B6B4, symSize: 0x27BC }
  - { offset: 0x7685C4, size: 0x8, addend: 0x0, symName: __ZZN12_GLOBAL__N_112QueryBuilder35add_collection_operation_constraintILNS_19CollectionOperation4TypeE4ERU8__strongP11objc_objectEEv23NSPredicateOperatorTypeRKS2_OT0_mENKUlTyOT_E_clIN5realm4nullEEEDaSE_, symObjAddr: 0xACDA8, symBinAddr: 0x390EF0, symSize: 0x215C }
  - { offset: 0x77334E, size: 0x8, addend: 0x0, symName: __ZN5realm7ColumnsINS_10DictionaryEEC2ENS_6ColKeyENS_13ConstTableRefERKNSt3__16vectorINS_17ExtendedColumnKeyENS5_9allocatorIS7_EEEENS5_8optionalINS_24ExpressionComparisonTypeEEE, symObjAddr: 0x82434, symBinAddr: 0x366A18, symSize: 0x160 }
  - { offset: 0x7737DD, size: 0x8, addend: 0x0, symName: __ZZN12_GLOBAL__N_112QueryBuilder35add_collection_operation_constraintILNS_19CollectionOperation4TypeE2ERU8__strongP11objc_objectEEv23NSPredicateOperatorTypeRKS2_OT0_mENKUlTyOT_E_clIS7_EEDaSE_, symObjAddr: 0x9E76C, symBinAddr: 0x3828B4, symSize: 0x2EE4 }
  - { offset: 0x78129D, size: 0x8, addend: 0x0, symName: __ZZN12_GLOBAL__N_112QueryBuilder35add_collection_operation_constraintILNS_19CollectionOperation4TypeE5ERU8__strongP11objc_objectEEv23NSPredicateOperatorTypeRKS2_OT0_mENKUlTyOT_E_clIS7_EEDaSE_, symObjAddr: 0xB592C, symBinAddr: 0x399A74, symSize: 0x2708 }
  - { offset: 0x78CB00, size: 0x8, addend: 0x0, symName: __ZZN12_GLOBAL__N_112QueryBuilder35add_collection_operation_constraintILNS_19CollectionOperation4TypeE3ERU8__strongP11objc_objectEEv23NSPredicateOperatorTypeRKS2_OT0_mENKUlTyOT_E_clIS7_EEDaSE_, symObjAddr: 0xA9D28, symBinAddr: 0x38DE70, symSize: 0x2EE4 }
  - { offset: 0x79A5C0, size: 0x8, addend: 0x0, symName: __ZZN12_GLOBAL__N_112QueryBuilder35add_collection_operation_constraintILNS_19CollectionOperation4TypeE4ERU8__strongP11objc_objectEEv23NSPredicateOperatorTypeRKS2_OT0_mENKUlTyOT_E_clIS7_EEDaSE_, symObjAddr: 0xAEF04, symBinAddr: 0x39304C, symSize: 0x2708 }
  - { offset: 0x7A7057, size: 0x8, addend: 0x0, symName: __ZN12_GLOBAL__N_112QueryBuilder24add_substring_constraintIN5realm10StringDataEEEvRKT_NS2_5QueryE, symObjAddr: 0xB88C8, symBinAddr: 0x39CA10, symSize: 0xCC }
  - { offset: 0x7A7E99, size: 0x8, addend: 0x0, symName: __ZN5realm4util8bind_ptrINS_6Status9ErrorInfoEE6unbindEv, symObjAddr: 0xBAD0, symBinAddr: 0x300D38, symSize: 0x50 }
  - { offset: 0x7A80A8, size: 0x8, addend: 0x0, symName: __ZN5realm10GeospatialD1Ev, symObjAddr: 0xBA29C, symBinAddr: 0x39E3E4, symSize: 0x50 }
  - { offset: 0x7A8497, size: 0x8, addend: 0x0, symName: __ZN5realm7LinkMapD1Ev, symObjAddr: 0x14234, symBinAddr: 0x306B98, symSize: 0x8C }
  - { offset: 0x7A947D, size: 0x8, addend: 0x0, symName: __ZNK12_GLOBAL__N_115ColumnReference7resolveIN5realm4LinkEJNS2_5QueryEEEEDaDpOT0_, symObjAddr: 0xB91DC, symBinAddr: 0x39D324, symSize: 0x2D4 }
  - { offset: 0x7AA57E, size: 0x8, addend: 0x0, symName: __ZN5realm13SubQueryCountC2ERKNS_5QueryERKNS_7LinkMapE, symObjAddr: 0xB9824, symBinAddr: 0x39D96C, symSize: 0xE8 }
  - { offset: 0x7AA6DF, size: 0x8, addend: 0x0, symName: __ZN5realm13SubQueryCountD1Ev, symObjAddr: 0xB94B0, symBinAddr: 0x39D5F8, symSize: 0xA0 }
  - { offset: 0x7AAD1E, size: 0x8, addend: 0x0, symName: __ZN5realm8SubQueryINS_4LinkEED1Ev, symObjAddr: 0xB9550, symBinAddr: 0x39D698, symSize: 0x90 }
  - { offset: 0x7ABB05, size: 0x8, addend: 0x0, symName: __ZN12_GLOBAL__N_112QueryBuilder17get_path_elementsERNSt3__16vectorIN5realm11PathElementENS1_9allocatorIS4_EEEEP12NSExpression, symObjAddr: 0xC5B44, symBinAddr: 0x3A9BC8, symSize: 0x754 }
  - { offset: 0x7ACB3F, size: 0x8, addend: 0x0, symName: __ZNK12_GLOBAL__N_115ColumnReference7resolveIN5realm5MixedEJEEEDaDpOT0_, symObjAddr: 0x600D4, symBinAddr: 0x3446B8, symSize: 0x1F0 }
  - { offset: 0x7AD219, size: 0x8, addend: 0x0, symName: __ZN5realm11PathElementC2ERKS0_, symObjAddr: 0x8D1C, symBinAddr: 0x2FEDA0, symSize: 0x6C }
  - { offset: 0x7AD2C9, size: 0x8, addend: 0x0, symName: __ZNSt3__114__split_bufferIN5realm11PathElementERNS_9allocatorIS2_EEED2Ev, symObjAddr: 0x82638, symBinAddr: 0x366C1C, symSize: 0x6C }
  - { offset: 0x7AD579, size: 0x8, addend: 0x0, symName: __ZN12_GLOBAL__N_112QueryBuilder20add_mixed_constraintIN5realm5MixedEU8__strongP11objc_objectEEv23NSPredicateOperatorTypemONS2_7ColumnsIT_EET0_, symObjAddr: 0xC54D0, symBinAddr: 0x3A9554, symSize: 0x3EC }
  - { offset: 0x7ADE8F, size: 0x8, addend: 0x0, symName: __ZN5realm7ColumnsINS_5MixedEED2Ev, symObjAddr: 0x56DF0, symBinAddr: 0x33B3D4, symSize: 0xE4 }
  - { offset: 0x7AE739, size: 0x8, addend: 0x0, symName: __ZNK12_GLOBAL__N_115ColumnReference7resolveIN5realm10DictionaryEJEEEDaDpOT0_, symObjAddr: 0x1637C, symBinAddr: 0x3078B8, symSize: 0x14C }
  - { offset: 0x7AEB3D, size: 0x8, addend: 0x0, symName: __ZN12_GLOBAL__N_112QueryBuilder20add_mixed_constraintIN5realm10DictionaryEU8__strongP11objc_objectEEv23NSPredicateOperatorTypemONS2_7ColumnsIT_EET0_, symObjAddr: 0xC2A08, symBinAddr: 0x3A6AD8, symSize: 0x3EC }
  - { offset: 0x7AF468, size: 0x8, addend: 0x0, symName: __ZN5realm14TrueExpressionD1Ev, symObjAddr: 0x4474, symBinAddr: 0x2FA75C, symSize: 0x4 }
  - { offset: 0x7AF494, size: 0x8, addend: 0x0, symName: __ZN5realm14TrueExpressionD0Ev, symObjAddr: 0x4478, symBinAddr: 0x2FA760, symSize: 0x4 }
  - { offset: 0x7AF4C0, size: 0x8, addend: 0x0, symName: __ZNK5realm14TrueExpression10find_firstEmm, symObjAddr: 0x4488, symBinAddr: 0x2FA764, symSize: 0x3C }
  - { offset: 0x7AF542, size: 0x8, addend: 0x0, symName: __ZN5realm14TrueExpression14set_base_tableENS_13ConstTableRefE, symObjAddr: 0x44C4, symBinAddr: 0x2FA7A0, symSize: 0x4 }
  - { offset: 0x7AF54D, size: 0x8, addend: 0x0, symName: __ZN5realm14TrueExpression14set_base_tableENS_13ConstTableRefE, symObjAddr: 0x44C4, symBinAddr: 0x2FA7A0, symSize: 0x4 }
  - { offset: 0x7AF579, size: 0x8, addend: 0x0, symName: __ZN5realm14TrueExpression11set_clusterEPKNS_7ClusterE, symObjAddr: 0x44C8, symBinAddr: 0x2FA7A4, symSize: 0x4 }
  - { offset: 0x7AF5A5, size: 0x8, addend: 0x0, symName: __ZNK5realm14TrueExpression14get_base_tableEv, symObjAddr: 0x44D0, symBinAddr: 0x2FA7A8, symSize: 0xC }
  - { offset: 0x7AF5FB, size: 0x8, addend: 0x0, symName: __ZNK5realm14TrueExpression11descriptionERNS_4util10serializer18SerialisationStateE, symObjAddr: 0x44DC, symBinAddr: 0x2FA7B4, symSize: 0x10 }
  - { offset: 0x7AF69A, size: 0x8, addend: 0x0, symName: __ZNK5realm14TrueExpression5cloneEv, symObjAddr: 0x44EC, symBinAddr: 0x2FA7C4, symSize: 0x34 }
  - { offset: 0x7AF9C6, size: 0x8, addend: 0x0, symName: __ZNSt3__16vectorIU8__strongP11RLMPropertyNS_9allocatorIS3_EEE16__init_with_sizeB8ne180100IPS3_S8_EEvT_T0_m, symObjAddr: 0x5858, symBinAddr: 0x2FBB30, symSize: 0x7C }
  - { offset: 0x7AFCA2, size: 0x8, addend: 0x0, symName: __ZN12_GLOBAL__N_115ColumnReferenceC1ERN5realm5QueryERNS1_5GroupEP9RLMSchemaP11RLMPropertyONSt3__16vectorIU8__strongS9_NSA_9allocatorISC_EEEE, symObjAddr: 0x59C4, symBinAddr: 0x2FBC54, symSize: 0x364 }
  - { offset: 0x7B1016, size: 0x8, addend: 0x0, symName: __ZNK12_GLOBAL__N_115ColumnReference7resolveIxJEEEDaDpOT0_, symObjAddr: 0x898C, symBinAddr: 0x2FEA24, symSize: 0x1C0 }
  - { offset: 0x7B1629, size: 0x8, addend: 0x0, symName: __ZN12_GLOBAL__N_115ColumnReferenceC1ERKS0_, symObjAddr: 0x3F7D0, symBinAddr: 0x3243A4, symSize: 0xD0 }
  - { offset: 0x7B185F, size: 0x8, addend: 0x0, symName: __ZZN12_GLOBAL__N_112QueryBuilder35add_collection_operation_constraintILNS_19CollectionOperation4TypeE5ENS_15ColumnReferenceEEEv23NSPredicateOperatorTypeRKS2_OT0_mENKUlTyOT_E_clIS4_EEDaSB_, symObjAddr: 0x7515C, symBinAddr: 0x359740, symSize: 0x30E4 }
  - { offset: 0x7C35CE, size: 0x8, addend: 0x0, symName: __ZZN12_GLOBAL__N_112QueryBuilder35add_collection_operation_constraintILNS_19CollectionOperation4TypeE3ENS_15ColumnReferenceEEEv23NSPredicateOperatorTypeRKS2_OT0_mENKUlTyOT_E_clIS4_EEDaSB_, symObjAddr: 0x65D20, symBinAddr: 0x34A304, symSize: 0x3AB8 }
  - { offset: 0x7D8C6A, size: 0x8, addend: 0x0, symName: __ZZN12_GLOBAL__N_112QueryBuilder35add_collection_operation_constraintILNS_19CollectionOperation4TypeE4ENS_15ColumnReferenceEEEv23NSPredicateOperatorTypeRKS2_OT0_mENKUlTyOT_E_clIS4_EEDaSB_, symObjAddr: 0x6B5E8, symBinAddr: 0x34FBCC, symSize: 0x30E4 }
  - { offset: 0x7EA9CF, size: 0x8, addend: 0x0, symName: __ZNK12_GLOBAL__N_115ColumnReference7resolveIN5realm10StringDataEJEEEDaDpOT0_, symObjAddr: 0x826A4, symBinAddr: 0x366C88, symSize: 0x25C }
  - { offset: 0x7EB30B, size: 0x8, addend: 0x0, symName: __ZN12_GLOBAL__N_112QueryBuilder24add_substring_constraintIN5realm10StringDataEEEvRKNS2_7ColumnsIT_EENS2_5QueryE, symObjAddr: 0x7A590, symBinAddr: 0x35EB74, symSize: 0xE8 }
  - { offset: 0x7EB582, size: 0x8, addend: 0x0, symName: __ZNSt3__124__optional_destruct_baseIN5realm11ArrayStringELb0EED2B8ne180100Ev, symObjAddr: 0x83378, symBinAddr: 0x36795C, symSize: 0x58 }
  - { offset: 0x7EB699, size: 0x8, addend: 0x0, symName: __ZZN12_GLOBAL__N_112QueryBuilder35add_collection_operation_constraintILNS_19CollectionOperation4TypeE2ENS_15ColumnReferenceEEEv23NSPredicateOperatorTypeRKS2_OT0_mENKUlTyOT_E_clIS4_EEDaSB_, symObjAddr: 0x3F8A0, symBinAddr: 0x324474, symSize: 0x3AB8 }
  - { offset: 0x800D2B, size: 0x8, addend: 0x0, symName: __ZN5realm7ColumnsIxED1Ev, symObjAddr: 0x8750, symBinAddr: 0x2FE8A8, symSize: 0xCC }
  - { offset: 0x801563, size: 0x8, addend: 0x0, symName: __ZN5realm7ColumnsINS_10StringDataEED1Ev, symObjAddr: 0x881C, symBinAddr: 0x2FE974, symSize: 0xB0 }
  - { offset: 0x801EA1, size: 0x8, addend: 0x0, symName: __ZNSt3__16vectorIU8__strongP11RLMPropertyNS_9allocatorIS3_EEE11__vallocateB8ne180100Em, symObjAddr: 0x58D4, symBinAddr: 0x2FBBAC, symSize: 0x3C }
  - { offset: 0x80224B, size: 0x8, addend: 0x0, symName: __ZNK12_GLOBAL__N_115ColumnReference11link_originEP11RLMProperty, symObjAddr: 0x5D28, symBinAddr: 0x2FBFB8, symSize: 0x1D8 }
  - { offset: 0x8024DD, size: 0x8, addend: 0x0, symName: __ZNSt3__16vectorIN5realm17ExtendedColumnKeyENS_9allocatorIS2_EEE22__base_destruct_at_endB8ne180100EPS2_, symObjAddr: 0x5F40, symBinAddr: 0x2FC1D0, symSize: 0x60 }
  - { offset: 0x802859, size: 0x8, addend: 0x0, symName: __ZNK12_GLOBAL__N_115ColumnReference7resolveIN5realm3LstIbEEJEEEDaDpOT0_, symObjAddr: 0xB248, symBinAddr: 0x300638, symSize: 0x1D4 }
  - { offset: 0x802EA9, size: 0x8, addend: 0x0, symName: __ZN5realm17ColumnsCollectionIbE4sizeEv, symObjAddr: 0xB41C, symBinAddr: 0x30080C, symSize: 0x70 }
  - { offset: 0x802F81, size: 0x8, addend: 0x0, symName: __ZN12_GLOBAL__N_112QueryBuilder22add_numeric_constraintIN5realm12SizeOperatorIxEERNS2_7ColumnsIxEEEEv15RLMPropertyType23NSPredicateOperatorTypeOT_OT0_, symObjAddr: 0xB0F8, symBinAddr: 0x3004E8, symSize: 0x150 }
  - { offset: 0x803150, size: 0x8, addend: 0x0, symName: __ZNK12_GLOBAL__N_115ColumnReference7resolveIN5realm3SetIbEEJEEEDaDpOT0_, symObjAddr: 0x15F7C, symBinAddr: 0x3074B8, symSize: 0x1D4 }
  - { offset: 0x803819, size: 0x8, addend: 0x0, symName: __ZNK12_GLOBAL__N_115ColumnReference7resolveIN5realm3LstINS2_8ObjectIdEEEJEEEDaDpOT0_, symObjAddr: 0x164C8, symBinAddr: 0x307A04, symSize: 0x1D4 }
  - { offset: 0x803E69, size: 0x8, addend: 0x0, symName: __ZN5realm17ColumnsCollectionINS_8ObjectIdEE4sizeEv, symObjAddr: 0x1669C, symBinAddr: 0x307BD8, symSize: 0x70 }
  - { offset: 0x803F4A, size: 0x8, addend: 0x0, symName: __ZNK12_GLOBAL__N_115ColumnReference7resolveIN5realm3SetINS2_8ObjectIdEEEJEEEDaDpOT0_, symObjAddr: 0x18D94, symBinAddr: 0x309234, symSize: 0x1D4 }
  - { offset: 0x8046D4, size: 0x8, addend: 0x0, symName: __ZNK12_GLOBAL__N_115ColumnReference7resolveIN5realm3LstINS2_9TimestampEEEJEEEDaDpOT0_, symObjAddr: 0x19194, symBinAddr: 0x309634, symSize: 0x1D4 }
  - { offset: 0x804D24, size: 0x8, addend: 0x0, symName: __ZN5realm17ColumnsCollectionINS_9TimestampEE4sizeEv, symObjAddr: 0x19368, symBinAddr: 0x309808, symSize: 0x70 }
  - { offset: 0x804E05, size: 0x8, addend: 0x0, symName: __ZNK12_GLOBAL__N_115ColumnReference7resolveIN5realm3SetINS2_9TimestampEEEJEEEDaDpOT0_, symObjAddr: 0x1B310, symBinAddr: 0x30AA9C, symSize: 0x1D4 }
  - { offset: 0x805569, size: 0x8, addend: 0x0, symName: __ZNK12_GLOBAL__N_115ColumnReference7resolveIN5realm3LstIdEEJEEEDaDpOT0_, symObjAddr: 0x1B710, symBinAddr: 0x30AE9C, symSize: 0x1D4 }
  - { offset: 0x805BB9, size: 0x8, addend: 0x0, symName: __ZN5realm17ColumnsCollectionIdE4sizeEv, symObjAddr: 0x1B8E4, symBinAddr: 0x30B070, symSize: 0x70 }
  - { offset: 0x805C9A, size: 0x8, addend: 0x0, symName: __ZNK12_GLOBAL__N_115ColumnReference7resolveIN5realm3SetIdEEJEEEDaDpOT0_, symObjAddr: 0x202AC, symBinAddr: 0x30EDB4, symSize: 0x1D4 }
  - { offset: 0x8063FE, size: 0x8, addend: 0x0, symName: __ZNK12_GLOBAL__N_115ColumnReference7resolveIN5realm3LstIfEEJEEEDaDpOT0_, symObjAddr: 0x206AC, symBinAddr: 0x30F1B4, symSize: 0x1D4 }
  - { offset: 0x806A4E, size: 0x8, addend: 0x0, symName: __ZN5realm17ColumnsCollectionIfE4sizeEv, symObjAddr: 0x20880, symBinAddr: 0x30F388, symSize: 0x70 }
  - { offset: 0x806B2F, size: 0x8, addend: 0x0, symName: __ZNK12_GLOBAL__N_115ColumnReference7resolveIN5realm3SetIfEEJEEEDaDpOT0_, symObjAddr: 0x251C4, symBinAddr: 0x3131B0, symSize: 0x1D4 }
  - { offset: 0x807293, size: 0x8, addend: 0x0, symName: __ZNK12_GLOBAL__N_115ColumnReference7resolveIN5realm3LstIxEEJEEEDaDpOT0_, symObjAddr: 0x255C4, symBinAddr: 0x3135B0, symSize: 0x1D0 }
  - { offset: 0x8078E3, size: 0x8, addend: 0x0, symName: __ZN5realm17ColumnsCollectionIxE4sizeEv, symObjAddr: 0x25794, symBinAddr: 0x313780, symSize: 0x70 }
  - { offset: 0x8079C4, size: 0x8, addend: 0x0, symName: __ZNK12_GLOBAL__N_115ColumnReference7resolveIN5realm3SetIxEEJEEEDaDpOT0_, symObjAddr: 0x2B00C, symBinAddr: 0x318020, symSize: 0x1D0 }
  - { offset: 0x8081A1, size: 0x8, addend: 0x0, symName: __ZNK12_GLOBAL__N_115ColumnReference7resolveIN5realm3LstINS2_10Decimal128EEEJEEEDaDpOT0_, symObjAddr: 0x2B408, symBinAddr: 0x31841C, symSize: 0x1D4 }
  - { offset: 0x8087F1, size: 0x8, addend: 0x0, symName: __ZN5realm17ColumnsCollectionINS_10Decimal128EE4sizeEv, symObjAddr: 0x2B5DC, symBinAddr: 0x3185F0, symSize: 0x70 }
  - { offset: 0x8088D2, size: 0x8, addend: 0x0, symName: __ZNK12_GLOBAL__N_115ColumnReference7resolveIN5realm3SetINS2_10Decimal128EEEJEEEDaDpOT0_, symObjAddr: 0x2FEB0, symBinAddr: 0x31C70C, symSize: 0x1D4 }
  - { offset: 0x808F7C, size: 0x8, addend: 0x0, symName: __ZNK12_GLOBAL__N_115ColumnReference7resolveIN5realm3LstINS2_10StringDataEEEJEEEDaDpOT0_, symObjAddr: 0x302B0, symBinAddr: 0x31CB0C, symSize: 0x1D4 }
  - { offset: 0x8095CC, size: 0x8, addend: 0x0, symName: __ZN5realm17ColumnsCollectionINS_10StringDataEE4sizeEv, symObjAddr: 0x30484, symBinAddr: 0x31CCE0, symSize: 0x70 }
  - { offset: 0x80969E, size: 0x8, addend: 0x0, symName: __ZNK12_GLOBAL__N_115ColumnReference7resolveIN5realm3SetINS2_10StringDataEEEJEEEDaDpOT0_, symObjAddr: 0x32A80, symBinAddr: 0x31EA74, symSize: 0x1D4 }
  - { offset: 0x809D48, size: 0x8, addend: 0x0, symName: __ZNK12_GLOBAL__N_115ColumnReference7resolveIN5realm3LstINS2_10BinaryDataEEEJEEEDaDpOT0_, symObjAddr: 0x32E80, symBinAddr: 0x31EE74, symSize: 0x1D4 }
  - { offset: 0x80A398, size: 0x8, addend: 0x0, symName: __ZN5realm17ColumnsCollectionINS_10BinaryDataEE4sizeEv, symObjAddr: 0x33054, symBinAddr: 0x31F048, symSize: 0x70 }
  - { offset: 0x80A46A, size: 0x8, addend: 0x0, symName: __ZNK12_GLOBAL__N_115ColumnReference7resolveIN5realm3SetINS2_10BinaryDataEEEJEEEDaDpOT0_, symObjAddr: 0x351A4, symBinAddr: 0x320AB8, symSize: 0x1D4 }
  - { offset: 0x80AB33, size: 0x8, addend: 0x0, symName: __ZNK12_GLOBAL__N_115ColumnReference7resolveIN5realm3LstINS2_4UUIDEEEJEEEDaDpOT0_, symObjAddr: 0x355A4, symBinAddr: 0x320EB8, symSize: 0x1D4 }
  - { offset: 0x80B183, size: 0x8, addend: 0x0, symName: __ZN5realm17ColumnsCollectionINS_4UUIDEE4sizeEv, symObjAddr: 0x35778, symBinAddr: 0x32108C, symSize: 0x70 }
  - { offset: 0x80B264, size: 0x8, addend: 0x0, symName: __ZNK12_GLOBAL__N_115ColumnReference7resolveIN5realm3SetINS2_4UUIDEEEJEEEDaDpOT0_, symObjAddr: 0x37D78, symBinAddr: 0x3226EC, symSize: 0x1D4 }
  - { offset: 0x80BA22, size: 0x8, addend: 0x0, symName: __ZNK12_GLOBAL__N_115ColumnReference7resolveIN5realm3LstINS2_5MixedEEEJEEEDaDpOT0_, symObjAddr: 0x38178, symBinAddr: 0x322AEC, symSize: 0x1F0 }
  - { offset: 0x80C171, size: 0x8, addend: 0x0, symName: __ZN5realm7ColumnsINS_3LstINS_5MixedEEEED2Ev, symObjAddr: 0x3ECF8, symBinAddr: 0x3238CC, symSize: 0x110 }
  - { offset: 0x80CAFA, size: 0x8, addend: 0x0, symName: __ZNK12_GLOBAL__N_115ColumnReference7resolveIN5realm3SetINS2_5MixedEEEJEEEDaDpOT0_, symObjAddr: 0x3EE08, symBinAddr: 0x3239DC, symSize: 0x1D4 }
  - { offset: 0x80D1F6, size: 0x8, addend: 0x0, symName: __ZNSt3__16vectorIN5realm17ExtendedColumnKeyENS_9allocatorIS2_EEE16__init_with_sizeB8ne180100IPS2_S7_EEvT_T0_m, symObjAddr: 0x8B4C, symBinAddr: 0x2FEBE4, symSize: 0x84 }
  - { offset: 0x80D46F, size: 0x8, addend: 0x0, symName: __ZN5realm9LinkChain6columnINS_4LinkEEENS_7ColumnsIT_EERKNS_5TableENS_6ColKeyE, symObjAddr: 0x3F37C, symBinAddr: 0x323F50, symSize: 0x94 }
  - { offset: 0x80D6E2, size: 0x8, addend: 0x0, symName: __ZN5realm9LinkChain6columnINS_4LinkEEENS_7ColumnsIT_EENS_6ColKeyE, symObjAddr: 0x3F210, symBinAddr: 0x323DE4, symSize: 0x16C }
  - { offset: 0x80DC05, size: 0x8, addend: 0x0, symName: __ZNK5realm5Table12check_columnENS_6ColKeyE, symObjAddr: 0x8DF0, symBinAddr: 0x2FEE74, symSize: 0x84 }
  - { offset: 0x80DCC7, size: 0x8, addend: 0x0, symName: __ZN5realm7ColumnsIxEC2ENS_6ColKeyENS_13ConstTableRefERKNSt3__16vectorINS_17ExtendedColumnKeyENS4_9allocatorIS6_EEEENS4_8optionalINS_24ExpressionComparisonTypeEEE, symObjAddr: 0x91E0, symBinAddr: 0x2FF120, symSize: 0xE8 }
  - { offset: 0x80E38A, size: 0x8, addend: 0x0, symName: __ZNSt3__16vectorIN5realm17ExtendedColumnKeyENS_9allocatorIS2_EEE11__vallocateB8ne180100Em, symObjAddr: 0x8BD0, symBinAddr: 0x2FEC68, symSize: 0x4C }
  - { offset: 0x80E535, size: 0x8, addend: 0x0, symName: __ZNSt3__128__exception_guard_exceptionsINS_29_AllocatorDestroyRangeReverseINS_9allocatorIN5realm17ExtendedColumnKeyEEEPS4_EEED2B8ne180100Ev, symObjAddr: 0x8D88, symBinAddr: 0x2FEE0C, symSize: 0x68 }
  - { offset: 0x80ECE2, size: 0x8, addend: 0x0, symName: __ZN5realm15ObjPropertyBaseC2ENS_6ColKeyENS_13ConstTableRefENSt3__16vectorINS_17ExtendedColumnKeyENS3_9allocatorIS5_EEEENS3_8optionalINS_24ExpressionComparisonTypeEEE, symObjAddr: 0x9FA8, symBinAddr: 0x2FFEBC, symSize: 0xA0 }
  - { offset: 0x80EF07, size: 0x8, addend: 0x0, symName: __ZN5realm7ColumnsIxED0Ev, symObjAddr: 0x92C8, symBinAddr: 0x2FF208, symSize: 0xCC }
  - { offset: 0x80F94C, size: 0x8, addend: 0x0, symName: __ZNK5realm15ObjPropertyExprIxE5cloneEv, symObjAddr: 0x9394, symBinAddr: 0x2FF2D4, symSize: 0x8C }
  - { offset: 0x80FD43, size: 0x8, addend: 0x0, symName: __ZN5realm15ObjPropertyExprIxE14set_base_tableENS_13ConstTableRefE, symObjAddr: 0x9420, symBinAddr: 0x2FF360, symSize: 0x38 }
  - { offset: 0x80FD7D, size: 0x8, addend: 0x0, symName: __ZN5realm15ObjPropertyExprIxE14set_base_tableENS_13ConstTableRefE, symObjAddr: 0x9420, symBinAddr: 0x2FF360, symSize: 0x38 }
  - { offset: 0x80FD9B, size: 0x8, addend: 0x0, symName: __ZN5realm15ObjPropertyExprIxE14set_base_tableENS_13ConstTableRefE, symObjAddr: 0x9420, symBinAddr: 0x2FF360, symSize: 0x38 }
  - { offset: 0x80FDBB, size: 0x8, addend: 0x0, symName: __ZN5realm15ObjPropertyExprIxE14set_base_tableENS_13ConstTableRefE, symObjAddr: 0x9420, symBinAddr: 0x2FF360, symSize: 0x38 }
  - { offset: 0x80FE31, size: 0x8, addend: 0x0, symName: __ZNK5realm7ColumnsIxE11descriptionERNS_4util10serializer18SerialisationStateE, symObjAddr: 0x9458, symBinAddr: 0x2FF398, symSize: 0xE8 }
  - { offset: 0x810A0C, size: 0x8, addend: 0x0, symName: __ZN5realm7ColumnsIxE11set_clusterEPKNS_7ClusterE, symObjAddr: 0x9540, symBinAddr: 0x2FF480, symSize: 0x17C }
  - { offset: 0x8117B2, size: 0x8, addend: 0x0, symName: __ZNK5realm15ObjPropertyExprIxE14get_base_tableEv, symObjAddr: 0x96BC, symBinAddr: 0x2FF5FC, symSize: 0x20 }
  - { offset: 0x8117D8, size: 0x8, addend: 0x0, symName: __ZNK5realm15ObjPropertyExprIxE14get_base_tableEv, symObjAddr: 0x96BC, symBinAddr: 0x2FF5FC, symSize: 0x20 }
  - { offset: 0x8117F8, size: 0x8, addend: 0x0, symName: __ZNK5realm15ObjPropertyExprIxE14get_base_tableEv, symObjAddr: 0x96BC, symBinAddr: 0x2FF5FC, symSize: 0x20 }
  - { offset: 0x811818, size: 0x8, addend: 0x0, symName: __ZNK5realm15ObjPropertyExprIxE20collect_dependenciesERNSt3__16vectorINS_8TableKeyENS2_9allocatorIS4_EEEE, symObjAddr: 0x96DC, symBinAddr: 0x2FF61C, symSize: 0x8 }
  - { offset: 0x811864, size: 0x8, addend: 0x0, symName: __ZNK5realm15ObjPropertyExprIxE19has_multiple_valuesEv, symObjAddr: 0x96F4, symBinAddr: 0x2FF624, symSize: 0x24 }
  - { offset: 0x81188E, size: 0x8, addend: 0x0, symName: __ZNK5realm15ObjPropertyExprIxE19has_multiple_valuesEv, symObjAddr: 0x96F4, symBinAddr: 0x2FF624, symSize: 0x24 }
  - { offset: 0x8118AE, size: 0x8, addend: 0x0, symName: __ZNK5realm15ObjPropertyExprIxE19has_multiple_valuesEv, symObjAddr: 0x96F4, symBinAddr: 0x2FF624, symSize: 0x24 }
  - { offset: 0x8118E3, size: 0x8, addend: 0x0, symName: __ZNK5realm15ObjPropertyExprIxE16has_search_indexEv, symObjAddr: 0x9718, symBinAddr: 0x2FF648, symSize: 0x4C }
  - { offset: 0x811927, size: 0x8, addend: 0x0, symName: __ZNK5realm7LinkMap16get_target_tableEv, symObjAddr: 0xAB98, symBinAddr: 0x300138, symSize: 0x44 }
  - { offset: 0x811A09, size: 0x8, addend: 0x0, symName: __ZNK5realm15ObjPropertyExprIxE23has_indexes_in_link_mapEv, symObjAddr: 0x9764, symBinAddr: 0x2FF694, symSize: 0x34 }
  - { offset: 0x811A33, size: 0x8, addend: 0x0, symName: __ZNK5realm15ObjPropertyExprIxE23has_indexes_in_link_mapEv, symObjAddr: 0x9764, symBinAddr: 0x2FF694, symSize: 0x34 }
  - { offset: 0x811A4E, size: 0x8, addend: 0x0, symName: __ZNK5realm15ObjPropertyExprIxE23has_indexes_in_link_mapEv, symObjAddr: 0x9764, symBinAddr: 0x2FF694, symSize: 0x34 }
  - { offset: 0x811A7E, size: 0x8, addend: 0x0, symName: __ZNK5realm15ObjPropertyExprIxE23has_indexes_in_link_mapEv, symObjAddr: 0x9764, symBinAddr: 0x2FF694, symSize: 0x34 }
  - { offset: 0x811E2B, size: 0x8, addend: 0x0, symName: __ZNK5realm15ObjPropertyExprIxE8find_allENS_5MixedE, symObjAddr: 0x9798, symBinAddr: 0x2FF6C8, symSize: 0x250 }
  - { offset: 0x812AFD, size: 0x8, addend: 0x0, symName: __ZNSt3__16vectorIN5realm6ObjKeyENS_9allocatorIS2_EEE18__insert_with_sizeB8ne180100INS_11__wrap_iterIPS2_EES9_EES9_NS7_IPKS2_EET_T0_l, symObjAddr: 0xAC24, symBinAddr: 0x30017C, symSize: 0x1F0 }
  - { offset: 0x813822, size: 0x8, addend: 0x0, symName: __ZNK5realm7LinkMap27get_unary_link_or_not_foundEm, symObjAddr: 0xAE14, symBinAddr: 0x30036C, symSize: 0x70 }
  - { offset: 0x813D03, size: 0x8, addend: 0x0, symName: __ZN5realm7ColumnsIxE8evaluateERNS_7Subexpr5IndexERNS_9ValueBaseE, symObjAddr: 0x99FC, symBinAddr: 0x2FF918, symSize: 0x594 }
  - { offset: 0x81480D, size: 0x8, addend: 0x0, symName: __ZN5realm9ValueBase6resizeEm, symObjAddr: 0xAF84, symBinAddr: 0x300448, symSize: 0x90 }
  - { offset: 0x8148D5, size: 0x8, addend: 0x0, symName: __ZNK5realm7LinkMap9get_linksEm, symObjAddr: 0xAE84, symBinAddr: 0x3003DC, symSize: 0x6C }
  - { offset: 0x814BDB, size: 0x8, addend: 0x0, symName: __ZN5realm9ValueBase6resizeEm, symObjAddr: 0xAF84, symBinAddr: 0x300448, symSize: 0x90 }
  - { offset: 0x814BE6, size: 0x8, addend: 0x0, symName: __ZNK5realm15ObjPropertyExprIxE19get_comparison_typeEv, symObjAddr: 0x9F98, symBinAddr: 0x2FFEAC, symSize: 0x8 }
  - { offset: 0x814C0D, size: 0x8, addend: 0x0, symName: __ZNK5realm15ObjPropertyBase8has_pathEv, symObjAddr: 0x9FA0, symBinAddr: 0x2FFEB4, symSize: 0x8 }
  - { offset: 0x814C64, size: 0x8, addend: 0x0, symName: __ZN5realm7LinkMapC2ENS_13ConstTableRefENSt3__16vectorINS_17ExtendedColumnKeyENS2_9allocatorIS4_EEEE, symObjAddr: 0xA184, symBinAddr: 0x300054, symSize: 0xE4 }
  - { offset: 0x815512, size: 0x8, addend: 0x0, symName: __ZN5realm15ObjPropertyExprIxED1Ev, symObjAddr: 0xA048, symBinAddr: 0x2FFF5C, symSize: 0x4 }
  - { offset: 0x81553C, size: 0x8, addend: 0x0, symName: __ZN5realm15ObjPropertyExprIxED0Ev, symObjAddr: 0xA04C, symBinAddr: 0x2FFF60, symSize: 0x4 }
  - { offset: 0x815566, size: 0x8, addend: 0x0, symName: __ZNK5realm15ObjPropertyExprIxE11descriptionERNS_4util10serializer18SerialisationStateE, symObjAddr: 0xA050, symBinAddr: 0x2FFF64, symSize: 0xE8 }
  - { offset: 0x815B70, size: 0x8, addend: 0x0, symName: __ZN5realm8Subexpr2IxED1Ev, symObjAddr: 0xA13C, symBinAddr: 0x30004C, symSize: 0x4 }
  - { offset: 0x815B9A, size: 0x8, addend: 0x0, symName: __ZN5realm8Subexpr2IxED0Ev, symObjAddr: 0xA140, symBinAddr: 0x300050, symSize: 0x4 }
  - { offset: 0x81762E, size: 0x8, addend: 0x0, symName: __ZZN5realm4util11FunctionRefIFbNS_6ObjKeyEEEC1IZNKS_7LinkMap27get_unary_link_or_not_foundEmEUlS2_E_EEOT_ENUlPvS2_E_8__invokeESA_S2_, symObjAddr: 0xB014, symBinAddr: 0x3004D8, symSize: 0x10 }
  - { offset: 0x817666, size: 0x8, addend: 0x0, symName: __ZZN5realm4util11FunctionRefIFbNS_6ObjKeyEEEC1IZNKS_7LinkMap27get_unary_link_or_not_foundEmEUlS2_E_EEOT_ENUlPvS2_E_8__invokeESA_S2_, symObjAddr: 0xB014, symBinAddr: 0x3004D8, symSize: 0x10 }
  - { offset: 0x81768B, size: 0x8, addend: 0x0, symName: __ZZN5realm4util11FunctionRefIFbNS_6ObjKeyEEEC1IZNKS_7LinkMap27get_unary_link_or_not_foundEmEUlS2_E_EEOT_ENUlPvS2_E_8__invokeESA_S2_, symObjAddr: 0xB014, symBinAddr: 0x3004D8, symSize: 0x10 }
  - { offset: 0x817760, size: 0x8, addend: 0x0, symName: __ZN5realm17ColumnsCollectionIbEC2ENS_6ColKeyENS_13ConstTableRefERKNSt3__16vectorINS_17ExtendedColumnKeyENS4_9allocatorIS6_EEEENS4_8optionalINS_24ExpressionComparisonTypeEEE, symObjAddr: 0x126B0, symBinAddr: 0x305BA8, symSize: 0x9C }
  - { offset: 0x817BC1, size: 0x8, addend: 0x0, symName: __ZN5realm17ColumnsCollectionIbEC2ERKS1_, symObjAddr: 0x142C0, symBinAddr: 0x306C24, symSize: 0xC8 }
  - { offset: 0x817FD0, size: 0x8, addend: 0x0, symName: __ZN5realm7ColumnsINS_3LstIbEEED1Ev, symObjAddr: 0xB4D0, symBinAddr: 0x30087C, symSize: 0xDC }
  - { offset: 0x818CBB, size: 0x8, addend: 0x0, symName: __ZN5realm7CompareINS_4LessEED1Ev, symObjAddr: 0xBC88, symBinAddr: 0x300D88, symSize: 0x70 }
  - { offset: 0x818FBB, size: 0x8, addend: 0x0, symName: __ZN5realm7CompareINS_4LessEED0Ev, symObjAddr: 0xBCF8, symBinAddr: 0x300DF8, symSize: 0x70 }
  - { offset: 0x8192C8, size: 0x8, addend: 0x0, symName: __ZN5realm7CompareINS_4LessEE4initEv, symObjAddr: 0xBD68, symBinAddr: 0x300E68, symSize: 0x54 }
  - { offset: 0x819613, size: 0x8, addend: 0x0, symName: __ZNK5realm7CompareINS_4LessEE10find_firstEmm, symObjAddr: 0xBDBC, symBinAddr: 0x300EBC, symSize: 0x540 }
  - { offset: 0x81A26E, size: 0x8, addend: 0x0, symName: __ZN5realm9ValueBase4sortEv, symObjAddr: 0xC900, symBinAddr: 0x301694, symSize: 0x58 }
  - { offset: 0x81A3F4, size: 0x8, addend: 0x0, symName: __ZNK5realm7CompareINS_4LessEE11descriptionERNS_4util10serializer18SerialisationStateE, symObjAddr: 0xC49C, symBinAddr: 0x3013FC, symSize: 0x238 }
  - { offset: 0x81B517, size: 0x8, addend: 0x0, symName: __ZNK5realm7CompareINS_4LessEE5cloneEv, symObjAddr: 0xC6D4, symBinAddr: 0x301634, symSize: 0x60 }
  - { offset: 0x81BC35, size: 0x8, addend: 0x0, symName: __ZN5realm7CompareINS_9LessEqualEED1Ev, symObjAddr: 0xDBC8, symBinAddr: 0x3027FC, symSize: 0x70 }
  - { offset: 0x81BF35, size: 0x8, addend: 0x0, symName: __ZN5realm7CompareINS_9LessEqualEED0Ev, symObjAddr: 0xDC38, symBinAddr: 0x30286C, symSize: 0x70 }
  - { offset: 0x81C242, size: 0x8, addend: 0x0, symName: __ZN5realm7CompareINS_9LessEqualEE4initEv, symObjAddr: 0xDCA8, symBinAddr: 0x3028DC, symSize: 0x54 }
  - { offset: 0x81C44C, size: 0x8, addend: 0x0, symName: __ZNK5realm7CompareINS_9LessEqualEE10find_firstEmm, symObjAddr: 0xDCFC, symBinAddr: 0x302930, symSize: 0x4F8 }
  - { offset: 0x81CD5A, size: 0x8, addend: 0x0, symName: __ZNK5realm9LessEqualclERKNS_10QueryValueES3_, symObjAddr: 0xE48C, symBinAddr: 0x3030C0, symSize: 0x54 }
  - { offset: 0x81CDEA, size: 0x8, addend: 0x0, symName: __ZNK5realm7CompareINS_9LessEqualEE11descriptionERNS_4util10serializer18SerialisationStateE, symObjAddr: 0xE1F4, symBinAddr: 0x302E28, symSize: 0x238 }
  - { offset: 0x81DF0D, size: 0x8, addend: 0x0, symName: __ZNK5realm7CompareINS_9LessEqualEE5cloneEv, symObjAddr: 0xE42C, symBinAddr: 0x303060, symSize: 0x60 }
  - { offset: 0x81E0C8, size: 0x8, addend: 0x0, symName: __ZN5realm7CompareINS_7GreaterEED1Ev, symObjAddr: 0xE8C0, symBinAddr: 0x3034F4, symSize: 0x70 }
  - { offset: 0x81E3C8, size: 0x8, addend: 0x0, symName: __ZN5realm7CompareINS_7GreaterEED0Ev, symObjAddr: 0xE930, symBinAddr: 0x303564, symSize: 0x70 }
  - { offset: 0x81E6D5, size: 0x8, addend: 0x0, symName: __ZN5realm7CompareINS_7GreaterEE4initEv, symObjAddr: 0xE9A0, symBinAddr: 0x3035D4, symSize: 0x54 }
  - { offset: 0x81E914, size: 0x8, addend: 0x0, symName: __ZNK5realm7CompareINS_7GreaterEE10find_firstEmm, symObjAddr: 0xE9F4, symBinAddr: 0x303628, symSize: 0x548 }
  - { offset: 0x81F2A2, size: 0x8, addend: 0x0, symName: __ZNK5realm7CompareINS_7GreaterEE11descriptionERNS_4util10serializer18SerialisationStateE, symObjAddr: 0xEF3C, symBinAddr: 0x303B70, symSize: 0x238 }
  - { offset: 0x8203C5, size: 0x8, addend: 0x0, symName: __ZNK5realm7CompareINS_7GreaterEE5cloneEv, symObjAddr: 0xF174, symBinAddr: 0x303DA8, symSize: 0x60 }
  - { offset: 0x82057B, size: 0x8, addend: 0x0, symName: __ZN5realm7CompareINS_12GreaterEqualEED1Ev, symObjAddr: 0xF5B4, symBinAddr: 0x3041E8, symSize: 0x70 }
  - { offset: 0x82087B, size: 0x8, addend: 0x0, symName: __ZN5realm7CompareINS_12GreaterEqualEED0Ev, symObjAddr: 0xF624, symBinAddr: 0x304258, symSize: 0x70 }
  - { offset: 0x820B88, size: 0x8, addend: 0x0, symName: __ZN5realm7CompareINS_12GreaterEqualEE4initEv, symObjAddr: 0xF694, symBinAddr: 0x3042C8, symSize: 0x54 }
  - { offset: 0x820D92, size: 0x8, addend: 0x0, symName: __ZNK5realm7CompareINS_12GreaterEqualEE10find_firstEmm, symObjAddr: 0xF6E8, symBinAddr: 0x30431C, symSize: 0x4F8 }
  - { offset: 0x8216A0, size: 0x8, addend: 0x0, symName: __ZNK5realm12GreaterEqualclERKNS_10QueryValueES3_, symObjAddr: 0xFE78, symBinAddr: 0x304AAC, symSize: 0x54 }
  - { offset: 0x821730, size: 0x8, addend: 0x0, symName: __ZNK5realm7CompareINS_12GreaterEqualEE11descriptionERNS_4util10serializer18SerialisationStateE, symObjAddr: 0xFBE0, symBinAddr: 0x304814, symSize: 0x238 }
  - { offset: 0x822853, size: 0x8, addend: 0x0, symName: __ZNK5realm7CompareINS_12GreaterEqualEE5cloneEv, symObjAddr: 0xFE18, symBinAddr: 0x304A4C, symSize: 0x60 }
  - { offset: 0x822DFC, size: 0x8, addend: 0x0, symName: __ZN5realm14ColumnListBaseC2ENS_6ColKeyENS_13ConstTableRefERKNSt3__16vectorINS_17ExtendedColumnKeyENS3_9allocatorIS5_EEEENS3_8optionalINS_24ExpressionComparisonTypeEEE, symObjAddr: 0x13188, symBinAddr: 0x306680, symSize: 0xCC }
  - { offset: 0x82315D, size: 0x8, addend: 0x0, symName: __ZN5realm7ColumnsINS_3LstIbEEED0Ev, symObjAddr: 0x1274C, symBinAddr: 0x305C44, symSize: 0xDC }
  - { offset: 0x823A00, size: 0x8, addend: 0x0, symName: __ZNK5realm7ColumnsINS_3LstIbEEE5cloneEv, symObjAddr: 0x12828, symBinAddr: 0x305D20, symSize: 0x64 }
  - { offset: 0x823B41, size: 0x8, addend: 0x0, symName: __ZN5realm17ColumnsCollectionIbE14set_base_tableENS_13ConstTableRefE, symObjAddr: 0x1288C, symBinAddr: 0x305D84, symSize: 0x8 }
  - { offset: 0x823E12, size: 0x8, addend: 0x0, symName: __ZNK5realm17ColumnsCollectionIbE11descriptionERNS_4util10serializer18SerialisationStateE, symObjAddr: 0x12894, symBinAddr: 0x305D8C, symSize: 0x25C }
  - { offset: 0x82510D, size: 0x8, addend: 0x0, symName: __ZN5realm17ColumnsCollectionIbE11set_clusterEPKNS_7ClusterE, symObjAddr: 0x12AF0, symBinAddr: 0x305FE8, symSize: 0x8 }
  - { offset: 0x825143, size: 0x8, addend: 0x0, symName: __ZNK5realm17ColumnsCollectionIbE14get_base_tableEv, symObjAddr: 0x12AF8, symBinAddr: 0x305FF0, symSize: 0x20 }
  - { offset: 0x82516D, size: 0x8, addend: 0x0, symName: __ZNK5realm17ColumnsCollectionIbE14get_base_tableEv, symObjAddr: 0x12AF8, symBinAddr: 0x305FF0, symSize: 0x20 }
  - { offset: 0x82518D, size: 0x8, addend: 0x0, symName: __ZNK5realm17ColumnsCollectionIbE14get_base_tableEv, symObjAddr: 0x12AF8, symBinAddr: 0x305FF0, symSize: 0x20 }
  - { offset: 0x8251AD, size: 0x8, addend: 0x0, symName: __ZNK5realm17ColumnsCollectionIbE20collect_dependenciesERNSt3__16vectorINS_8TableKeyENS2_9allocatorIS4_EEEE, symObjAddr: 0x12B18, symBinAddr: 0x306010, symSize: 0x8 }
  - { offset: 0x8251E3, size: 0x8, addend: 0x0, symName: __ZNK5realm17ColumnsCollectionIbE19has_multiple_valuesEv, symObjAddr: 0x12B20, symBinAddr: 0x306018, symSize: 0x8 }
  - { offset: 0x825206, size: 0x8, addend: 0x0, symName: __ZNK5realm17ColumnsCollectionIbE16get_target_tableEv, symObjAddr: 0x12B28, symBinAddr: 0x306020, symSize: 0x44 }
  - { offset: 0x82523A, size: 0x8, addend: 0x0, symName: __ZNK5realm8Subexpr2IbE8get_typeEv, symObjAddr: 0x12B6C, symBinAddr: 0x306064, symSize: 0x8 }
  - { offset: 0x8258D4, size: 0x8, addend: 0x0, symName: __ZN5realm17ColumnsCollectionIbE8evaluateERNS_7Subexpr5IndexERNS_9ValueBaseE, symObjAddr: 0x12B74, symBinAddr: 0x30606C, symSize: 0x554 }
  - { offset: 0x8266A4, size: 0x8, addend: 0x0, symName: __ZN5realm13BPlusTreeBase13init_from_refEm, symObjAddr: 0x14474, symBinAddr: 0x306CEC, symSize: 0xBC }
  - { offset: 0x826954, size: 0x8, addend: 0x0, symName: __ZNK5realm13ArrayBoolNull3getEm, symObjAddr: 0x14DA0, symBinAddr: 0x306DDC, symSize: 0x40 }
  - { offset: 0x8269C9, size: 0x8, addend: 0x0, symName: __ZNK5realm9ArrayBool3getEm, symObjAddr: 0x14D6C, symBinAddr: 0x306DA8, symSize: 0x34 }
  - { offset: 0x826A2E, size: 0x8, addend: 0x0, symName: __ZNK5realm17ColumnsCollectionIbE19get_comparison_typeEv, symObjAddr: 0x130C8, symBinAddr: 0x3065C0, symSize: 0x8 }
  - { offset: 0x826B51, size: 0x8, addend: 0x0, symName: __ZN5realm17ColumnsCollectionIbE6max_ofEv, symObjAddr: 0x130D0, symBinAddr: 0x3065C8, symSize: 0x8 }
  - { offset: 0x826B73, size: 0x8, addend: 0x0, symName: __ZN5realm17ColumnsCollectionIbE6max_ofEv, symObjAddr: 0x130D0, symBinAddr: 0x3065C8, symSize: 0x8 }
  - { offset: 0x826B91, size: 0x8, addend: 0x0, symName: __ZN5realm17ColumnsCollectionIbE6max_ofEv, symObjAddr: 0x130D0, symBinAddr: 0x3065C8, symSize: 0x8 }
  - { offset: 0x826BAE, size: 0x8, addend: 0x0, symName: __ZN5realm17ColumnsCollectionIbE6max_ofEv, symObjAddr: 0x130D0, symBinAddr: 0x3065C8, symSize: 0x8 }
  - { offset: 0x826BCB, size: 0x8, addend: 0x0, symName: __ZN5realm17ColumnsCollectionIbE6max_ofEv, symObjAddr: 0x130D0, symBinAddr: 0x3065C8, symSize: 0x8 }
  - { offset: 0x826BE8, size: 0x8, addend: 0x0, symName: __ZN5realm17ColumnsCollectionIbE6max_ofEv, symObjAddr: 0x130D0, symBinAddr: 0x3065C8, symSize: 0x8 }
  - { offset: 0x826C07, size: 0x8, addend: 0x0, symName: __ZN5realm17ColumnsCollectionIbE6min_ofEv, symObjAddr: 0x130D8, symBinAddr: 0x3065D0, symSize: 0x8 }
  - { offset: 0x826C29, size: 0x8, addend: 0x0, symName: __ZN5realm17ColumnsCollectionIbE6min_ofEv, symObjAddr: 0x130D8, symBinAddr: 0x3065D0, symSize: 0x8 }
  - { offset: 0x826C47, size: 0x8, addend: 0x0, symName: __ZN5realm17ColumnsCollectionIbE6min_ofEv, symObjAddr: 0x130D8, symBinAddr: 0x3065D0, symSize: 0x8 }
  - { offset: 0x826C64, size: 0x8, addend: 0x0, symName: __ZN5realm17ColumnsCollectionIbE6min_ofEv, symObjAddr: 0x130D8, symBinAddr: 0x3065D0, symSize: 0x8 }
  - { offset: 0x826C81, size: 0x8, addend: 0x0, symName: __ZN5realm17ColumnsCollectionIbE6min_ofEv, symObjAddr: 0x130D8, symBinAddr: 0x3065D0, symSize: 0x8 }
  - { offset: 0x826C9E, size: 0x8, addend: 0x0, symName: __ZN5realm17ColumnsCollectionIbE6min_ofEv, symObjAddr: 0x130D8, symBinAddr: 0x3065D0, symSize: 0x8 }
  - { offset: 0x826CBD, size: 0x8, addend: 0x0, symName: __ZN5realm17ColumnsCollectionIbE6sum_ofEv, symObjAddr: 0x130E0, symBinAddr: 0x3065D8, symSize: 0x8 }
  - { offset: 0x826CDF, size: 0x8, addend: 0x0, symName: __ZN5realm17ColumnsCollectionIbE6sum_ofEv, symObjAddr: 0x130E0, symBinAddr: 0x3065D8, symSize: 0x8 }
  - { offset: 0x826CFD, size: 0x8, addend: 0x0, symName: __ZN5realm17ColumnsCollectionIbE6sum_ofEv, symObjAddr: 0x130E0, symBinAddr: 0x3065D8, symSize: 0x8 }
  - { offset: 0x826D1A, size: 0x8, addend: 0x0, symName: __ZN5realm17ColumnsCollectionIbE6sum_ofEv, symObjAddr: 0x130E0, symBinAddr: 0x3065D8, symSize: 0x8 }
  - { offset: 0x826D37, size: 0x8, addend: 0x0, symName: __ZN5realm17ColumnsCollectionIbE6sum_ofEv, symObjAddr: 0x130E0, symBinAddr: 0x3065D8, symSize: 0x8 }
  - { offset: 0x826D54, size: 0x8, addend: 0x0, symName: __ZN5realm17ColumnsCollectionIbE6sum_ofEv, symObjAddr: 0x130E0, symBinAddr: 0x3065D8, symSize: 0x8 }
  - { offset: 0x826D73, size: 0x8, addend: 0x0, symName: __ZN5realm17ColumnsCollectionIbE6avg_ofEv, symObjAddr: 0x130E8, symBinAddr: 0x3065E0, symSize: 0x8 }
  - { offset: 0x826D95, size: 0x8, addend: 0x0, symName: __ZN5realm17ColumnsCollectionIbE6avg_ofEv, symObjAddr: 0x130E8, symBinAddr: 0x3065E0, symSize: 0x8 }
  - { offset: 0x826DB3, size: 0x8, addend: 0x0, symName: __ZN5realm17ColumnsCollectionIbE6avg_ofEv, symObjAddr: 0x130E8, symBinAddr: 0x3065E0, symSize: 0x8 }
  - { offset: 0x826DD0, size: 0x8, addend: 0x0, symName: __ZN5realm17ColumnsCollectionIbE6avg_ofEv, symObjAddr: 0x130E8, symBinAddr: 0x3065E0, symSize: 0x8 }
  - { offset: 0x826DED, size: 0x8, addend: 0x0, symName: __ZN5realm17ColumnsCollectionIbE6avg_ofEv, symObjAddr: 0x130E8, symBinAddr: 0x3065E0, symSize: 0x8 }
  - { offset: 0x826E0A, size: 0x8, addend: 0x0, symName: __ZN5realm17ColumnsCollectionIbE6avg_ofEv, symObjAddr: 0x130E8, symBinAddr: 0x3065E0, symSize: 0x8 }
  - { offset: 0x826E29, size: 0x8, addend: 0x0, symName: __ZN5realm17ColumnsCollectionIbE18get_element_lengthEv, symObjAddr: 0x130F0, symBinAddr: 0x3065E8, symSize: 0x8 }
  - { offset: 0x826E4B, size: 0x8, addend: 0x0, symName: __ZN5realm17ColumnsCollectionIbE18get_element_lengthEv, symObjAddr: 0x130F0, symBinAddr: 0x3065E8, symSize: 0x8 }
  - { offset: 0x826E69, size: 0x8, addend: 0x0, symName: __ZN5realm17ColumnsCollectionIbE18get_element_lengthEv, symObjAddr: 0x130F0, symBinAddr: 0x3065E8, symSize: 0x8 }
  - { offset: 0x826E86, size: 0x8, addend: 0x0, symName: __ZN5realm17ColumnsCollectionIbE18get_element_lengthEv, symObjAddr: 0x130F0, symBinAddr: 0x3065E8, symSize: 0x8 }
  - { offset: 0x826EA3, size: 0x8, addend: 0x0, symName: __ZN5realm17ColumnsCollectionIbE18get_element_lengthEv, symObjAddr: 0x130F0, symBinAddr: 0x3065E8, symSize: 0x8 }
  - { offset: 0x826EC0, size: 0x8, addend: 0x0, symName: __ZN5realm17ColumnsCollectionIbE18get_element_lengthEv, symObjAddr: 0x130F0, symBinAddr: 0x3065E8, symSize: 0x8 }
  - { offset: 0x826F0B, size: 0x8, addend: 0x0, symName: __ZN5realm17ColumnsCollectionIbE5indexERKNS_11PathElementE, symObjAddr: 0x130F8, symBinAddr: 0x3065F0, symSize: 0x30 }
  - { offset: 0x826F39, size: 0x8, addend: 0x0, symName: __ZN5realm17ColumnsCollectionIbE5indexERKNS_11PathElementE, symObjAddr: 0x130F8, symBinAddr: 0x3065F0, symSize: 0x30 }
  - { offset: 0x826F8A, size: 0x8, addend: 0x0, symName: __ZThn8_N5realm17ColumnsCollectionIbE4sizeEv, symObjAddr: 0x13128, symBinAddr: 0x306620, symSize: 0x8 }
  - { offset: 0x826FC6, size: 0x8, addend: 0x0, symName: __ZThn8_N5realm17ColumnsCollectionIbE18get_element_lengthEv, symObjAddr: 0x13130, symBinAddr: 0x306628, symSize: 0x8 }
  - { offset: 0x826FE1, size: 0x8, addend: 0x0, symName: __ZThn8_N5realm17ColumnsCollectionIbE18get_element_lengthEv, symObjAddr: 0x13130, symBinAddr: 0x306628, symSize: 0x8 }
  - { offset: 0x826FF5, size: 0x8, addend: 0x0, symName: __ZThn8_N5realm17ColumnsCollectionIbE18get_element_lengthEv, symObjAddr: 0x13130, symBinAddr: 0x306628, symSize: 0x8 }
  - { offset: 0x827013, size: 0x8, addend: 0x0, symName: __ZThn8_N5realm17ColumnsCollectionIbE18get_element_lengthEv, symObjAddr: 0x13130, symBinAddr: 0x306628, symSize: 0x8 }
  - { offset: 0x827030, size: 0x8, addend: 0x0, symName: __ZThn8_N5realm17ColumnsCollectionIbE18get_element_lengthEv, symObjAddr: 0x13130, symBinAddr: 0x306628, symSize: 0x8 }
  - { offset: 0x82704D, size: 0x8, addend: 0x0, symName: __ZThn8_N5realm17ColumnsCollectionIbE18get_element_lengthEv, symObjAddr: 0x13130, symBinAddr: 0x306628, symSize: 0x8 }
  - { offset: 0x82706A, size: 0x8, addend: 0x0, symName: __ZThn8_N5realm17ColumnsCollectionIbE18get_element_lengthEv, symObjAddr: 0x13130, symBinAddr: 0x306628, symSize: 0x8 }
  - { offset: 0x8270A0, size: 0x8, addend: 0x0, symName: __ZThn8_N5realm17ColumnsCollectionIbE6max_ofEv, symObjAddr: 0x13138, symBinAddr: 0x306630, symSize: 0x8 }
  - { offset: 0x8270BB, size: 0x8, addend: 0x0, symName: __ZThn8_N5realm17ColumnsCollectionIbE6max_ofEv, symObjAddr: 0x13138, symBinAddr: 0x306630, symSize: 0x8 }
  - { offset: 0x8270CF, size: 0x8, addend: 0x0, symName: __ZThn8_N5realm17ColumnsCollectionIbE6max_ofEv, symObjAddr: 0x13138, symBinAddr: 0x306630, symSize: 0x8 }
  - { offset: 0x8270ED, size: 0x8, addend: 0x0, symName: __ZThn8_N5realm17ColumnsCollectionIbE6max_ofEv, symObjAddr: 0x13138, symBinAddr: 0x306630, symSize: 0x8 }
  - { offset: 0x82710A, size: 0x8, addend: 0x0, symName: __ZThn8_N5realm17ColumnsCollectionIbE6max_ofEv, symObjAddr: 0x13138, symBinAddr: 0x306630, symSize: 0x8 }
  - { offset: 0x827127, size: 0x8, addend: 0x0, symName: __ZThn8_N5realm17ColumnsCollectionIbE6max_ofEv, symObjAddr: 0x13138, symBinAddr: 0x306630, symSize: 0x8 }
  - { offset: 0x827144, size: 0x8, addend: 0x0, symName: __ZThn8_N5realm17ColumnsCollectionIbE6max_ofEv, symObjAddr: 0x13138, symBinAddr: 0x306630, symSize: 0x8 }
  - { offset: 0x82717A, size: 0x8, addend: 0x0, symName: __ZThn8_N5realm17ColumnsCollectionIbE6min_ofEv, symObjAddr: 0x13140, symBinAddr: 0x306638, symSize: 0x8 }
  - { offset: 0x827195, size: 0x8, addend: 0x0, symName: __ZThn8_N5realm17ColumnsCollectionIbE6min_ofEv, symObjAddr: 0x13140, symBinAddr: 0x306638, symSize: 0x8 }
  - { offset: 0x8271A9, size: 0x8, addend: 0x0, symName: __ZThn8_N5realm17ColumnsCollectionIbE6min_ofEv, symObjAddr: 0x13140, symBinAddr: 0x306638, symSize: 0x8 }
  - { offset: 0x8271C7, size: 0x8, addend: 0x0, symName: __ZThn8_N5realm17ColumnsCollectionIbE6min_ofEv, symObjAddr: 0x13140, symBinAddr: 0x306638, symSize: 0x8 }
  - { offset: 0x8271E4, size: 0x8, addend: 0x0, symName: __ZThn8_N5realm17ColumnsCollectionIbE6min_ofEv, symObjAddr: 0x13140, symBinAddr: 0x306638, symSize: 0x8 }
  - { offset: 0x827201, size: 0x8, addend: 0x0, symName: __ZThn8_N5realm17ColumnsCollectionIbE6min_ofEv, symObjAddr: 0x13140, symBinAddr: 0x306638, symSize: 0x8 }
  - { offset: 0x82721E, size: 0x8, addend: 0x0, symName: __ZThn8_N5realm17ColumnsCollectionIbE6min_ofEv, symObjAddr: 0x13140, symBinAddr: 0x306638, symSize: 0x8 }
  - { offset: 0x827254, size: 0x8, addend: 0x0, symName: __ZThn8_N5realm17ColumnsCollectionIbE6sum_ofEv, symObjAddr: 0x13148, symBinAddr: 0x306640, symSize: 0x8 }
  - { offset: 0x82726F, size: 0x8, addend: 0x0, symName: __ZThn8_N5realm17ColumnsCollectionIbE6sum_ofEv, symObjAddr: 0x13148, symBinAddr: 0x306640, symSize: 0x8 }
  - { offset: 0x827283, size: 0x8, addend: 0x0, symName: __ZThn8_N5realm17ColumnsCollectionIbE6sum_ofEv, symObjAddr: 0x13148, symBinAddr: 0x306640, symSize: 0x8 }
  - { offset: 0x8272A1, size: 0x8, addend: 0x0, symName: __ZThn8_N5realm17ColumnsCollectionIbE6sum_ofEv, symObjAddr: 0x13148, symBinAddr: 0x306640, symSize: 0x8 }
  - { offset: 0x8272BE, size: 0x8, addend: 0x0, symName: __ZThn8_N5realm17ColumnsCollectionIbE6sum_ofEv, symObjAddr: 0x13148, symBinAddr: 0x306640, symSize: 0x8 }
  - { offset: 0x8272DB, size: 0x8, addend: 0x0, symName: __ZThn8_N5realm17ColumnsCollectionIbE6sum_ofEv, symObjAddr: 0x13148, symBinAddr: 0x306640, symSize: 0x8 }
  - { offset: 0x8272F8, size: 0x8, addend: 0x0, symName: __ZThn8_N5realm17ColumnsCollectionIbE6sum_ofEv, symObjAddr: 0x13148, symBinAddr: 0x306640, symSize: 0x8 }
  - { offset: 0x82732E, size: 0x8, addend: 0x0, symName: __ZThn8_N5realm17ColumnsCollectionIbE6avg_ofEv, symObjAddr: 0x13150, symBinAddr: 0x306648, symSize: 0x8 }
  - { offset: 0x827349, size: 0x8, addend: 0x0, symName: __ZThn8_N5realm17ColumnsCollectionIbE6avg_ofEv, symObjAddr: 0x13150, symBinAddr: 0x306648, symSize: 0x8 }
  - { offset: 0x82735D, size: 0x8, addend: 0x0, symName: __ZThn8_N5realm17ColumnsCollectionIbE6avg_ofEv, symObjAddr: 0x13150, symBinAddr: 0x306648, symSize: 0x8 }
  - { offset: 0x82737B, size: 0x8, addend: 0x0, symName: __ZThn8_N5realm17ColumnsCollectionIbE6avg_ofEv, symObjAddr: 0x13150, symBinAddr: 0x306648, symSize: 0x8 }
  - { offset: 0x827398, size: 0x8, addend: 0x0, symName: __ZThn8_N5realm17ColumnsCollectionIbE6avg_ofEv, symObjAddr: 0x13150, symBinAddr: 0x306648, symSize: 0x8 }
  - { offset: 0x8273B5, size: 0x8, addend: 0x0, symName: __ZThn8_N5realm17ColumnsCollectionIbE6avg_ofEv, symObjAddr: 0x13150, symBinAddr: 0x306648, symSize: 0x8 }
  - { offset: 0x8273D2, size: 0x8, addend: 0x0, symName: __ZThn8_N5realm17ColumnsCollectionIbE6avg_ofEv, symObjAddr: 0x13150, symBinAddr: 0x306648, symSize: 0x8 }
  - { offset: 0x827415, size: 0x8, addend: 0x0, symName: __ZThn8_N5realm17ColumnsCollectionIbE5indexERKNS_11PathElementE, symObjAddr: 0x13158, symBinAddr: 0x306650, symSize: 0x30 }
  - { offset: 0x82744E, size: 0x8, addend: 0x0, symName: __ZThn8_N5realm17ColumnsCollectionIbE5indexERKNS_11PathElementE, symObjAddr: 0x13158, symBinAddr: 0x306650, symSize: 0x30 }
  - { offset: 0x827573, size: 0x8, addend: 0x0, symName: __ZN5realm17ColumnsCollectionIbED1Ev, symObjAddr: 0x13254, symBinAddr: 0x30674C, symSize: 0xDC }
  - { offset: 0x827DA6, size: 0x8, addend: 0x0, symName: __ZN5realm17ColumnsCollectionIbED0Ev, symObjAddr: 0x13330, symBinAddr: 0x306828, symSize: 0xDC }
  - { offset: 0x82860D, size: 0x8, addend: 0x0, symName: __ZNK5realm17ColumnsCollectionIbE5cloneEv, symObjAddr: 0x1340C, symBinAddr: 0x306904, symSize: 0x54 }
  - { offset: 0x82870F, size: 0x8, addend: 0x0, symName: __ZN5realm8Subexpr2IbED1Ev, symObjAddr: 0x13460, symBinAddr: 0x306958, symSize: 0x4 }
  - { offset: 0x828739, size: 0x8, addend: 0x0, symName: __ZN5realm8Subexpr2IbED0Ev, symObjAddr: 0x13464, symBinAddr: 0x30695C, symSize: 0x4 }
  - { offset: 0x828786, size: 0x8, addend: 0x0, symName: __ZN5realm9ValueBaseaSERKS0_, symObjAddr: 0x13784, symBinAddr: 0x306960, symSize: 0x78 }
  - { offset: 0x828AEF, size: 0x8, addend: 0x0, symName: __ZNSt3__118basic_stringstreamIcNS_11char_traitsIcEENS_9allocatorIcEEEC1B8ne180100Ev, symObjAddr: 0x13944, symBinAddr: 0x3069D8, symSize: 0xE8 }
  - { offset: 0x828BD0, size: 0x8, addend: 0x0, symName: __ZNKSt3__115basic_stringbufIcNS_11char_traitsIcEENS_9allocatorIcEEE3strB8ne180100IS4_EENS_12basic_stringIcS2_T_EERKS8_, symObjAddr: 0x1415C, symBinAddr: 0x306AC0, symSize: 0xD8 }
  - { offset: 0x829BA4, size: 0x8, addend: 0x0, symName: __ZN5realm14ColumnListSizeIbED1Ev, symObjAddr: 0x15594, symBinAddr: 0x306E1C, symSize: 0xDC }
  - { offset: 0x82A3F6, size: 0x8, addend: 0x0, symName: __ZN5realm14ColumnListSizeIbED0Ev, symObjAddr: 0x15670, symBinAddr: 0x306EF8, symSize: 0xDC }
  - { offset: 0x82AC9F, size: 0x8, addend: 0x0, symName: __ZNK5realm14ColumnListSizeIbE5cloneEv, symObjAddr: 0x1574C, symBinAddr: 0x306FD4, symSize: 0x64 }
  - { offset: 0x82AF24, size: 0x8, addend: 0x0, symName: __ZN5realm14ColumnListSizeIbE8evaluateERNS_7Subexpr5IndexERNS_9ValueBaseE, symObjAddr: 0x157B0, symBinAddr: 0x307038, symSize: 0x480 }
  - { offset: 0x82BE67, size: 0x8, addend: 0x0, symName: __ZN5realm7ColumnsINS_3SetIbEEED1Ev, symObjAddr: 0x16150, symBinAddr: 0x30768C, symSize: 0xDC }
  - { offset: 0x82C6B6, size: 0x8, addend: 0x0, symName: __ZN5realm7ColumnsINS_3SetIbEEED0Ev, symObjAddr: 0x1622C, symBinAddr: 0x307768, symSize: 0xDC }
  - { offset: 0x82CF59, size: 0x8, addend: 0x0, symName: __ZNK5realm7ColumnsINS_3SetIbEEE5cloneEv, symObjAddr: 0x16308, symBinAddr: 0x307844, symSize: 0x64 }
  - { offset: 0x82D09A, size: 0x8, addend: 0x0, symName: __ZN5realm7ColumnsINS_3SetIbEEE5indexERKNS_11PathElementE, symObjAddr: 0x1636C, symBinAddr: 0x3078A8, symSize: 0x8 }
  - { offset: 0x82D0C6, size: 0x8, addend: 0x0, symName: __ZThn8_N5realm7ColumnsINS_3SetIbEEE5indexERKNS_11PathElementE, symObjAddr: 0x16374, symBinAddr: 0x3078B0, symSize: 0x8 }
  - { offset: 0x82D1AB, size: 0x8, addend: 0x0, symName: __ZN5realm17ColumnsCollectionINS_8ObjectIdEEC2ENS_6ColKeyENS_13ConstTableRefERKNSt3__16vectorINS_17ExtendedColumnKeyENS5_9allocatorIS7_EEEENS5_8optionalINS_24ExpressionComparisonTypeEEE, symObjAddr: 0x167E8, symBinAddr: 0x307D24, symSize: 0x9C }
  - { offset: 0x82D5BE, size: 0x8, addend: 0x0, symName: __ZN5realm17ColumnsCollectionINS_8ObjectIdEEC2ERKS2_, symObjAddr: 0x17594, symBinAddr: 0x308AD0, symSize: 0xC8 }
  - { offset: 0x82D9CD, size: 0x8, addend: 0x0, symName: __ZN5realm7ColumnsINS_3LstINS_8ObjectIdEEEED1Ev, symObjAddr: 0x1670C, symBinAddr: 0x307C48, symSize: 0xDC }
  - { offset: 0x82E243, size: 0x8, addend: 0x0, symName: __ZN5realm7ColumnsINS_3LstINS_8ObjectIdEEEED0Ev, symObjAddr: 0x16884, symBinAddr: 0x307DC0, symSize: 0xDC }
  - { offset: 0x82EAE6, size: 0x8, addend: 0x0, symName: __ZNK5realm7ColumnsINS_3LstINS_8ObjectIdEEEE5cloneEv, symObjAddr: 0x16960, symBinAddr: 0x307E9C, symSize: 0x64 }
  - { offset: 0x82EC27, size: 0x8, addend: 0x0, symName: __ZN5realm17ColumnsCollectionINS_8ObjectIdEE14set_base_tableENS_13ConstTableRefE, symObjAddr: 0x169C4, symBinAddr: 0x307F00, symSize: 0x8 }
  - { offset: 0x82EC5B, size: 0x8, addend: 0x0, symName: __ZNK5realm17ColumnsCollectionINS_8ObjectIdEE11descriptionERNS_4util10serializer18SerialisationStateE, symObjAddr: 0x169CC, symBinAddr: 0x307F08, symSize: 0x25C }
  - { offset: 0x82FBF9, size: 0x8, addend: 0x0, symName: __ZN5realm17ColumnsCollectionINS_8ObjectIdEE11set_clusterEPKNS_7ClusterE, symObjAddr: 0x16C28, symBinAddr: 0x308164, symSize: 0x8 }
  - { offset: 0x82FC2F, size: 0x8, addend: 0x0, symName: __ZNK5realm17ColumnsCollectionINS_8ObjectIdEE14get_base_tableEv, symObjAddr: 0x16C30, symBinAddr: 0x30816C, symSize: 0x20 }
  - { offset: 0x82FC59, size: 0x8, addend: 0x0, symName: __ZNK5realm17ColumnsCollectionINS_8ObjectIdEE14get_base_tableEv, symObjAddr: 0x16C30, symBinAddr: 0x30816C, symSize: 0x20 }
  - { offset: 0x82FC79, size: 0x8, addend: 0x0, symName: __ZNK5realm17ColumnsCollectionINS_8ObjectIdEE14get_base_tableEv, symObjAddr: 0x16C30, symBinAddr: 0x30816C, symSize: 0x20 }
  - { offset: 0x82FC99, size: 0x8, addend: 0x0, symName: __ZNK5realm17ColumnsCollectionINS_8ObjectIdEE20collect_dependenciesERNSt3__16vectorINS_8TableKeyENS3_9allocatorIS5_EEEE, symObjAddr: 0x16C50, symBinAddr: 0x30818C, symSize: 0x8 }
  - { offset: 0x82FCCF, size: 0x8, addend: 0x0, symName: __ZNK5realm17ColumnsCollectionINS_8ObjectIdEE19has_multiple_valuesEv, symObjAddr: 0x16C58, symBinAddr: 0x308194, symSize: 0x8 }
  - { offset: 0x82FCF2, size: 0x8, addend: 0x0, symName: __ZNK5realm17ColumnsCollectionINS_8ObjectIdEE16get_target_tableEv, symObjAddr: 0x16C60, symBinAddr: 0x30819C, symSize: 0x44 }
  - { offset: 0x82FD26, size: 0x8, addend: 0x0, symName: __ZNK5realm8Subexpr2INS_8ObjectIdEE8get_typeEv, symObjAddr: 0x16CA4, symBinAddr: 0x3081E0, symSize: 0x8 }
  - { offset: 0x8303B3, size: 0x8, addend: 0x0, symName: __ZN5realm17ColumnsCollectionINS_8ObjectIdEE8evaluateERNS_7Subexpr5IndexERNS_9ValueBaseE, symObjAddr: 0x16CAC, symBinAddr: 0x3081E8, symSize: 0x614 }
  - { offset: 0x83171A, size: 0x8, addend: 0x0, symName: __ZNK5realm17ColumnsCollectionINS_8ObjectIdEE19get_comparison_typeEv, symObjAddr: 0x172C0, symBinAddr: 0x3087FC, symSize: 0x8 }
  - { offset: 0x831741, size: 0x8, addend: 0x0, symName: __ZN5realm17ColumnsCollectionINS_8ObjectIdEE6max_ofEv, symObjAddr: 0x172C8, symBinAddr: 0x308804, symSize: 0x8 }
  - { offset: 0x831763, size: 0x8, addend: 0x0, symName: __ZN5realm17ColumnsCollectionINS_8ObjectIdEE6max_ofEv, symObjAddr: 0x172C8, symBinAddr: 0x308804, symSize: 0x8 }
  - { offset: 0x831781, size: 0x8, addend: 0x0, symName: __ZN5realm17ColumnsCollectionINS_8ObjectIdEE6max_ofEv, symObjAddr: 0x172C8, symBinAddr: 0x308804, symSize: 0x8 }
  - { offset: 0x83179E, size: 0x8, addend: 0x0, symName: __ZN5realm17ColumnsCollectionINS_8ObjectIdEE6max_ofEv, symObjAddr: 0x172C8, symBinAddr: 0x308804, symSize: 0x8 }
  - { offset: 0x8317BB, size: 0x8, addend: 0x0, symName: __ZN5realm17ColumnsCollectionINS_8ObjectIdEE6max_ofEv, symObjAddr: 0x172C8, symBinAddr: 0x308804, symSize: 0x8 }
  - { offset: 0x8317D8, size: 0x8, addend: 0x0, symName: __ZN5realm17ColumnsCollectionINS_8ObjectIdEE6max_ofEv, symObjAddr: 0x172C8, symBinAddr: 0x308804, symSize: 0x8 }
  - { offset: 0x8317F7, size: 0x8, addend: 0x0, symName: __ZN5realm17ColumnsCollectionINS_8ObjectIdEE6min_ofEv, symObjAddr: 0x172D0, symBinAddr: 0x30880C, symSize: 0x8 }
  - { offset: 0x831819, size: 0x8, addend: 0x0, symName: __ZN5realm17ColumnsCollectionINS_8ObjectIdEE6min_ofEv, symObjAddr: 0x172D0, symBinAddr: 0x30880C, symSize: 0x8 }
  - { offset: 0x831837, size: 0x8, addend: 0x0, symName: __ZN5realm17ColumnsCollectionINS_8ObjectIdEE6min_ofEv, symObjAddr: 0x172D0, symBinAddr: 0x30880C, symSize: 0x8 }
  - { offset: 0x831854, size: 0x8, addend: 0x0, symName: __ZN5realm17ColumnsCollectionINS_8ObjectIdEE6min_ofEv, symObjAddr: 0x172D0, symBinAddr: 0x30880C, symSize: 0x8 }
  - { offset: 0x831871, size: 0x8, addend: 0x0, symName: __ZN5realm17ColumnsCollectionINS_8ObjectIdEE6min_ofEv, symObjAddr: 0x172D0, symBinAddr: 0x30880C, symSize: 0x8 }
  - { offset: 0x83188E, size: 0x8, addend: 0x0, symName: __ZN5realm17ColumnsCollectionINS_8ObjectIdEE6min_ofEv, symObjAddr: 0x172D0, symBinAddr: 0x30880C, symSize: 0x8 }
  - { offset: 0x8318AD, size: 0x8, addend: 0x0, symName: __ZN5realm17ColumnsCollectionINS_8ObjectIdEE6sum_ofEv, symObjAddr: 0x172D8, symBinAddr: 0x308814, symSize: 0x8 }
  - { offset: 0x8318CF, size: 0x8, addend: 0x0, symName: __ZN5realm17ColumnsCollectionINS_8ObjectIdEE6sum_ofEv, symObjAddr: 0x172D8, symBinAddr: 0x308814, symSize: 0x8 }
  - { offset: 0x8318ED, size: 0x8, addend: 0x0, symName: __ZN5realm17ColumnsCollectionINS_8ObjectIdEE6sum_ofEv, symObjAddr: 0x172D8, symBinAddr: 0x308814, symSize: 0x8 }
  - { offset: 0x83190A, size: 0x8, addend: 0x0, symName: __ZN5realm17ColumnsCollectionINS_8ObjectIdEE6sum_ofEv, symObjAddr: 0x172D8, symBinAddr: 0x308814, symSize: 0x8 }
  - { offset: 0x831927, size: 0x8, addend: 0x0, symName: __ZN5realm17ColumnsCollectionINS_8ObjectIdEE6sum_ofEv, symObjAddr: 0x172D8, symBinAddr: 0x308814, symSize: 0x8 }
  - { offset: 0x831944, size: 0x8, addend: 0x0, symName: __ZN5realm17ColumnsCollectionINS_8ObjectIdEE6sum_ofEv, symObjAddr: 0x172D8, symBinAddr: 0x308814, symSize: 0x8 }
  - { offset: 0x831963, size: 0x8, addend: 0x0, symName: __ZN5realm17ColumnsCollectionINS_8ObjectIdEE6avg_ofEv, symObjAddr: 0x172E0, symBinAddr: 0x30881C, symSize: 0x8 }
  - { offset: 0x831985, size: 0x8, addend: 0x0, symName: __ZN5realm17ColumnsCollectionINS_8ObjectIdEE6avg_ofEv, symObjAddr: 0x172E0, symBinAddr: 0x30881C, symSize: 0x8 }
  - { offset: 0x8319A3, size: 0x8, addend: 0x0, symName: __ZN5realm17ColumnsCollectionINS_8ObjectIdEE6avg_ofEv, symObjAddr: 0x172E0, symBinAddr: 0x30881C, symSize: 0x8 }
  - { offset: 0x8319C0, size: 0x8, addend: 0x0, symName: __ZN5realm17ColumnsCollectionINS_8ObjectIdEE6avg_ofEv, symObjAddr: 0x172E0, symBinAddr: 0x30881C, symSize: 0x8 }
  - { offset: 0x8319DD, size: 0x8, addend: 0x0, symName: __ZN5realm17ColumnsCollectionINS_8ObjectIdEE6avg_ofEv, symObjAddr: 0x172E0, symBinAddr: 0x30881C, symSize: 0x8 }
  - { offset: 0x8319FA, size: 0x8, addend: 0x0, symName: __ZN5realm17ColumnsCollectionINS_8ObjectIdEE6avg_ofEv, symObjAddr: 0x172E0, symBinAddr: 0x30881C, symSize: 0x8 }
  - { offset: 0x831A19, size: 0x8, addend: 0x0, symName: __ZN5realm17ColumnsCollectionINS_8ObjectIdEE18get_element_lengthEv, symObjAddr: 0x172E8, symBinAddr: 0x308824, symSize: 0x8 }
  - { offset: 0x831A3B, size: 0x8, addend: 0x0, symName: __ZN5realm17ColumnsCollectionINS_8ObjectIdEE18get_element_lengthEv, symObjAddr: 0x172E8, symBinAddr: 0x308824, symSize: 0x8 }
  - { offset: 0x831A59, size: 0x8, addend: 0x0, symName: __ZN5realm17ColumnsCollectionINS_8ObjectIdEE18get_element_lengthEv, symObjAddr: 0x172E8, symBinAddr: 0x308824, symSize: 0x8 }
  - { offset: 0x831A76, size: 0x8, addend: 0x0, symName: __ZN5realm17ColumnsCollectionINS_8ObjectIdEE18get_element_lengthEv, symObjAddr: 0x172E8, symBinAddr: 0x308824, symSize: 0x8 }
  - { offset: 0x831A93, size: 0x8, addend: 0x0, symName: __ZN5realm17ColumnsCollectionINS_8ObjectIdEE18get_element_lengthEv, symObjAddr: 0x172E8, symBinAddr: 0x308824, symSize: 0x8 }
  - { offset: 0x831AB0, size: 0x8, addend: 0x0, symName: __ZN5realm17ColumnsCollectionINS_8ObjectIdEE18get_element_lengthEv, symObjAddr: 0x172E8, symBinAddr: 0x308824, symSize: 0x8 }
  - { offset: 0x831ACF, size: 0x8, addend: 0x0, symName: __ZN5realm17ColumnsCollectionINS_8ObjectIdEE5indexERKNS_11PathElementE, symObjAddr: 0x172F0, symBinAddr: 0x30882C, symSize: 0x30 }
  - { offset: 0x831AFD, size: 0x8, addend: 0x0, symName: __ZN5realm17ColumnsCollectionINS_8ObjectIdEE5indexERKNS_11PathElementE, symObjAddr: 0x172F0, symBinAddr: 0x30882C, symSize: 0x30 }
  - { offset: 0x831B4E, size: 0x8, addend: 0x0, symName: __ZThn8_N5realm17ColumnsCollectionINS_8ObjectIdEE4sizeEv, symObjAddr: 0x17320, symBinAddr: 0x30885C, symSize: 0x8 }
  - { offset: 0x831B8A, size: 0x8, addend: 0x0, symName: __ZThn8_N5realm17ColumnsCollectionINS_8ObjectIdEE18get_element_lengthEv, symObjAddr: 0x17328, symBinAddr: 0x308864, symSize: 0x8 }
  - { offset: 0x831BA5, size: 0x8, addend: 0x0, symName: __ZThn8_N5realm17ColumnsCollectionINS_8ObjectIdEE18get_element_lengthEv, symObjAddr: 0x17328, symBinAddr: 0x308864, symSize: 0x8 }
  - { offset: 0x831BB9, size: 0x8, addend: 0x0, symName: __ZThn8_N5realm17ColumnsCollectionINS_8ObjectIdEE18get_element_lengthEv, symObjAddr: 0x17328, symBinAddr: 0x308864, symSize: 0x8 }
  - { offset: 0x831BD7, size: 0x8, addend: 0x0, symName: __ZThn8_N5realm17ColumnsCollectionINS_8ObjectIdEE18get_element_lengthEv, symObjAddr: 0x17328, symBinAddr: 0x308864, symSize: 0x8 }
  - { offset: 0x831BF4, size: 0x8, addend: 0x0, symName: __ZThn8_N5realm17ColumnsCollectionINS_8ObjectIdEE18get_element_lengthEv, symObjAddr: 0x17328, symBinAddr: 0x308864, symSize: 0x8 }
  - { offset: 0x831C11, size: 0x8, addend: 0x0, symName: __ZThn8_N5realm17ColumnsCollectionINS_8ObjectIdEE18get_element_lengthEv, symObjAddr: 0x17328, symBinAddr: 0x308864, symSize: 0x8 }
  - { offset: 0x831C2E, size: 0x8, addend: 0x0, symName: __ZThn8_N5realm17ColumnsCollectionINS_8ObjectIdEE18get_element_lengthEv, symObjAddr: 0x17328, symBinAddr: 0x308864, symSize: 0x8 }
  - { offset: 0x831C64, size: 0x8, addend: 0x0, symName: __ZThn8_N5realm17ColumnsCollectionINS_8ObjectIdEE6max_ofEv, symObjAddr: 0x17330, symBinAddr: 0x30886C, symSize: 0x8 }
  - { offset: 0x831C7F, size: 0x8, addend: 0x0, symName: __ZThn8_N5realm17ColumnsCollectionINS_8ObjectIdEE6max_ofEv, symObjAddr: 0x17330, symBinAddr: 0x30886C, symSize: 0x8 }
  - { offset: 0x831C93, size: 0x8, addend: 0x0, symName: __ZThn8_N5realm17ColumnsCollectionINS_8ObjectIdEE6max_ofEv, symObjAddr: 0x17330, symBinAddr: 0x30886C, symSize: 0x8 }
  - { offset: 0x831CB1, size: 0x8, addend: 0x0, symName: __ZThn8_N5realm17ColumnsCollectionINS_8ObjectIdEE6max_ofEv, symObjAddr: 0x17330, symBinAddr: 0x30886C, symSize: 0x8 }
  - { offset: 0x831CCE, size: 0x8, addend: 0x0, symName: __ZThn8_N5realm17ColumnsCollectionINS_8ObjectIdEE6max_ofEv, symObjAddr: 0x17330, symBinAddr: 0x30886C, symSize: 0x8 }
  - { offset: 0x831CEB, size: 0x8, addend: 0x0, symName: __ZThn8_N5realm17ColumnsCollectionINS_8ObjectIdEE6max_ofEv, symObjAddr: 0x17330, symBinAddr: 0x30886C, symSize: 0x8 }
  - { offset: 0x831D08, size: 0x8, addend: 0x0, symName: __ZThn8_N5realm17ColumnsCollectionINS_8ObjectIdEE6max_ofEv, symObjAddr: 0x17330, symBinAddr: 0x30886C, symSize: 0x8 }
  - { offset: 0x831D3E, size: 0x8, addend: 0x0, symName: __ZThn8_N5realm17ColumnsCollectionINS_8ObjectIdEE6min_ofEv, symObjAddr: 0x17338, symBinAddr: 0x308874, symSize: 0x8 }
  - { offset: 0x831D59, size: 0x8, addend: 0x0, symName: __ZThn8_N5realm17ColumnsCollectionINS_8ObjectIdEE6min_ofEv, symObjAddr: 0x17338, symBinAddr: 0x308874, symSize: 0x8 }
  - { offset: 0x831D6D, size: 0x8, addend: 0x0, symName: __ZThn8_N5realm17ColumnsCollectionINS_8ObjectIdEE6min_ofEv, symObjAddr: 0x17338, symBinAddr: 0x308874, symSize: 0x8 }
  - { offset: 0x831D8B, size: 0x8, addend: 0x0, symName: __ZThn8_N5realm17ColumnsCollectionINS_8ObjectIdEE6min_ofEv, symObjAddr: 0x17338, symBinAddr: 0x308874, symSize: 0x8 }
  - { offset: 0x831DA8, size: 0x8, addend: 0x0, symName: __ZThn8_N5realm17ColumnsCollectionINS_8ObjectIdEE6min_ofEv, symObjAddr: 0x17338, symBinAddr: 0x308874, symSize: 0x8 }
  - { offset: 0x831DC5, size: 0x8, addend: 0x0, symName: __ZThn8_N5realm17ColumnsCollectionINS_8ObjectIdEE6min_ofEv, symObjAddr: 0x17338, symBinAddr: 0x308874, symSize: 0x8 }
  - { offset: 0x831DE2, size: 0x8, addend: 0x0, symName: __ZThn8_N5realm17ColumnsCollectionINS_8ObjectIdEE6min_ofEv, symObjAddr: 0x17338, symBinAddr: 0x308874, symSize: 0x8 }
  - { offset: 0x831E18, size: 0x8, addend: 0x0, symName: __ZThn8_N5realm17ColumnsCollectionINS_8ObjectIdEE6sum_ofEv, symObjAddr: 0x17340, symBinAddr: 0x30887C, symSize: 0x8 }
  - { offset: 0x831E33, size: 0x8, addend: 0x0, symName: __ZThn8_N5realm17ColumnsCollectionINS_8ObjectIdEE6sum_ofEv, symObjAddr: 0x17340, symBinAddr: 0x30887C, symSize: 0x8 }
  - { offset: 0x831E47, size: 0x8, addend: 0x0, symName: __ZThn8_N5realm17ColumnsCollectionINS_8ObjectIdEE6sum_ofEv, symObjAddr: 0x17340, symBinAddr: 0x30887C, symSize: 0x8 }
  - { offset: 0x831E65, size: 0x8, addend: 0x0, symName: __ZThn8_N5realm17ColumnsCollectionINS_8ObjectIdEE6sum_ofEv, symObjAddr: 0x17340, symBinAddr: 0x30887C, symSize: 0x8 }
  - { offset: 0x831E82, size: 0x8, addend: 0x0, symName: __ZThn8_N5realm17ColumnsCollectionINS_8ObjectIdEE6sum_ofEv, symObjAddr: 0x17340, symBinAddr: 0x30887C, symSize: 0x8 }
  - { offset: 0x831E9F, size: 0x8, addend: 0x0, symName: __ZThn8_N5realm17ColumnsCollectionINS_8ObjectIdEE6sum_ofEv, symObjAddr: 0x17340, symBinAddr: 0x30887C, symSize: 0x8 }
  - { offset: 0x831EBC, size: 0x8, addend: 0x0, symName: __ZThn8_N5realm17ColumnsCollectionINS_8ObjectIdEE6sum_ofEv, symObjAddr: 0x17340, symBinAddr: 0x30887C, symSize: 0x8 }
  - { offset: 0x831EF2, size: 0x8, addend: 0x0, symName: __ZThn8_N5realm17ColumnsCollectionINS_8ObjectIdEE6avg_ofEv, symObjAddr: 0x17348, symBinAddr: 0x308884, symSize: 0x8 }
  - { offset: 0x831F0D, size: 0x8, addend: 0x0, symName: __ZThn8_N5realm17ColumnsCollectionINS_8ObjectIdEE6avg_ofEv, symObjAddr: 0x17348, symBinAddr: 0x308884, symSize: 0x8 }
  - { offset: 0x831F21, size: 0x8, addend: 0x0, symName: __ZThn8_N5realm17ColumnsCollectionINS_8ObjectIdEE6avg_ofEv, symObjAddr: 0x17348, symBinAddr: 0x308884, symSize: 0x8 }
  - { offset: 0x831F3F, size: 0x8, addend: 0x0, symName: __ZThn8_N5realm17ColumnsCollectionINS_8ObjectIdEE6avg_ofEv, symObjAddr: 0x17348, symBinAddr: 0x308884, symSize: 0x8 }
  - { offset: 0x831F5C, size: 0x8, addend: 0x0, symName: __ZThn8_N5realm17ColumnsCollectionINS_8ObjectIdEE6avg_ofEv, symObjAddr: 0x17348, symBinAddr: 0x308884, symSize: 0x8 }
  - { offset: 0x831F79, size: 0x8, addend: 0x0, symName: __ZThn8_N5realm17ColumnsCollectionINS_8ObjectIdEE6avg_ofEv, symObjAddr: 0x17348, symBinAddr: 0x308884, symSize: 0x8 }
  - { offset: 0x831F96, size: 0x8, addend: 0x0, symName: __ZThn8_N5realm17ColumnsCollectionINS_8ObjectIdEE6avg_ofEv, symObjAddr: 0x17348, symBinAddr: 0x308884, symSize: 0x8 }
  - { offset: 0x831FD9, size: 0x8, addend: 0x0, symName: __ZThn8_N5realm17ColumnsCollectionINS_8ObjectIdEE5indexERKNS_11PathElementE, symObjAddr: 0x17350, symBinAddr: 0x30888C, symSize: 0x30 }
  - { offset: 0x832012, size: 0x8, addend: 0x0, symName: __ZThn8_N5realm17ColumnsCollectionINS_8ObjectIdEE5indexERKNS_11PathElementE, symObjAddr: 0x17350, symBinAddr: 0x30888C, symSize: 0x30 }
  - { offset: 0x832064, size: 0x8, addend: 0x0, symName: __ZN5realm17ColumnsCollectionINS_8ObjectIdEED1Ev, symObjAddr: 0x17380, symBinAddr: 0x3088BC, symSize: 0xDC }
  - { offset: 0x832897, size: 0x8, addend: 0x0, symName: __ZN5realm17ColumnsCollectionINS_8ObjectIdEED0Ev, symObjAddr: 0x1745C, symBinAddr: 0x308998, symSize: 0xDC }
  - { offset: 0x8330FE, size: 0x8, addend: 0x0, symName: __ZNK5realm17ColumnsCollectionINS_8ObjectIdEE5cloneEv, symObjAddr: 0x17538, symBinAddr: 0x308A74, symSize: 0x54 }
  - { offset: 0x833200, size: 0x8, addend: 0x0, symName: __ZN5realm8Subexpr2INS_8ObjectIdEED1Ev, symObjAddr: 0x1758C, symBinAddr: 0x308AC8, symSize: 0x4 }
  - { offset: 0x83322A, size: 0x8, addend: 0x0, symName: __ZN5realm8Subexpr2INS_8ObjectIdEED0Ev, symObjAddr: 0x17590, symBinAddr: 0x308ACC, symSize: 0x4 }
  - { offset: 0x833711, size: 0x8, addend: 0x0, symName: __ZN5realm14ColumnListSizeINS_8ObjectIdEED1Ev, symObjAddr: 0x186F8, symBinAddr: 0x308B98, symSize: 0xDC }
  - { offset: 0x833F63, size: 0x8, addend: 0x0, symName: __ZN5realm14ColumnListSizeINS_8ObjectIdEED0Ev, symObjAddr: 0x187D4, symBinAddr: 0x308C74, symSize: 0xDC }
  - { offset: 0x83480C, size: 0x8, addend: 0x0, symName: __ZNK5realm14ColumnListSizeINS_8ObjectIdEE5cloneEv, symObjAddr: 0x188B0, symBinAddr: 0x308D50, symSize: 0x64 }
  - { offset: 0x834A57, size: 0x8, addend: 0x0, symName: __ZN5realm14ColumnListSizeINS_8ObjectIdEE8evaluateERNS_7Subexpr5IndexERNS_9ValueBaseE, symObjAddr: 0x18914, symBinAddr: 0x308DB4, symSize: 0x480 }
  - { offset: 0x835975, size: 0x8, addend: 0x0, symName: __ZN5realm7ColumnsINS_3SetINS_8ObjectIdEEEED1Ev, symObjAddr: 0x18F68, symBinAddr: 0x309408, symSize: 0xDC }
  - { offset: 0x8361C4, size: 0x8, addend: 0x0, symName: __ZN5realm7ColumnsINS_3SetINS_8ObjectIdEEEED0Ev, symObjAddr: 0x19044, symBinAddr: 0x3094E4, symSize: 0xDC }
  - { offset: 0x836A67, size: 0x8, addend: 0x0, symName: __ZNK5realm7ColumnsINS_3SetINS_8ObjectIdEEEE5cloneEv, symObjAddr: 0x19120, symBinAddr: 0x3095C0, symSize: 0x64 }
  - { offset: 0x836BA8, size: 0x8, addend: 0x0, symName: __ZN5realm7ColumnsINS_3SetINS_8ObjectIdEEEE5indexERKNS_11PathElementE, symObjAddr: 0x19184, symBinAddr: 0x309624, symSize: 0x8 }
  - { offset: 0x836BD4, size: 0x8, addend: 0x0, symName: __ZThn8_N5realm7ColumnsINS_3SetINS_8ObjectIdEEEE5indexERKNS_11PathElementE, symObjAddr: 0x1918C, symBinAddr: 0x30962C, symSize: 0x8 }
  - { offset: 0x836C8C, size: 0x8, addend: 0x0, symName: __ZN5realm17ColumnsCollectionINS_9TimestampEEC2ENS_6ColKeyENS_13ConstTableRefERKNSt3__16vectorINS_17ExtendedColumnKeyENS5_9allocatorIS7_EEEENS5_8optionalINS_24ExpressionComparisonTypeEEE, symObjAddr: 0x194B4, symBinAddr: 0x309954, symSize: 0x9C }
  - { offset: 0x83709F, size: 0x8, addend: 0x0, symName: __ZN5realm17ColumnsCollectionINS_9TimestampEEC2ERKS2_, symObjAddr: 0x19FB0, symBinAddr: 0x30A450, symSize: 0xC8 }
  - { offset: 0x8374AE, size: 0x8, addend: 0x0, symName: __ZN5realm7ColumnsINS_3LstINS_9TimestampEEEED1Ev, symObjAddr: 0x193D8, symBinAddr: 0x309878, symSize: 0xDC }
  - { offset: 0x837D24, size: 0x8, addend: 0x0, symName: __ZN5realm7ColumnsINS_3LstINS_9TimestampEEEED0Ev, symObjAddr: 0x19550, symBinAddr: 0x3099F0, symSize: 0xDC }
  - { offset: 0x8385C7, size: 0x8, addend: 0x0, symName: __ZNK5realm7ColumnsINS_3LstINS_9TimestampEEEE5cloneEv, symObjAddr: 0x1962C, symBinAddr: 0x309ACC, symSize: 0x64 }
  - { offset: 0x838708, size: 0x8, addend: 0x0, symName: __ZN5realm17ColumnsCollectionINS_9TimestampEE14set_base_tableENS_13ConstTableRefE, symObjAddr: 0x19690, symBinAddr: 0x309B30, symSize: 0x8 }
  - { offset: 0x838731, size: 0x8, addend: 0x0, symName: __ZNK5realm17ColumnsCollectionINS_9TimestampEE11descriptionERNS_4util10serializer18SerialisationStateE, symObjAddr: 0x19698, symBinAddr: 0x309B38, symSize: 0x25C }
  - { offset: 0x8396CF, size: 0x8, addend: 0x0, symName: __ZN5realm17ColumnsCollectionINS_9TimestampEE11set_clusterEPKNS_7ClusterE, symObjAddr: 0x198F4, symBinAddr: 0x309D94, symSize: 0x8 }
  - { offset: 0x8396FA, size: 0x8, addend: 0x0, symName: __ZNK5realm17ColumnsCollectionINS_9TimestampEE14get_base_tableEv, symObjAddr: 0x198FC, symBinAddr: 0x309D9C, symSize: 0x20 }
  - { offset: 0x839720, size: 0x8, addend: 0x0, symName: __ZNK5realm17ColumnsCollectionINS_9TimestampEE14get_base_tableEv, symObjAddr: 0x198FC, symBinAddr: 0x309D9C, symSize: 0x20 }
  - { offset: 0x839740, size: 0x8, addend: 0x0, symName: __ZNK5realm17ColumnsCollectionINS_9TimestampEE14get_base_tableEv, symObjAddr: 0x198FC, symBinAddr: 0x309D9C, symSize: 0x20 }
  - { offset: 0x839760, size: 0x8, addend: 0x0, symName: __ZNK5realm17ColumnsCollectionINS_9TimestampEE20collect_dependenciesERNSt3__16vectorINS_8TableKeyENS3_9allocatorIS5_EEEE, symObjAddr: 0x1991C, symBinAddr: 0x309DBC, symSize: 0x8 }
  - { offset: 0x83978B, size: 0x8, addend: 0x0, symName: __ZNK5realm17ColumnsCollectionINS_9TimestampEE19has_multiple_valuesEv, symObjAddr: 0x19924, symBinAddr: 0x309DC4, symSize: 0x8 }
  - { offset: 0x8397AE, size: 0x8, addend: 0x0, symName: __ZNK5realm17ColumnsCollectionINS_9TimestampEE16get_target_tableEv, symObjAddr: 0x1992C, symBinAddr: 0x309DCC, symSize: 0x44 }
  - { offset: 0x8397E2, size: 0x8, addend: 0x0, symName: __ZNK5realm8Subexpr2INS_9TimestampEE8get_typeEv, symObjAddr: 0x19970, symBinAddr: 0x309E10, symSize: 0x8 }
  - { offset: 0x839A3C, size: 0x8, addend: 0x0, symName: __ZN5realm17ColumnsCollectionINS_9TimestampEE8evaluateERNS_7Subexpr5IndexERNS_9ValueBaseE, symObjAddr: 0x19978, symBinAddr: 0x309E18, symSize: 0x364 }
  - { offset: 0x83A263, size: 0x8, addend: 0x0, symName: __ZN5realm9BPlusTreeINS_9TimestampEEC2ERNS_9AllocatorE, symObjAddr: 0x1A0F8, symBinAddr: 0x30A518, symSize: 0x5C }
  - { offset: 0x83A49E, size: 0x8, addend: 0x0, symName: __ZNK5realm17ColumnsCollectionINS_9TimestampEE19get_comparison_typeEv, symObjAddr: 0x19CDC, symBinAddr: 0x30A17C, symSize: 0x8 }
  - { offset: 0x83A4C5, size: 0x8, addend: 0x0, symName: __ZN5realm17ColumnsCollectionINS_9TimestampEE6max_ofEv, symObjAddr: 0x19CE4, symBinAddr: 0x30A184, symSize: 0x8 }
  - { offset: 0x83A4E7, size: 0x8, addend: 0x0, symName: __ZN5realm17ColumnsCollectionINS_9TimestampEE6max_ofEv, symObjAddr: 0x19CE4, symBinAddr: 0x30A184, symSize: 0x8 }
  - { offset: 0x83A505, size: 0x8, addend: 0x0, symName: __ZN5realm17ColumnsCollectionINS_9TimestampEE6max_ofEv, symObjAddr: 0x19CE4, symBinAddr: 0x30A184, symSize: 0x8 }
  - { offset: 0x83A522, size: 0x8, addend: 0x0, symName: __ZN5realm17ColumnsCollectionINS_9TimestampEE6max_ofEv, symObjAddr: 0x19CE4, symBinAddr: 0x30A184, symSize: 0x8 }
  - { offset: 0x83A53F, size: 0x8, addend: 0x0, symName: __ZN5realm17ColumnsCollectionINS_9TimestampEE6max_ofEv, symObjAddr: 0x19CE4, symBinAddr: 0x30A184, symSize: 0x8 }
  - { offset: 0x83A55C, size: 0x8, addend: 0x0, symName: __ZN5realm17ColumnsCollectionINS_9TimestampEE6max_ofEv, symObjAddr: 0x19CE4, symBinAddr: 0x30A184, symSize: 0x8 }
  - { offset: 0x83A57B, size: 0x8, addend: 0x0, symName: __ZN5realm17ColumnsCollectionINS_9TimestampEE6min_ofEv, symObjAddr: 0x19CEC, symBinAddr: 0x30A18C, symSize: 0x8 }
  - { offset: 0x83A59D, size: 0x8, addend: 0x0, symName: __ZN5realm17ColumnsCollectionINS_9TimestampEE6min_ofEv, symObjAddr: 0x19CEC, symBinAddr: 0x30A18C, symSize: 0x8 }
  - { offset: 0x83A5BB, size: 0x8, addend: 0x0, symName: __ZN5realm17ColumnsCollectionINS_9TimestampEE6min_ofEv, symObjAddr: 0x19CEC, symBinAddr: 0x30A18C, symSize: 0x8 }
  - { offset: 0x83A5D8, size: 0x8, addend: 0x0, symName: __ZN5realm17ColumnsCollectionINS_9TimestampEE6min_ofEv, symObjAddr: 0x19CEC, symBinAddr: 0x30A18C, symSize: 0x8 }
  - { offset: 0x83A5F5, size: 0x8, addend: 0x0, symName: __ZN5realm17ColumnsCollectionINS_9TimestampEE6min_ofEv, symObjAddr: 0x19CEC, symBinAddr: 0x30A18C, symSize: 0x8 }
  - { offset: 0x83A612, size: 0x8, addend: 0x0, symName: __ZN5realm17ColumnsCollectionINS_9TimestampEE6min_ofEv, symObjAddr: 0x19CEC, symBinAddr: 0x30A18C, symSize: 0x8 }
  - { offset: 0x83A631, size: 0x8, addend: 0x0, symName: __ZN5realm17ColumnsCollectionINS_9TimestampEE6sum_ofEv, symObjAddr: 0x19CF4, symBinAddr: 0x30A194, symSize: 0x8 }
  - { offset: 0x83A653, size: 0x8, addend: 0x0, symName: __ZN5realm17ColumnsCollectionINS_9TimestampEE6sum_ofEv, symObjAddr: 0x19CF4, symBinAddr: 0x30A194, symSize: 0x8 }
  - { offset: 0x83A671, size: 0x8, addend: 0x0, symName: __ZN5realm17ColumnsCollectionINS_9TimestampEE6sum_ofEv, symObjAddr: 0x19CF4, symBinAddr: 0x30A194, symSize: 0x8 }
  - { offset: 0x83A68E, size: 0x8, addend: 0x0, symName: __ZN5realm17ColumnsCollectionINS_9TimestampEE6sum_ofEv, symObjAddr: 0x19CF4, symBinAddr: 0x30A194, symSize: 0x8 }
  - { offset: 0x83A6AB, size: 0x8, addend: 0x0, symName: __ZN5realm17ColumnsCollectionINS_9TimestampEE6sum_ofEv, symObjAddr: 0x19CF4, symBinAddr: 0x30A194, symSize: 0x8 }
  - { offset: 0x83A6C8, size: 0x8, addend: 0x0, symName: __ZN5realm17ColumnsCollectionINS_9TimestampEE6sum_ofEv, symObjAddr: 0x19CF4, symBinAddr: 0x30A194, symSize: 0x8 }
  - { offset: 0x83A6E7, size: 0x8, addend: 0x0, symName: __ZN5realm17ColumnsCollectionINS_9TimestampEE6avg_ofEv, symObjAddr: 0x19CFC, symBinAddr: 0x30A19C, symSize: 0x8 }
  - { offset: 0x83A709, size: 0x8, addend: 0x0, symName: __ZN5realm17ColumnsCollectionINS_9TimestampEE6avg_ofEv, symObjAddr: 0x19CFC, symBinAddr: 0x30A19C, symSize: 0x8 }
  - { offset: 0x83A727, size: 0x8, addend: 0x0, symName: __ZN5realm17ColumnsCollectionINS_9TimestampEE6avg_ofEv, symObjAddr: 0x19CFC, symBinAddr: 0x30A19C, symSize: 0x8 }
  - { offset: 0x83A744, size: 0x8, addend: 0x0, symName: __ZN5realm17ColumnsCollectionINS_9TimestampEE6avg_ofEv, symObjAddr: 0x19CFC, symBinAddr: 0x30A19C, symSize: 0x8 }
  - { offset: 0x83A761, size: 0x8, addend: 0x0, symName: __ZN5realm17ColumnsCollectionINS_9TimestampEE6avg_ofEv, symObjAddr: 0x19CFC, symBinAddr: 0x30A19C, symSize: 0x8 }
  - { offset: 0x83A77E, size: 0x8, addend: 0x0, symName: __ZN5realm17ColumnsCollectionINS_9TimestampEE6avg_ofEv, symObjAddr: 0x19CFC, symBinAddr: 0x30A19C, symSize: 0x8 }
  - { offset: 0x83A79D, size: 0x8, addend: 0x0, symName: __ZN5realm17ColumnsCollectionINS_9TimestampEE18get_element_lengthEv, symObjAddr: 0x19D04, symBinAddr: 0x30A1A4, symSize: 0x8 }
  - { offset: 0x83A7BF, size: 0x8, addend: 0x0, symName: __ZN5realm17ColumnsCollectionINS_9TimestampEE18get_element_lengthEv, symObjAddr: 0x19D04, symBinAddr: 0x30A1A4, symSize: 0x8 }
  - { offset: 0x83A7DD, size: 0x8, addend: 0x0, symName: __ZN5realm17ColumnsCollectionINS_9TimestampEE18get_element_lengthEv, symObjAddr: 0x19D04, symBinAddr: 0x30A1A4, symSize: 0x8 }
  - { offset: 0x83A7FA, size: 0x8, addend: 0x0, symName: __ZN5realm17ColumnsCollectionINS_9TimestampEE18get_element_lengthEv, symObjAddr: 0x19D04, symBinAddr: 0x30A1A4, symSize: 0x8 }
  - { offset: 0x83A817, size: 0x8, addend: 0x0, symName: __ZN5realm17ColumnsCollectionINS_9TimestampEE18get_element_lengthEv, symObjAddr: 0x19D04, symBinAddr: 0x30A1A4, symSize: 0x8 }
  - { offset: 0x83A834, size: 0x8, addend: 0x0, symName: __ZN5realm17ColumnsCollectionINS_9TimestampEE18get_element_lengthEv, symObjAddr: 0x19D04, symBinAddr: 0x30A1A4, symSize: 0x8 }
  - { offset: 0x83A853, size: 0x8, addend: 0x0, symName: __ZN5realm17ColumnsCollectionINS_9TimestampEE5indexERKNS_11PathElementE, symObjAddr: 0x19D0C, symBinAddr: 0x30A1AC, symSize: 0x30 }
  - { offset: 0x83A881, size: 0x8, addend: 0x0, symName: __ZN5realm17ColumnsCollectionINS_9TimestampEE5indexERKNS_11PathElementE, symObjAddr: 0x19D0C, symBinAddr: 0x30A1AC, symSize: 0x30 }
  - { offset: 0x83A8D2, size: 0x8, addend: 0x0, symName: __ZThn8_N5realm17ColumnsCollectionINS_9TimestampEE4sizeEv, symObjAddr: 0x19D3C, symBinAddr: 0x30A1DC, symSize: 0x8 }
  - { offset: 0x83A90E, size: 0x8, addend: 0x0, symName: __ZThn8_N5realm17ColumnsCollectionINS_9TimestampEE18get_element_lengthEv, symObjAddr: 0x19D44, symBinAddr: 0x30A1E4, symSize: 0x8 }
  - { offset: 0x83A929, size: 0x8, addend: 0x0, symName: __ZThn8_N5realm17ColumnsCollectionINS_9TimestampEE18get_element_lengthEv, symObjAddr: 0x19D44, symBinAddr: 0x30A1E4, symSize: 0x8 }
  - { offset: 0x83A93D, size: 0x8, addend: 0x0, symName: __ZThn8_N5realm17ColumnsCollectionINS_9TimestampEE18get_element_lengthEv, symObjAddr: 0x19D44, symBinAddr: 0x30A1E4, symSize: 0x8 }
  - { offset: 0x83A95B, size: 0x8, addend: 0x0, symName: __ZThn8_N5realm17ColumnsCollectionINS_9TimestampEE18get_element_lengthEv, symObjAddr: 0x19D44, symBinAddr: 0x30A1E4, symSize: 0x8 }
  - { offset: 0x83A978, size: 0x8, addend: 0x0, symName: __ZThn8_N5realm17ColumnsCollectionINS_9TimestampEE18get_element_lengthEv, symObjAddr: 0x19D44, symBinAddr: 0x30A1E4, symSize: 0x8 }
  - { offset: 0x83A995, size: 0x8, addend: 0x0, symName: __ZThn8_N5realm17ColumnsCollectionINS_9TimestampEE18get_element_lengthEv, symObjAddr: 0x19D44, symBinAddr: 0x30A1E4, symSize: 0x8 }
  - { offset: 0x83A9B2, size: 0x8, addend: 0x0, symName: __ZThn8_N5realm17ColumnsCollectionINS_9TimestampEE18get_element_lengthEv, symObjAddr: 0x19D44, symBinAddr: 0x30A1E4, symSize: 0x8 }
  - { offset: 0x83A9E8, size: 0x8, addend: 0x0, symName: __ZThn8_N5realm17ColumnsCollectionINS_9TimestampEE6max_ofEv, symObjAddr: 0x19D4C, symBinAddr: 0x30A1EC, symSize: 0x8 }
  - { offset: 0x83AA03, size: 0x8, addend: 0x0, symName: __ZThn8_N5realm17ColumnsCollectionINS_9TimestampEE6max_ofEv, symObjAddr: 0x19D4C, symBinAddr: 0x30A1EC, symSize: 0x8 }
  - { offset: 0x83AA17, size: 0x8, addend: 0x0, symName: __ZThn8_N5realm17ColumnsCollectionINS_9TimestampEE6max_ofEv, symObjAddr: 0x19D4C, symBinAddr: 0x30A1EC, symSize: 0x8 }
  - { offset: 0x83AA35, size: 0x8, addend: 0x0, symName: __ZThn8_N5realm17ColumnsCollectionINS_9TimestampEE6max_ofEv, symObjAddr: 0x19D4C, symBinAddr: 0x30A1EC, symSize: 0x8 }
  - { offset: 0x83AA52, size: 0x8, addend: 0x0, symName: __ZThn8_N5realm17ColumnsCollectionINS_9TimestampEE6max_ofEv, symObjAddr: 0x19D4C, symBinAddr: 0x30A1EC, symSize: 0x8 }
  - { offset: 0x83AA6F, size: 0x8, addend: 0x0, symName: __ZThn8_N5realm17ColumnsCollectionINS_9TimestampEE6max_ofEv, symObjAddr: 0x19D4C, symBinAddr: 0x30A1EC, symSize: 0x8 }
  - { offset: 0x83AA8C, size: 0x8, addend: 0x0, symName: __ZThn8_N5realm17ColumnsCollectionINS_9TimestampEE6max_ofEv, symObjAddr: 0x19D4C, symBinAddr: 0x30A1EC, symSize: 0x8 }
  - { offset: 0x83AAC2, size: 0x8, addend: 0x0, symName: __ZThn8_N5realm17ColumnsCollectionINS_9TimestampEE6min_ofEv, symObjAddr: 0x19D54, symBinAddr: 0x30A1F4, symSize: 0x8 }
  - { offset: 0x83AADD, size: 0x8, addend: 0x0, symName: __ZThn8_N5realm17ColumnsCollectionINS_9TimestampEE6min_ofEv, symObjAddr: 0x19D54, symBinAddr: 0x30A1F4, symSize: 0x8 }
  - { offset: 0x83AAF1, size: 0x8, addend: 0x0, symName: __ZThn8_N5realm17ColumnsCollectionINS_9TimestampEE6min_ofEv, symObjAddr: 0x19D54, symBinAddr: 0x30A1F4, symSize: 0x8 }
  - { offset: 0x83AB0F, size: 0x8, addend: 0x0, symName: __ZThn8_N5realm17ColumnsCollectionINS_9TimestampEE6min_ofEv, symObjAddr: 0x19D54, symBinAddr: 0x30A1F4, symSize: 0x8 }
  - { offset: 0x83AB2C, size: 0x8, addend: 0x0, symName: __ZThn8_N5realm17ColumnsCollectionINS_9TimestampEE6min_ofEv, symObjAddr: 0x19D54, symBinAddr: 0x30A1F4, symSize: 0x8 }
  - { offset: 0x83AB49, size: 0x8, addend: 0x0, symName: __ZThn8_N5realm17ColumnsCollectionINS_9TimestampEE6min_ofEv, symObjAddr: 0x19D54, symBinAddr: 0x30A1F4, symSize: 0x8 }
  - { offset: 0x83AB66, size: 0x8, addend: 0x0, symName: __ZThn8_N5realm17ColumnsCollectionINS_9TimestampEE6min_ofEv, symObjAddr: 0x19D54, symBinAddr: 0x30A1F4, symSize: 0x8 }
  - { offset: 0x83AB9C, size: 0x8, addend: 0x0, symName: __ZThn8_N5realm17ColumnsCollectionINS_9TimestampEE6sum_ofEv, symObjAddr: 0x19D5C, symBinAddr: 0x30A1FC, symSize: 0x8 }
  - { offset: 0x83ABB7, size: 0x8, addend: 0x0, symName: __ZThn8_N5realm17ColumnsCollectionINS_9TimestampEE6sum_ofEv, symObjAddr: 0x19D5C, symBinAddr: 0x30A1FC, symSize: 0x8 }
  - { offset: 0x83ABCB, size: 0x8, addend: 0x0, symName: __ZThn8_N5realm17ColumnsCollectionINS_9TimestampEE6sum_ofEv, symObjAddr: 0x19D5C, symBinAddr: 0x30A1FC, symSize: 0x8 }
  - { offset: 0x83ABE9, size: 0x8, addend: 0x0, symName: __ZThn8_N5realm17ColumnsCollectionINS_9TimestampEE6sum_ofEv, symObjAddr: 0x19D5C, symBinAddr: 0x30A1FC, symSize: 0x8 }
  - { offset: 0x83AC06, size: 0x8, addend: 0x0, symName: __ZThn8_N5realm17ColumnsCollectionINS_9TimestampEE6sum_ofEv, symObjAddr: 0x19D5C, symBinAddr: 0x30A1FC, symSize: 0x8 }
  - { offset: 0x83AC23, size: 0x8, addend: 0x0, symName: __ZThn8_N5realm17ColumnsCollectionINS_9TimestampEE6sum_ofEv, symObjAddr: 0x19D5C, symBinAddr: 0x30A1FC, symSize: 0x8 }
  - { offset: 0x83AC40, size: 0x8, addend: 0x0, symName: __ZThn8_N5realm17ColumnsCollectionINS_9TimestampEE6sum_ofEv, symObjAddr: 0x19D5C, symBinAddr: 0x30A1FC, symSize: 0x8 }
  - { offset: 0x83AC76, size: 0x8, addend: 0x0, symName: __ZThn8_N5realm17ColumnsCollectionINS_9TimestampEE6avg_ofEv, symObjAddr: 0x19D64, symBinAddr: 0x30A204, symSize: 0x8 }
  - { offset: 0x83AC91, size: 0x8, addend: 0x0, symName: __ZThn8_N5realm17ColumnsCollectionINS_9TimestampEE6avg_ofEv, symObjAddr: 0x19D64, symBinAddr: 0x30A204, symSize: 0x8 }
  - { offset: 0x83ACA5, size: 0x8, addend: 0x0, symName: __ZThn8_N5realm17ColumnsCollectionINS_9TimestampEE6avg_ofEv, symObjAddr: 0x19D64, symBinAddr: 0x30A204, symSize: 0x8 }
  - { offset: 0x83ACC3, size: 0x8, addend: 0x0, symName: __ZThn8_N5realm17ColumnsCollectionINS_9TimestampEE6avg_ofEv, symObjAddr: 0x19D64, symBinAddr: 0x30A204, symSize: 0x8 }
  - { offset: 0x83ACE0, size: 0x8, addend: 0x0, symName: __ZThn8_N5realm17ColumnsCollectionINS_9TimestampEE6avg_ofEv, symObjAddr: 0x19D64, symBinAddr: 0x30A204, symSize: 0x8 }
  - { offset: 0x83ACFD, size: 0x8, addend: 0x0, symName: __ZThn8_N5realm17ColumnsCollectionINS_9TimestampEE6avg_ofEv, symObjAddr: 0x19D64, symBinAddr: 0x30A204, symSize: 0x8 }
  - { offset: 0x83AD1A, size: 0x8, addend: 0x0, symName: __ZThn8_N5realm17ColumnsCollectionINS_9TimestampEE6avg_ofEv, symObjAddr: 0x19D64, symBinAddr: 0x30A204, symSize: 0x8 }
  - { offset: 0x83AD5D, size: 0x8, addend: 0x0, symName: __ZThn8_N5realm17ColumnsCollectionINS_9TimestampEE5indexERKNS_11PathElementE, symObjAddr: 0x19D6C, symBinAddr: 0x30A20C, symSize: 0x30 }
  - { offset: 0x83AD96, size: 0x8, addend: 0x0, symName: __ZThn8_N5realm17ColumnsCollectionINS_9TimestampEE5indexERKNS_11PathElementE, symObjAddr: 0x19D6C, symBinAddr: 0x30A20C, symSize: 0x30 }
  - { offset: 0x83ADE8, size: 0x8, addend: 0x0, symName: __ZN5realm17ColumnsCollectionINS_9TimestampEED1Ev, symObjAddr: 0x19D9C, symBinAddr: 0x30A23C, symSize: 0xDC }
  - { offset: 0x83B61B, size: 0x8, addend: 0x0, symName: __ZN5realm17ColumnsCollectionINS_9TimestampEED0Ev, symObjAddr: 0x19E78, symBinAddr: 0x30A318, symSize: 0xDC }
  - { offset: 0x83BE82, size: 0x8, addend: 0x0, symName: __ZNK5realm17ColumnsCollectionINS_9TimestampEE5cloneEv, symObjAddr: 0x19F54, symBinAddr: 0x30A3F4, symSize: 0x54 }
  - { offset: 0x83BF84, size: 0x8, addend: 0x0, symName: __ZN5realm8Subexpr2INS_9TimestampEED1Ev, symObjAddr: 0x19FA8, symBinAddr: 0x30A448, symSize: 0x4 }
  - { offset: 0x83BFAE, size: 0x8, addend: 0x0, symName: __ZN5realm8Subexpr2INS_9TimestampEED0Ev, symObjAddr: 0x19FAC, symBinAddr: 0x30A44C, symSize: 0x4 }
  - { offset: 0x83C0CD, size: 0x8, addend: 0x0, symName: __ZN5realm9BPlusTreeINS_9TimestampEE8LeafNodeC2EPNS_13BPlusTreeBaseE, symObjAddr: 0x1A554, symBinAddr: 0x30A574, symSize: 0x70 }
  - { offset: 0x83C33C, size: 0x8, addend: 0x0, symName: __ZN5realm14ColumnListSizeINS_9TimestampEED1Ev, symObjAddr: 0x1AE58, symBinAddr: 0x30A5E4, symSize: 0xDC }
  - { offset: 0x83CB8E, size: 0x8, addend: 0x0, symName: __ZN5realm14ColumnListSizeINS_9TimestampEED0Ev, symObjAddr: 0x1AF34, symBinAddr: 0x30A6C0, symSize: 0xDC }
  - { offset: 0x83D437, size: 0x8, addend: 0x0, symName: __ZNK5realm14ColumnListSizeINS_9TimestampEE5cloneEv, symObjAddr: 0x1B010, symBinAddr: 0x30A79C, symSize: 0x64 }
  - { offset: 0x83D5F1, size: 0x8, addend: 0x0, symName: __ZN5realm14ColumnListSizeINS_9TimestampEE8evaluateERNS_7Subexpr5IndexERNS_9ValueBaseE, symObjAddr: 0x1B074, symBinAddr: 0x30A800, symSize: 0x29C }
  - { offset: 0x83DE81, size: 0x8, addend: 0x0, symName: __ZN5realm7ColumnsINS_3SetINS_9TimestampEEEED1Ev, symObjAddr: 0x1B4E4, symBinAddr: 0x30AC70, symSize: 0xDC }
  - { offset: 0x83E6D0, size: 0x8, addend: 0x0, symName: __ZN5realm7ColumnsINS_3SetINS_9TimestampEEEED0Ev, symObjAddr: 0x1B5C0, symBinAddr: 0x30AD4C, symSize: 0xDC }
  - { offset: 0x83EF73, size: 0x8, addend: 0x0, symName: __ZNK5realm7ColumnsINS_3SetINS_9TimestampEEEE5cloneEv, symObjAddr: 0x1B69C, symBinAddr: 0x30AE28, symSize: 0x64 }
  - { offset: 0x83F0B4, size: 0x8, addend: 0x0, symName: __ZN5realm7ColumnsINS_3SetINS_9TimestampEEEE5indexERKNS_11PathElementE, symObjAddr: 0x1B700, symBinAddr: 0x30AE8C, symSize: 0x8 }
  - { offset: 0x83F0E0, size: 0x8, addend: 0x0, symName: __ZThn8_N5realm7ColumnsINS_3SetINS_9TimestampEEEE5indexERKNS_11PathElementE, symObjAddr: 0x1B708, symBinAddr: 0x30AE94, symSize: 0x8 }
  - { offset: 0x83F198, size: 0x8, addend: 0x0, symName: __ZN5realm17ColumnsCollectionIdEC2ENS_6ColKeyENS_13ConstTableRefERKNSt3__16vectorINS_17ExtendedColumnKeyENS4_9allocatorIS6_EEEENS4_8optionalINS_24ExpressionComparisonTypeEEE, symObjAddr: 0x1BA30, symBinAddr: 0x30B1BC, symSize: 0x9C }
  - { offset: 0x83F5AB, size: 0x8, addend: 0x0, symName: __ZN5realm17ColumnsCollectionIdEC2ERKS1_, symObjAddr: 0x1C95C, symBinAddr: 0x30C0E8, symSize: 0xC8 }
  - { offset: 0x83F9BA, size: 0x8, addend: 0x0, symName: __ZN5realm7ColumnsINS_3LstIdEEED1Ev, symObjAddr: 0x1B954, symBinAddr: 0x30B0E0, symSize: 0xDC }
  - { offset: 0x840230, size: 0x8, addend: 0x0, symName: __ZN5realm7ColumnsINS_3LstIdEEED0Ev, symObjAddr: 0x1BACC, symBinAddr: 0x30B258, symSize: 0xDC }
  - { offset: 0x840AD3, size: 0x8, addend: 0x0, symName: __ZNK5realm7ColumnsINS_3LstIdEEE5cloneEv, symObjAddr: 0x1BBA8, symBinAddr: 0x30B334, symSize: 0x64 }
  - { offset: 0x840C14, size: 0x8, addend: 0x0, symName: __ZN5realm17ColumnsCollectionIdE14set_base_tableENS_13ConstTableRefE, symObjAddr: 0x1BC0C, symBinAddr: 0x30B398, symSize: 0x8 }
  - { offset: 0x840C3D, size: 0x8, addend: 0x0, symName: __ZNK5realm17ColumnsCollectionIdE11descriptionERNS_4util10serializer18SerialisationStateE, symObjAddr: 0x1BC14, symBinAddr: 0x30B3A0, symSize: 0x25C }
  - { offset: 0x841BDB, size: 0x8, addend: 0x0, symName: __ZN5realm17ColumnsCollectionIdE11set_clusterEPKNS_7ClusterE, symObjAddr: 0x1BE70, symBinAddr: 0x30B5FC, symSize: 0x8 }
  - { offset: 0x841C06, size: 0x8, addend: 0x0, symName: __ZNK5realm17ColumnsCollectionIdE14get_base_tableEv, symObjAddr: 0x1BE78, symBinAddr: 0x30B604, symSize: 0x20 }
  - { offset: 0x841C2C, size: 0x8, addend: 0x0, symName: __ZNK5realm17ColumnsCollectionIdE14get_base_tableEv, symObjAddr: 0x1BE78, symBinAddr: 0x30B604, symSize: 0x20 }
  - { offset: 0x841C4C, size: 0x8, addend: 0x0, symName: __ZNK5realm17ColumnsCollectionIdE14get_base_tableEv, symObjAddr: 0x1BE78, symBinAddr: 0x30B604, symSize: 0x20 }
  - { offset: 0x841C6C, size: 0x8, addend: 0x0, symName: __ZNK5realm17ColumnsCollectionIdE20collect_dependenciesERNSt3__16vectorINS_8TableKeyENS2_9allocatorIS4_EEEE, symObjAddr: 0x1BE98, symBinAddr: 0x30B624, symSize: 0x8 }
  - { offset: 0x841C97, size: 0x8, addend: 0x0, symName: __ZNK5realm17ColumnsCollectionIdE19has_multiple_valuesEv, symObjAddr: 0x1BEA0, symBinAddr: 0x30B62C, symSize: 0x8 }
  - { offset: 0x841CBA, size: 0x8, addend: 0x0, symName: __ZNK5realm17ColumnsCollectionIdE16get_target_tableEv, symObjAddr: 0x1BEA8, symBinAddr: 0x30B634, symSize: 0x44 }
  - { offset: 0x841CEE, size: 0x8, addend: 0x0, symName: __ZNK5realm8Subexpr2IdE8get_typeEv, symObjAddr: 0x1BEEC, symBinAddr: 0x30B678, symSize: 0x8 }
  - { offset: 0x841FC7, size: 0x8, addend: 0x0, symName: __ZN5realm17ColumnsCollectionIdE8evaluateERNS_7Subexpr5IndexERNS_9ValueBaseE, symObjAddr: 0x1BEF4, symBinAddr: 0x30B680, symSize: 0x334 }
  - { offset: 0x84288B, size: 0x8, addend: 0x0, symName: __ZNK5realm17ColumnsCollectionIdE19get_comparison_typeEv, symObjAddr: 0x1C228, symBinAddr: 0x30B9B4, symSize: 0x8 }
  - { offset: 0x842929, size: 0x8, addend: 0x0, symName: __ZN5realm17ColumnsCollectionIdE6max_ofEv, symObjAddr: 0x1C230, symBinAddr: 0x30B9BC, symSize: 0x120 }
  - { offset: 0x84315C, size: 0x8, addend: 0x0, symName: __ZNK5realm17ColumnsCollectionIdE3maxEv, symObjAddr: 0x1D594, symBinAddr: 0x30C1B0, symSize: 0x178 }
  - { offset: 0x843B89, size: 0x8, addend: 0x0, symName: __ZN5realm25CollectionColumnAggregateIdNS_20aggregate_operations7MaximumIdEEED1Ev, symObjAddr: 0x1D718, symBinAddr: 0x30C334, symSize: 0xE8 }
  - { offset: 0x844433, size: 0x8, addend: 0x0, symName: __ZN5realm17ColumnsCollectionIdE6min_ofEv, symObjAddr: 0x1C350, symBinAddr: 0x30BADC, symSize: 0x120 }
  - { offset: 0x844C66, size: 0x8, addend: 0x0, symName: __ZNK5realm17ColumnsCollectionIdE3minEv, symObjAddr: 0x1E040, symBinAddr: 0x30CB84, symSize: 0x178 }
  - { offset: 0x845693, size: 0x8, addend: 0x0, symName: __ZN5realm25CollectionColumnAggregateIdNS_20aggregate_operations7MinimumIdEEED1Ev, symObjAddr: 0x1E1C4, symBinAddr: 0x30CD08, symSize: 0xE8 }
  - { offset: 0x845F3D, size: 0x8, addend: 0x0, symName: __ZN5realm17ColumnsCollectionIdE6sum_ofEv, symObjAddr: 0x1C470, symBinAddr: 0x30BBFC, symSize: 0x120 }
  - { offset: 0x846770, size: 0x8, addend: 0x0, symName: __ZNK5realm17ColumnsCollectionIdE3sumEv, symObjAddr: 0x1EA14, symBinAddr: 0x30D558, symSize: 0x178 }
  - { offset: 0x84719D, size: 0x8, addend: 0x0, symName: __ZN5realm25CollectionColumnAggregateIdNS_20aggregate_operations3SumIdEEED1Ev, symObjAddr: 0x1EB98, symBinAddr: 0x30D6DC, symSize: 0xE8 }
  - { offset: 0x847A47, size: 0x8, addend: 0x0, symName: __ZN5realm17ColumnsCollectionIdE6avg_ofEv, symObjAddr: 0x1C590, symBinAddr: 0x30BD1C, symSize: 0x120 }
  - { offset: 0x84827A, size: 0x8, addend: 0x0, symName: __ZNK5realm17ColumnsCollectionIdE7averageEv, symObjAddr: 0x1F3B8, symBinAddr: 0x30DEFC, symSize: 0x178 }
  - { offset: 0x848CA7, size: 0x8, addend: 0x0, symName: __ZN5realm25CollectionColumnAggregateIdNS_20aggregate_operations7AverageIdEEED1Ev, symObjAddr: 0x1F53C, symBinAddr: 0x30E080, symSize: 0xE8 }
  - { offset: 0x8494F7, size: 0x8, addend: 0x0, symName: __ZN5realm17ColumnsCollectionIdE18get_element_lengthEv, symObjAddr: 0x1C6B0, symBinAddr: 0x30BE3C, symSize: 0x8 }
  - { offset: 0x849519, size: 0x8, addend: 0x0, symName: __ZN5realm17ColumnsCollectionIdE18get_element_lengthEv, symObjAddr: 0x1C6B0, symBinAddr: 0x30BE3C, symSize: 0x8 }
  - { offset: 0x849537, size: 0x8, addend: 0x0, symName: __ZN5realm17ColumnsCollectionIdE18get_element_lengthEv, symObjAddr: 0x1C6B0, symBinAddr: 0x30BE3C, symSize: 0x8 }
  - { offset: 0x849554, size: 0x8, addend: 0x0, symName: __ZN5realm17ColumnsCollectionIdE18get_element_lengthEv, symObjAddr: 0x1C6B0, symBinAddr: 0x30BE3C, symSize: 0x8 }
  - { offset: 0x849571, size: 0x8, addend: 0x0, symName: __ZN5realm17ColumnsCollectionIdE18get_element_lengthEv, symObjAddr: 0x1C6B0, symBinAddr: 0x30BE3C, symSize: 0x8 }
  - { offset: 0x84958E, size: 0x8, addend: 0x0, symName: __ZN5realm17ColumnsCollectionIdE18get_element_lengthEv, symObjAddr: 0x1C6B0, symBinAddr: 0x30BE3C, symSize: 0x8 }
  - { offset: 0x8495AD, size: 0x8, addend: 0x0, symName: __ZN5realm17ColumnsCollectionIdE5indexERKNS_11PathElementE, symObjAddr: 0x1C6B8, symBinAddr: 0x30BE44, symSize: 0x30 }
  - { offset: 0x8495DB, size: 0x8, addend: 0x0, symName: __ZN5realm17ColumnsCollectionIdE5indexERKNS_11PathElementE, symObjAddr: 0x1C6B8, symBinAddr: 0x30BE44, symSize: 0x30 }
  - { offset: 0x84962C, size: 0x8, addend: 0x0, symName: __ZThn8_N5realm17ColumnsCollectionIdE4sizeEv, symObjAddr: 0x1C6E8, symBinAddr: 0x30BE74, symSize: 0x8 }
  - { offset: 0x849668, size: 0x8, addend: 0x0, symName: __ZThn8_N5realm17ColumnsCollectionIdE18get_element_lengthEv, symObjAddr: 0x1C6F0, symBinAddr: 0x30BE7C, symSize: 0x8 }
  - { offset: 0x849683, size: 0x8, addend: 0x0, symName: __ZThn8_N5realm17ColumnsCollectionIdE18get_element_lengthEv, symObjAddr: 0x1C6F0, symBinAddr: 0x30BE7C, symSize: 0x8 }
  - { offset: 0x849697, size: 0x8, addend: 0x0, symName: __ZThn8_N5realm17ColumnsCollectionIdE18get_element_lengthEv, symObjAddr: 0x1C6F0, symBinAddr: 0x30BE7C, symSize: 0x8 }
  - { offset: 0x8496B5, size: 0x8, addend: 0x0, symName: __ZThn8_N5realm17ColumnsCollectionIdE18get_element_lengthEv, symObjAddr: 0x1C6F0, symBinAddr: 0x30BE7C, symSize: 0x8 }
  - { offset: 0x8496D2, size: 0x8, addend: 0x0, symName: __ZThn8_N5realm17ColumnsCollectionIdE18get_element_lengthEv, symObjAddr: 0x1C6F0, symBinAddr: 0x30BE7C, symSize: 0x8 }
  - { offset: 0x8496EF, size: 0x8, addend: 0x0, symName: __ZThn8_N5realm17ColumnsCollectionIdE18get_element_lengthEv, symObjAddr: 0x1C6F0, symBinAddr: 0x30BE7C, symSize: 0x8 }
  - { offset: 0x84970C, size: 0x8, addend: 0x0, symName: __ZThn8_N5realm17ColumnsCollectionIdE18get_element_lengthEv, symObjAddr: 0x1C6F0, symBinAddr: 0x30BE7C, symSize: 0x8 }
  - { offset: 0x84972C, size: 0x8, addend: 0x0, symName: __ZThn8_N5realm17ColumnsCollectionIdE6max_ofEv, symObjAddr: 0x1C6F8, symBinAddr: 0x30BE84, symSize: 0x8 }
  - { offset: 0x849752, size: 0x8, addend: 0x0, symName: __ZThn8_N5realm17ColumnsCollectionIdE6min_ofEv, symObjAddr: 0x1C700, symBinAddr: 0x30BE8C, symSize: 0x8 }
  - { offset: 0x849778, size: 0x8, addend: 0x0, symName: __ZThn8_N5realm17ColumnsCollectionIdE6sum_ofEv, symObjAddr: 0x1C708, symBinAddr: 0x30BE94, symSize: 0x8 }
  - { offset: 0x84979E, size: 0x8, addend: 0x0, symName: __ZThn8_N5realm17ColumnsCollectionIdE6avg_ofEv, symObjAddr: 0x1C710, symBinAddr: 0x30BE9C, symSize: 0x8 }
  - { offset: 0x8497E7, size: 0x8, addend: 0x0, symName: __ZThn8_N5realm17ColumnsCollectionIdE5indexERKNS_11PathElementE, symObjAddr: 0x1C718, symBinAddr: 0x30BEA4, symSize: 0x30 }
  - { offset: 0x849820, size: 0x8, addend: 0x0, symName: __ZThn8_N5realm17ColumnsCollectionIdE5indexERKNS_11PathElementE, symObjAddr: 0x1C718, symBinAddr: 0x30BEA4, symSize: 0x30 }
  - { offset: 0x849872, size: 0x8, addend: 0x0, symName: __ZN5realm17ColumnsCollectionIdED1Ev, symObjAddr: 0x1C748, symBinAddr: 0x30BED4, symSize: 0xDC }
  - { offset: 0x84A088, size: 0x8, addend: 0x0, symName: __ZN5realm17ColumnsCollectionIdED0Ev, symObjAddr: 0x1C824, symBinAddr: 0x30BFB0, symSize: 0xDC }
  - { offset: 0x84A8EF, size: 0x8, addend: 0x0, symName: __ZNK5realm17ColumnsCollectionIdE5cloneEv, symObjAddr: 0x1C900, symBinAddr: 0x30C08C, symSize: 0x54 }
  - { offset: 0x84A9F1, size: 0x8, addend: 0x0, symName: __ZN5realm8Subexpr2IdED1Ev, symObjAddr: 0x1C954, symBinAddr: 0x30C0E0, symSize: 0x4 }
  - { offset: 0x84AA1B, size: 0x8, addend: 0x0, symName: __ZN5realm8Subexpr2IdED0Ev, symObjAddr: 0x1C958, symBinAddr: 0x30C0E4, symSize: 0x4 }
  - { offset: 0x84AF23, size: 0x8, addend: 0x0, symName: __ZNK5realm25CollectionColumnAggregateIdNS_20aggregate_operations7MaximumIdEEE5cloneEv, symObjAddr: 0x1D70C, symBinAddr: 0x30C328, symSize: 0xC }
  - { offset: 0x84AF8E, size: 0x8, addend: 0x0, symName: __ZN5realm25CollectionColumnAggregateIdNS_20aggregate_operations7MaximumIdEEED0Ev, symObjAddr: 0x1D8D8, symBinAddr: 0x30C41C, symSize: 0xE8 }
  - { offset: 0x84B82B, size: 0x8, addend: 0x0, symName: __ZN5realm25CollectionColumnAggregateIdNS_20aggregate_operations7MaximumIdEEE14set_base_tableENS_13ConstTableRefE, symObjAddr: 0x1D9C0, symBinAddr: 0x30C504, symSize: 0x8 }
  - { offset: 0x84B862, size: 0x8, addend: 0x0, symName: __ZN5realm25CollectionColumnAggregateIdNS_20aggregate_operations7MaximumIdEEE14set_base_tableENS_13ConstTableRefE, symObjAddr: 0x1D9C0, symBinAddr: 0x30C504, symSize: 0x8 }
  - { offset: 0x84B880, size: 0x8, addend: 0x0, symName: __ZNK5realm25CollectionColumnAggregateIdNS_20aggregate_operations7MaximumIdEEE11descriptionERNS_4util10serializer18SerialisationStateE, symObjAddr: 0x1D9C8, symBinAddr: 0x30C50C, symSize: 0xDC }
  - { offset: 0x84BF21, size: 0x8, addend: 0x0, symName: __ZN5realm25CollectionColumnAggregateIdNS_20aggregate_operations7MaximumIdEEE11set_clusterEPKNS_7ClusterE, symObjAddr: 0x1DAA4, symBinAddr: 0x30C5E8, symSize: 0x8 }
  - { offset: 0x84BF5A, size: 0x8, addend: 0x0, symName: __ZN5realm25CollectionColumnAggregateIdNS_20aggregate_operations7MaximumIdEEE11set_clusterEPKNS_7ClusterE, symObjAddr: 0x1DAA4, symBinAddr: 0x30C5E8, symSize: 0x8 }
  - { offset: 0x84BF96, size: 0x8, addend: 0x0, symName: __ZNK5realm25CollectionColumnAggregateIdNS_20aggregate_operations7MaximumIdEEE14get_base_tableEv, symObjAddr: 0x1DAAC, symBinAddr: 0x30C5F0, symSize: 0x20 }
  - { offset: 0x84BFC0, size: 0x8, addend: 0x0, symName: __ZNK5realm25CollectionColumnAggregateIdNS_20aggregate_operations7MaximumIdEEE14get_base_tableEv, symObjAddr: 0x1DAAC, symBinAddr: 0x30C5F0, symSize: 0x20 }
  - { offset: 0x84BFE0, size: 0x8, addend: 0x0, symName: __ZNK5realm25CollectionColumnAggregateIdNS_20aggregate_operations7MaximumIdEEE14get_base_tableEv, symObjAddr: 0x1DAAC, symBinAddr: 0x30C5F0, symSize: 0x20 }
  - { offset: 0x84C002, size: 0x8, addend: 0x0, symName: __ZNK5realm25CollectionColumnAggregateIdNS_20aggregate_operations7MaximumIdEEE14get_base_tableEv, symObjAddr: 0x1DAAC, symBinAddr: 0x30C5F0, symSize: 0x20 }
  - { offset: 0x84C046, size: 0x8, addend: 0x0, symName: __ZNK5realm25CollectionColumnAggregateIdNS_20aggregate_operations7MaximumIdEEE20collect_dependenciesERNSt3__16vectorINS_8TableKeyENS5_9allocatorIS7_EEEE, symObjAddr: 0x1DACC, symBinAddr: 0x30C610, symSize: 0x8 }
  - { offset: 0x84C07F, size: 0x8, addend: 0x0, symName: __ZNK5realm25CollectionColumnAggregateIdNS_20aggregate_operations7MaximumIdEEE20collect_dependenciesERNSt3__16vectorINS_8TableKeyENS5_9allocatorIS7_EEEE, symObjAddr: 0x1DACC, symBinAddr: 0x30C610, symSize: 0x8 }
  - { offset: 0x84C0BB, size: 0x8, addend: 0x0, symName: __ZNK5realm25CollectionColumnAggregateIdNS_20aggregate_operations7MaximumIdEEE8get_typeEv, symObjAddr: 0x1DAD4, symBinAddr: 0x30C618, symSize: 0xC }
  - { offset: 0x84C0E5, size: 0x8, addend: 0x0, symName: __ZNK5realm25CollectionColumnAggregateIdNS_20aggregate_operations7MaximumIdEEE8get_typeEv, symObjAddr: 0x1DAD4, symBinAddr: 0x30C618, symSize: 0xC }
  - { offset: 0x84C3F4, size: 0x8, addend: 0x0, symName: __ZN5realm25CollectionColumnAggregateIdNS_20aggregate_operations7MaximumIdEEE8evaluateERNS_7Subexpr5IndexERNS_9ValueBaseE, symObjAddr: 0x1DAE0, symBinAddr: 0x30C624, symSize: 0x4F8 }
  - { offset: 0x84D687, size: 0x8, addend: 0x0, symName: __ZNK5realm25CollectionColumnAggregateIdNS_20aggregate_operations7MinimumIdEEE5cloneEv, symObjAddr: 0x1E1B8, symBinAddr: 0x30CCFC, symSize: 0xC }
  - { offset: 0x84D6B8, size: 0x8, addend: 0x0, symName: __ZN5realm25CollectionColumnAggregateIdNS_20aggregate_operations7MinimumIdEEED0Ev, symObjAddr: 0x1E2AC, symBinAddr: 0x30CDF0, symSize: 0xE8 }
  - { offset: 0x84DF32, size: 0x8, addend: 0x0, symName: __ZN5realm25CollectionColumnAggregateIdNS_20aggregate_operations7MinimumIdEEE14set_base_tableENS_13ConstTableRefE, symObjAddr: 0x1E394, symBinAddr: 0x30CED8, symSize: 0x8 }
  - { offset: 0x84DF69, size: 0x8, addend: 0x0, symName: __ZN5realm25CollectionColumnAggregateIdNS_20aggregate_operations7MinimumIdEEE14set_base_tableENS_13ConstTableRefE, symObjAddr: 0x1E394, symBinAddr: 0x30CED8, symSize: 0x8 }
  - { offset: 0x84DF87, size: 0x8, addend: 0x0, symName: __ZNK5realm25CollectionColumnAggregateIdNS_20aggregate_operations7MinimumIdEEE11descriptionERNS_4util10serializer18SerialisationStateE, symObjAddr: 0x1E39C, symBinAddr: 0x30CEE0, symSize: 0xDC }
  - { offset: 0x84E605, size: 0x8, addend: 0x0, symName: __ZN5realm25CollectionColumnAggregateIdNS_20aggregate_operations7MinimumIdEEE11set_clusterEPKNS_7ClusterE, symObjAddr: 0x1E478, symBinAddr: 0x30CFBC, symSize: 0x8 }
  - { offset: 0x84E63E, size: 0x8, addend: 0x0, symName: __ZN5realm25CollectionColumnAggregateIdNS_20aggregate_operations7MinimumIdEEE11set_clusterEPKNS_7ClusterE, symObjAddr: 0x1E478, symBinAddr: 0x30CFBC, symSize: 0x8 }
  - { offset: 0x84E664, size: 0x8, addend: 0x0, symName: __ZNK5realm25CollectionColumnAggregateIdNS_20aggregate_operations7MinimumIdEEE14get_base_tableEv, symObjAddr: 0x1E480, symBinAddr: 0x30CFC4, symSize: 0x20 }
  - { offset: 0x84E68E, size: 0x8, addend: 0x0, symName: __ZNK5realm25CollectionColumnAggregateIdNS_20aggregate_operations7MinimumIdEEE14get_base_tableEv, symObjAddr: 0x1E480, symBinAddr: 0x30CFC4, symSize: 0x20 }
  - { offset: 0x84E6AE, size: 0x8, addend: 0x0, symName: __ZNK5realm25CollectionColumnAggregateIdNS_20aggregate_operations7MinimumIdEEE14get_base_tableEv, symObjAddr: 0x1E480, symBinAddr: 0x30CFC4, symSize: 0x20 }
  - { offset: 0x84E6D0, size: 0x8, addend: 0x0, symName: __ZNK5realm25CollectionColumnAggregateIdNS_20aggregate_operations7MinimumIdEEE14get_base_tableEv, symObjAddr: 0x1E480, symBinAddr: 0x30CFC4, symSize: 0x20 }
  - { offset: 0x84E6F1, size: 0x8, addend: 0x0, symName: __ZNK5realm25CollectionColumnAggregateIdNS_20aggregate_operations7MinimumIdEEE20collect_dependenciesERNSt3__16vectorINS_8TableKeyENS5_9allocatorIS7_EEEE, symObjAddr: 0x1E4A0, symBinAddr: 0x30CFE4, symSize: 0x8 }
  - { offset: 0x84E72A, size: 0x8, addend: 0x0, symName: __ZNK5realm25CollectionColumnAggregateIdNS_20aggregate_operations7MinimumIdEEE20collect_dependenciesERNSt3__16vectorINS_8TableKeyENS5_9allocatorIS7_EEEE, symObjAddr: 0x1E4A0, symBinAddr: 0x30CFE4, symSize: 0x8 }
  - { offset: 0x84E750, size: 0x8, addend: 0x0, symName: __ZNK5realm25CollectionColumnAggregateIdNS_20aggregate_operations7MinimumIdEEE8get_typeEv, symObjAddr: 0x1E4A8, symBinAddr: 0x30CFEC, symSize: 0xC }
  - { offset: 0x84E77A, size: 0x8, addend: 0x0, symName: __ZNK5realm25CollectionColumnAggregateIdNS_20aggregate_operations7MinimumIdEEE8get_typeEv, symObjAddr: 0x1E4A8, symBinAddr: 0x30CFEC, symSize: 0xC }
  - { offset: 0x84E907, size: 0x8, addend: 0x0, symName: __ZN5realm25CollectionColumnAggregateIdNS_20aggregate_operations7MinimumIdEEE8evaluateERNS_7Subexpr5IndexERNS_9ValueBaseE, symObjAddr: 0x1E4B4, symBinAddr: 0x30CFF8, symSize: 0x4F8 }
  - { offset: 0x84FB9A, size: 0x8, addend: 0x0, symName: __ZNK5realm25CollectionColumnAggregateIdNS_20aggregate_operations3SumIdEEE5cloneEv, symObjAddr: 0x1EB8C, symBinAddr: 0x30D6D0, symSize: 0xC }
  - { offset: 0x84FBCB, size: 0x8, addend: 0x0, symName: __ZN5realm25CollectionColumnAggregateIdNS_20aggregate_operations3SumIdEEED0Ev, symObjAddr: 0x1EC80, symBinAddr: 0x30D7C4, symSize: 0xE8 }
  - { offset: 0x850445, size: 0x8, addend: 0x0, symName: __ZN5realm25CollectionColumnAggregateIdNS_20aggregate_operations3SumIdEEE14set_base_tableENS_13ConstTableRefE, symObjAddr: 0x1ED68, symBinAddr: 0x30D8AC, symSize: 0x8 }
  - { offset: 0x85047C, size: 0x8, addend: 0x0, symName: __ZN5realm25CollectionColumnAggregateIdNS_20aggregate_operations3SumIdEEE14set_base_tableENS_13ConstTableRefE, symObjAddr: 0x1ED68, symBinAddr: 0x30D8AC, symSize: 0x8 }
  - { offset: 0x85049A, size: 0x8, addend: 0x0, symName: __ZNK5realm25CollectionColumnAggregateIdNS_20aggregate_operations3SumIdEEE11descriptionERNS_4util10serializer18SerialisationStateE, symObjAddr: 0x1ED70, symBinAddr: 0x30D8B4, symSize: 0xDC }
  - { offset: 0x850B18, size: 0x8, addend: 0x0, symName: __ZN5realm25CollectionColumnAggregateIdNS_20aggregate_operations3SumIdEEE11set_clusterEPKNS_7ClusterE, symObjAddr: 0x1EE4C, symBinAddr: 0x30D990, symSize: 0x8 }
  - { offset: 0x850B51, size: 0x8, addend: 0x0, symName: __ZN5realm25CollectionColumnAggregateIdNS_20aggregate_operations3SumIdEEE11set_clusterEPKNS_7ClusterE, symObjAddr: 0x1EE4C, symBinAddr: 0x30D990, symSize: 0x8 }
  - { offset: 0x850B77, size: 0x8, addend: 0x0, symName: __ZNK5realm25CollectionColumnAggregateIdNS_20aggregate_operations3SumIdEEE14get_base_tableEv, symObjAddr: 0x1EE54, symBinAddr: 0x30D998, symSize: 0x20 }
